 xerces-c_3_1

 Timestamp is 631ede46 (Mon Sep 12 16:22:46 2022)

 Preferred load address is 12000000

 Start         Length     Name                   Class
 0001:00000000 000000a0H .text$di                CODE
 0001:000000a0 000b126fH .text$mn                CODE
 0001:000b130f 0000a6d1H .text$x                 CODE
 0001:000bb9e0 00000107H .text$yd                CODE
 0002:00000000 000001fcH .idata$5                DATA
 0002:000001fc 00000008H .00cfg                  DATA
 0002:00000204 00000004H .CRT$XCA                DATA
 0002:00000208 00000034H .CRT$XCU                DATA
 0002:0000023c 00000004H .CRT$XCZ                DATA
 0002:00000240 00000004H .CRT$XIA                DATA
 0002:00000244 00000004H .CRT$XIC                DATA
 0002:00000248 00000004H .CRT$XIZ                DATA
 0002:0000024c 00000004H .CRT$XLA                DATA
 0002:00000250 00000004H .CRT$XLZ                DATA
 0002:00000254 00000004H .CRT$XPA                DATA
 0002:00000258 00000004H .CRT$XPZ                DATA
 0002:0000025c 00000004H .CRT$XTA                DATA
 0002:00000260 00000010H .CRT$XTZ                DATA
 0002:00000264 00000000H .gfids$y                DATA
 0002:00000270 000363d0H .rdata                  DATA
 0002:00036640 00000000H .rdata$CastGuardVftablesA DATA
 0002:00036640 00000000H .rdata$CastGuardVftablesC DATA
 0002:00036640 00000018H .rdata$T                DATA
 0002:00036658 0000a688H .rdata$r                DATA
 0002:00040ce0 00000ac4H .rdata$sxdata           DATA
 0002:000417a4 0000007cH .rdata$voltmd           DATA
 0002:00041820 000003d4H .rdata$zzzdbg           DATA
 0002:00041bf4 00000004H .rtc$IAA                DATA
 0002:00041bf8 00000004H .rtc$IZZ                DATA
 0002:00041bfc 00000004H .rtc$TAA                DATA
 0002:00041c00 00000004H .rtc$TZZ                DATA
 0002:00041c04 00000004H .tls                    DATA
 0002:00041c08 00000004H .tls$                   DATA
 0002:00041c0c 00000004H .tls$ZZZ                DATA
 0002:00041c10 0000e5f0H .xdata$x                DATA
 0002:00050200 00082e60H .edata                  DATA
 0002:000d3060 00000104H .idata$2                DATA
 0002:000d3164 00000014H .idata$3                DATA
 0002:000d3178 000001fcH .idata$4                DATA
 0002:000d3374 00000908H .idata$6                DATA
 0003:00000000 00021284H .data                   DATA
 0003:00021284 000003f4H .data$r                 DATA
 0003:00021678 000069f0H .data$rs                DATA
 0003:00028068 00000514H .bss                    DATA
 0004:00000000 000009f0H .rsrc$01                DATA
 0004:000009f0 000132c0H .rsrc$02                DATA

  Address         Publics by Value              Rva+Base       Lib:Object

 0000:00000000       ___AbsoluteZero            00000000     <absolute>
 0000:00000000       ___arm64x_extra_rfe_table  00000000     <absolute>
 0000:00000000       ___arm64x_extra_rfe_table_size 00000000     <absolute>
 0000:00000000       ___arm64x_native_entrypoint 00000000     <absolute>
 0000:00000000       ___arm64x_redirection_metadata 00000000     <absolute>
 0000:00000000       ___arm64x_redirection_metadata_count 00000000     <absolute>
 0000:00000000       ___dynamic_value_reloc_table 00000000     <absolute>
 0000:00000000       ___enclave_config          00000000     <absolute>
 0000:00000000       ___guard_check_icall_a64n_fptr 00000000     <absolute>
 0000:00000000       ___guard_eh_cont_count     00000000     <absolute>
 0000:00000000       ___guard_eh_cont_table     00000000     <absolute>
 0000:00000000       ___guard_fids_count        00000000     <absolute>
 0000:00000000       ___guard_fids_table        00000000     <absolute>
 0000:00000000       ___guard_iat_count         00000000     <absolute>
 0000:00000000       ___guard_iat_table         00000000     <absolute>
 0000:00000000       ___guard_longjmp_count     00000000     <absolute>
 0000:00000000       ___guard_longjmp_table     00000000     <absolute>
 0000:00000000       ___hybrid_auxiliary_iat    00000000     <absolute>
 0000:00000000       ___hybrid_auxiliary_iat_copy 00000000     <absolute>
 0000:00000000       ___hybrid_code_map         00000000     <absolute>
 0000:00000000       ___hybrid_code_map_count   00000000     <absolute>
 0000:00000000       ___x64_code_ranges_to_entry_points 00000000     <absolute>
 0000:00000000       ___x64_code_ranges_to_entry_points_count 00000000     <absolute>
 0000:0000002c       __tls_array                0000002c     <absolute>
 0000:00000100       ___guard_flags             00000100     <absolute>
 0000:000002b1       ___safe_se_handler_count   000002b1     <absolute>
 0000:00000000       ___ImageBase               12000000     <linker-defined>
 0001:000000a0       ??1MemoryManager@xercesc_3_1@@UAE@XZ 120010a0 f i Base64.obj
 0001:000000a0       ??1MemoryManagerImpl@xercesc_3_1@@UAE@XZ 120010a0 f i PlatformUtils.obj
 0001:000000a7       ??0MemoryManager@xercesc_3_1@@IAE@XZ 120010a7 f i Base64.obj
 0001:000000b0       ??_EMemoryManager@xercesc_3_1@@UAEPAXI@Z 120010b0 f i Base64.obj
 0001:000000b0       ??_EMemoryManagerImpl@xercesc_3_1@@UAEPAXI@Z 120010b0 f i PlatformUtils.obj
 0001:0000013c       ??0OutOfMemoryException@xercesc_3_1@@QAE@ABV01@@Z 1200113c f i PlatformUtils.obj
 0001:0000013c       ??4Base64@xercesc_3_1@@QAEAAV01@ABV01@@Z 1200113c f i Base64.obj
 0001:0000013c       ??4DOMImplementationRegistry@xercesc_3_1@@QAEAAV01@$$QAV01@@Z 1200113c f i AbstractDOMParser.obj
 0001:0000013c       ??4DOMImplementationRegistry@xercesc_3_1@@QAEAAV01@ABV01@@Z 1200113c f i AbstractDOMParser.obj
 0001:0000013c       ??4OutOfMemoryException@xercesc_3_1@@QAEAAV01@ABV01@@Z 1200113c f i PlatformUtils.obj
 0001:0000013c       ??4PSVIDefs@xercesc_3_1@@QAEAAV01@$$QAV01@@Z 1200113c f i XMLElementDecl.obj
 0001:0000013c       ??4PSVIDefs@xercesc_3_1@@QAEAAV01@ABV01@@Z 1200113c f i XMLElementDecl.obj
 0001:0000013c       ??4PSVIUni@xercesc_3_1@@QAEAAV01@$$QAV01@@Z 1200113c f i PSVIUni.obj
 0001:0000013c       ??4PSVIUni@xercesc_3_1@@QAEAAV01@ABV01@@Z 1200113c f i PSVIUni.obj
 0001:0000013c       ??4RegxUtil@xercesc_3_1@@QAEAAV01@ABV01@@Z 1200113c f i RegularExpression.obj
 0001:0000013c       ??4SchemaSymbols@xercesc_3_1@@QAEAAV01@$$QAV01@@Z 1200113c f i XMLAttr.obj
 0001:0000013c       ??4SchemaSymbols@xercesc_3_1@@QAEAAV01@ABV01@@Z 1200113c f i XMLAttr.obj
 0001:0000013c       ??4XIncludeDOMDocumentProcessor@xercesc_3_1@@QAEAAV01@$$QAV01@@Z 1200113c f i XIncludeDOMDocumentProcessor.obj
 0001:0000013c       ??4XIncludeDOMDocumentProcessor@xercesc_3_1@@QAEAAV01@ABV01@@Z 1200113c f i XIncludeDOMDocumentProcessor.obj
 0001:0000013c       ??4XMLBufferFullHandler@xercesc_3_1@@QAEAAV01@ABV01@@Z 1200113c f i Base64.obj
 0001:0000013c       ??4XMLChar1_0@xercesc_3_1@@QAEAAV01@$$QAV01@@Z 1200113c f i Base64.obj
 0001:0000013c       ??4XMLChar1_0@xercesc_3_1@@QAEAAV01@ABV01@@Z 1200113c f i Base64.obj
 0001:0000013c       ??4XMLChar1_1@xercesc_3_1@@QAEAAV01@$$QAV01@@Z 1200113c f i Base64.obj
 0001:0000013c       ??4XMLChar1_1@xercesc_3_1@@QAEAAV01@ABV01@@Z 1200113c f i Base64.obj
 0001:0000013c       ??4XMLPlatformUtils@xercesc_3_1@@QAEAAV01@$$QAV01@@Z 1200113c f i Base64.obj
 0001:0000013c       ??4XMLPlatformUtils@xercesc_3_1@@QAEAAV01@ABV01@@Z 1200113c f i Base64.obj
 0001:0000013c       ??4XMLScannerResolver@xercesc_3_1@@QAEAAV01@ABV01@@Z 1200113c f i XMLScannerResolver.obj
 0001:0000013c       ??4XMLString@xercesc_3_1@@QAEAAV01@ABV01@@Z 1200113c f i Base64.obj
 0001:0000013c       ??4XMLUni@xercesc_3_1@@QAEAAV01@$$QAV01@@Z 1200113c f i Base64.obj
 0001:0000013c       ??4XMLUni@xercesc_3_1@@QAEAAV01@ABV01@@Z 1200113c f i Base64.obj
 0001:0000013c       ??4XMLUniCharacter@xercesc_3_1@@QAEAAV01@ABV01@@Z 1200113c f i RangeTokenMap.obj
 0001:0000013c       ??4XMemory@xercesc_3_1@@QAEAAV01@$$QAV01@@Z 1200113c f i Base64.obj
 0001:0000013c       ??4XMemory@xercesc_3_1@@QAEAAV01@ABV01@@Z 1200113c f i Base64.obj
 0001:0000013c       ??4XPathSymbols@xercesc_3_1@@QAEAAV01@$$QAV01@@Z 1200113c f i XercesXPath.obj
 0001:0000013c       ??4XPathSymbols@xercesc_3_1@@QAEAAV01@ABV01@@Z 1200113c f i XercesXPath.obj
 0001:0000013c       ??4XSConstants@xercesc_3_1@@QAEAAV01@$$QAV01@@Z 1200113c f i XMLAttr.obj
 0001:0000013c       ??4XSConstants@xercesc_3_1@@QAEAAV01@ABV01@@Z 1200113c f i XMLAttr.obj
 0001:0000013c       ??4XUtil@xercesc_3_1@@QAEAAV01@ABV01@@Z 1200113c f i SchemaInfo.obj
 0001:0000013c       ??4XercesElementWildcard@xercesc_3_1@@QAEAAV01@ABV01@@Z 1200113c f i AllContentModel.obj
 0001:0000013c       ??4XercesNamespaceResolver@xercesc_3_1@@QAEAAV01@$$QAV01@@Z 1200113c f i XMLGrammarPoolImpl.obj
 0001:0000013c       ??4XercesNamespaceResolver@xercesc_3_1@@QAEAAV01@ABV01@@Z 1200113c f i XMLGrammarPoolImpl.obj
 0001:00000141       ?isPad@Base64@xercesc_3_1@@CA_NABE@Z 12001141 f i Base64.obj
 0001:0000014f       ?set1stOctet@Base64@xercesc_3_1@@CAEABE0@Z 1200114f f i Base64.obj
 0001:00000166       ?set2ndOctet@Base64@xercesc_3_1@@CAEABE0@Z 12001166 f i Base64.obj
 0001:0000017d       ?set3rdOctet@Base64@xercesc_3_1@@CAEABE0@Z 1200117d f i Base64.obj
 0001:0000018f       ?split1stOctet@Base64@xercesc_3_1@@CAXABEAAE1@Z 1200118f f i Base64.obj
 0001:000001ae       ?split2ndOctet@Base64@xercesc_3_1@@CAXABEAAE1@Z 120011ae f i Base64.obj
 0001:000001cd       ?split3rdOctet@Base64@xercesc_3_1@@CAXABEAAE1@Z 120011cd f i Base64.obj
 0001:000001e9       ??0OutOfMemoryException@xercesc_3_1@@QAE@XZ 120011e9 f i PlatformUtils.obj
 0001:000001e9       ??0XMemory@xercesc_3_1@@IAE@XZ 120011e9 f i Base64.obj
 0001:000001e9       ??0XUtil@xercesc_3_1@@AAE@XZ 120011e9 f i SchemaInfo.obj
 0001:000001e9       ?getExceptionMemoryManager@MemoryManagerImpl@xercesc_3_1@@UAEPAVMemoryManager@2@XZ 120011e9 f i MemoryManagerImpl.obj
 0001:000001ec       ??0DOMError@xercesc_3_1@@IAE@XZ 120011ec f i Base64.obj
 0001:000001f5       ??1DOMError@xercesc_3_1@@UAE@XZ 120011f5 f i Base64.obj
 0001:000001fc       ??_EDOMError@xercesc_3_1@@UAEPAXI@Z 120011fc f i Base64.obj
 0001:00000288       ??1AnnotationErrorReporter@xercesc_3_1@@UAE@XZ 12001288 f i TraverseSchema.obj
 0001:00000288       ??1XMLErrorReporter@xercesc_3_1@@UAE@XZ 12001288 f i Base64.obj
 0001:0000028f       ??0XMLErrorReporter@xercesc_3_1@@IAE@XZ 1200128f f i Base64.obj
 0001:00000298       ??_EXMLErrorReporter@xercesc_3_1@@UAEPAXI@Z 12001298 f i Base64.obj
 0001:00000324       ?getByteStream@DOMLSInputImpl@xercesc_3_1@@UBEPAVInputSource@2@XZ 12001324 f i DOMImplementationImpl.obj
 0001:00000324       ?getByteStream@Wrapper4InputSource@xercesc_3_1@@UBEPAVInputSource@2@XZ 12001324 f i Wrapper4InputSource.obj
 0001:00000324       ?getCategories@RangeTokenMap@xercesc_3_1@@IBEPAVXMLStringPool@2@XZ 12001324 f i ASCIIRangeFactory.obj
 0001:00000324       ?getCode@XMLException@xercesc_3_1@@QBE?AW4Codes@XMLExcepts@2@XZ 12001324 f i Base64.obj
 0001:00000324       ?getContextType@XMLSchemaDescriptionImpl@xercesc_3_1@@UBE?AW4ContextType@XMLSchemaDescription@2@XZ 12001324 f i XMLSchemaDescriptionImpl.obj
 0001:00000324       ?getCurrentReader@ReaderMgr@xercesc_3_1@@QAEPAVXMLReader@2@XZ 12001324 f i XMLValidator.obj
 0001:00000324       ?getCurrentReader@ReaderMgr@xercesc_3_1@@QBEPBVXMLReader@2@XZ 12001324 f i XMLValidator.obj
 0001:00000324       ?getElement@ContentSpecNode@xercesc_3_1@@QAEPAVQName@2@XZ 12001324 f i XMLGrammarPoolImpl.obj
 0001:00000324       ?getElement@ContentSpecNode@xercesc_3_1@@QBEPBVQName@2@XZ 12001324 f i XMLGrammarPoolImpl.obj
 0001:00000324       ?getElementName@IdentityConstraint@xercesc_3_1@@QBEPA_WXZ 12001324 f i XMLElementDecl.obj
 0001:00000324       ?getElementName@XMLElementDecl@xercesc_3_1@@QAEPAVQName@2@XZ 12001324 f i XMLDTDDescription.obj
 0001:00000324       ?getElementName@XMLElementDecl@xercesc_3_1@@QBEPBVQName@2@XZ 12001324 f i XMLDTDDescription.obj
 0001:00000324       ?getEncoding@DOMLSOutputImpl@xercesc_3_1@@UBEPB_WXZ 12001324 f i DOMImplementationImpl.obj
 0001:00000324       ?getEncoding@InputSource@xercesc_3_1@@UBEPB_WXZ 12001324 f i LocalFileInputSource.obj
 0001:00000324       ?getEncodingName@XMLTranscoder@xercesc_3_1@@QBEPB_WXZ 12001324 f i PlatformUtils.obj
 0001:00000324       ?getErrorHandler@DOMConfigurationImpl@xercesc_3_1@@QBEPAVDOMErrorHandler@2@XZ 12001324 f i DOMConfigurationImpl.obj
 0001:00000324       ?getExpression@XercesXPath@xercesc_3_1@@QAEPA_WXZ 12001324 f i XMLGrammarPoolImpl.obj
 0001:00000324       ?getFilter@DOMTreeWalkerImpl@xercesc_3_1@@UAEPAVDOMNodeFilter@2@XZ 12001324 f i DOMTreeWalkerImpl.obj
 0001:00000324       ?getFinalDefault@SchemaInfo@xercesc_3_1@@QBEHXZ 12001324 f i IGXMLScanner.obj
 0001:00000324       ?getFirstChild@DOMParentNode@xercesc_3_1@@QBEPAVDOMNode@2@XZ 12001324 f i DOMParentNode.obj
 0001:00000324       ?getFragment@XMLURL@xercesc_3_1@@QBEPB_WXZ 12001324 f i PlatformUtils.obj
 0001:00000324       ?getGrammarPool@XSerializeEngine@xercesc_3_1@@QBEPAVXMLGrammarPool@2@XZ 12001324 f i XSerializeEngine.obj
 0001:00000324       ?getIdRefList@ValidationContextImpl@xercesc_3_1@@UBEPAV?$RefHashTableOf@VXMLRefInfo@xercesc_3_1@@UStringHasher@2@@2@XZ 12001324 f i ValidationContextImpl.obj
 0001:00000324       ?getIdentityConstraint@IC_Field@xercesc_3_1@@QBEPAVIdentityConstraint@2@XZ 12001324 f i XMLElementDecl.obj
 0001:00000324       ?getIdentityConstraint@IC_Selector@xercesc_3_1@@QBEPAVIdentityConstraint@2@XZ 12001324 f i XSIDCDefinition.obj
 0001:00000324       ?getIdentityConstraint@ValueStore@xercesc_3_1@@QBEPAVIdentityConstraint@2@XZ 12001324 f i IGXMLScanner2.obj
 0001:00000324       ?getLen@CharBuffer@xercesc_3_1@@QBEKXZ 12001324 f i BinHTTPInputStreamCommon.obj
 0001:00000324       ?getLength@PSVIAttributeList@xercesc_3_1@@QBEKXZ 12001324 f i PSVIAttributeList.obj
 0001:00000324       ?getLength@VecAttrListImpl@xercesc_3_1@@UBEKXZ 12001324 f i VecAttrListImpl.obj
 0001:00000324       ?getLength@VecAttributesImpl@xercesc_3_1@@UBEKXZ 12001324 f i VecAttributesImpl.obj
 0001:00000324       ?getMessage@DOMException@xercesc_3_1@@QBEPB_WXZ 12001324 f i AbstractDOMParser.obj
 0001:00000324       ?getName@XercesNodeTest@xercesc_3_1@@QBEPAVQName@2@XZ 12001324 f i XMLGrammarPoolImpl.obj
 0001:00000324       ?getNameId@XercesAttGroupInfo@xercesc_3_1@@QBEIXZ 12001324 f i XMLGrammarPoolImpl.obj
 0001:00000324       ?getNameSpaceId@XMLNotationDecl@xercesc_3_1@@QBEIXZ 12001324 f i XMLDTDDescription.obj
 0001:00000324       ?getNamespaceItems@XSModel@xercesc_3_1@@QAEPAV?$RefVectorOf@VXSNamespaceItem@xercesc_3_1@@@2@XZ 12001324 f i XMLGrammarPoolImpl.obj
 0001:00000324       ?getNodeTest@XercesStep@xercesc_3_1@@QBEPAVXercesNodeTest@2@XZ 12001324 f i XMLGrammarPoolImpl.obj
 0001:00000324       ?getOpType@Op@xercesc_3_1@@QBE?AW4opType@12@XZ 12001324 f i Op.obj
 0001:00000324       ?getRawData@XMLBigInteger@xercesc_3_1@@QBEPA_WXZ 12001324 f i XMLBigDecimal.obj
 0001:00000324       ?getRefName@XMLRefInfo@xercesc_3_1@@QBEPB_WXZ 12001324 f i XMLGrammarPoolImpl.obj
 0001:00000324       ?getSchemaLocation@XMLResourceIdentifier@xercesc_3_1@@QBEPB_WXZ 12001324 f i DGXMLScanner.obj
 0001:00000324       ?getScheme@XMLUri@xercesc_3_1@@QBEPB_WXZ 12001324 f i XMLString.obj
 0001:00000324       ?getScope@XercesGroupInfo@xercesc_3_1@@QBEIXZ 12001324 f i XMLGrammarPoolImpl.obj
 0001:00000324       ?getSeverity@DOMErrorImpl@xercesc_3_1@@UBE?AW4ErrorSeverity@DOMError@2@XZ 12001324 f i DOMLSParserImpl.obj
 0001:00000324       ?getSystemId@XMLDTDDescriptionImpl@xercesc_3_1@@UBEPB_WXZ 12001324 f i XMLDTDDescriptionImpl.obj
 0001:00000324       ?getSystemId@XMLResourceIdentifier@xercesc_3_1@@QBEPB_WXZ 12001324 f i DGXMLScanner.obj
 0001:00000324       ?getTotalDigit@XMLBigDecimal@xercesc_3_1@@QBEIXZ 12001324 f i XMLAbstractDoubleFloat.obj
 0001:00000324       ?getType@XMLAttDef@xercesc_3_1@@QBE?AW4AttTypes@12@XZ 12001324 f i XMLAttDef.obj
 0001:00000324       ?getValidationContext@PSVIItem@xercesc_3_1@@QAEPB_WXZ 12001324 f i PSVIAttribute.obj
 0001:00000324       ?getValueLen@XMLEntityDecl@xercesc_3_1@@QBEKXZ 12001324 f i XMLDTDDescription.obj
 0001:00000328       ?getAnnotation@XSNotationDeclaration@xercesc_3_1@@QBEPAVXSAnnotation@2@XZ 12001328 f i XSModel.obj
 0001:00000328       ?getAnnotationString@XSAnnotation@xercesc_3_1@@QAEPA_WXZ 12001328 f i XMLGrammarPoolImpl.obj
 0001:00000328       ?getAnnotationString@XSAnnotation@xercesc_3_1@@QBEPB_WXZ 12001328 f i XMLGrammarPoolImpl.obj
 0001:00000328       ?getAttDefCount@DTDAttDefList@xercesc_3_1@@UBEKXZ 12001328 f i DTDAttDefList.obj
 0001:00000328       ?getAttDefCount@SchemaAttDefList@xercesc_3_1@@UBEKXZ 12001328 f i SchemaAttDefList.obj
 0001:00000328       ?getAttributeDeclRegistry@SchemaGrammar@xercesc_3_1@@QBEPAV?$RefHashTableOf@VXMLAttDef@xercesc_3_1@@UStringHasher@2@@2@XZ 12001328 f i XMLGrammarPoolImpl.obj
 0001:00000328       ?getAttributeUses@XSAttributeGroupDefinition@xercesc_3_1@@QAEPAV?$RefVectorOf@VXSAttributeUse@xercesc_3_1@@@2@XZ 12001328 f i XSAttributeGroupDefinition.obj
 0001:00000328       ?getBaseURI@DOMLSInputImpl@xercesc_3_1@@UBEPB_WXZ 12001328 f i DOMImplementationImpl.obj
 0001:00000328       ?getBaseURI@DOMNotationImpl@xercesc_3_1@@UBEPB_WXZ 12001328 f i DOMNotationImpl.obj
 0001:00000328       ?getBaseURI@XMLNotationDecl@xercesc_3_1@@QBEPB_WXZ 12001328 f i XMLDTDDescription.obj
 0001:00000328       ?getBufSize@XSerializeEngine@xercesc_3_1@@QBEKXZ 12001328 f i KVStringPair.obj
 0001:00000328       ?getCompleteWildCard@XercesAttGroupInfo@xercesc_3_1@@QBEPAVSchemaAttDef@2@XZ 12001328 f i XMLGrammarPoolImpl.obj
 0001:00000328       ?getConstraintType@XSAttributeUse@xercesc_3_1@@QBE?AW4VALUE_CONSTRAINT@XSConstants@2@XZ 12001328 f i XSAttributeGroupDefinition.obj
 0001:00000328       ?getContentHandler@SAX2XMLFilterImpl@xercesc_3_1@@UBEPAVContentHandler@2@XZ 12001328 f i SAX2XMLFilterImpl.obj
 0001:00000328       ?getData2@ModifierOp@xercesc_3_1@@UBEHXZ 12001328 f i Op.obj
 0001:00000328       ?getDocument@DOMRangeImpl@xercesc_3_1@@QAEPAVDOMDocument@2@XZ 12001328 f i DOMRangeImpl.obj
 0001:00000328       ?getEnclosingElementName@XMLSchemaDescriptionImpl@xercesc_3_1@@UBEPBVQName@2@XZ 12001328 f i XMLSchemaDescriptionImpl.obj
 0001:00000328       ?getGrammar@SchemaValidator@xercesc_3_1@@UBEPAVGrammar@2@XZ 12001328 f i IGXMLScanner.obj
 0001:00000328       ?getGrammarDescription@DTDGrammar@xercesc_3_1@@UBEPAVXMLGrammarDescription@2@XZ 12001328 f i DTDGrammar.obj
 0001:00000328       ?getGrammarPool@GrammarResolver@xercesc_3_1@@QBEPAVXMLGrammarPool@2@XZ 12001328 f i XMLValidator.obj
 0001:00000328       ?getIntVal@XMLBigDecimal@xercesc_3_1@@QBEPA_WXZ 12001328 f i XMLAbstractDoubleFloat.obj
 0001:00000328       ?getLocalPart@QName@xercesc_3_1@@QAEPA_WXZ 12001328 f i QName.obj
 0001:00000328       ?getLocalPart@QName@xercesc_3_1@@QBEPB_WXZ 12001328 f i QName.obj
 0001:00000328       ?getMessage@XMLException@xercesc_3_1@@QBEPB_WXZ 12001328 f i Base64.obj
 0001:00000328       ?getMinOccurs@XSParticle@xercesc_3_1@@QBEKXZ 12001328 f i XSComplexTypeDefinition.obj
 0001:00000328       ?getModelType@DTDElementDecl@xercesc_3_1@@QBE?AW4ModelTypes@12@XZ 12001328 f i XMLElementDecl.obj
 0001:00000328       ?getNamespaceURI@IdentityConstraint@xercesc_3_1@@QBEHXZ 12001328 f i XMLElementDecl.obj
 0001:00000328       ?getParameterNames@DOMLSParserImpl@xercesc_3_1@@UBEPBVDOMStringList@2@XZ 12001328 f i DOMLSParserImpl.obj
 0001:00000328       ?getParameterNames@DOMLSSerializerImpl@xercesc_3_1@@UBEPBVDOMStringList@2@XZ 12001328 f i DOMLSSerializerImpl.obj
 0001:00000328       ?getParseContext@RegxParser@xercesc_3_1@@QBE?AW4parserStateContext@12@XZ 12001328 f i ParserForXMLSchema.obj
 0001:00000328       ?getParticles@XSModelGroup@xercesc_3_1@@QBEPAV?$RefVectorOf@VXSParticle@xercesc_3_1@@@2@XZ 12001328 f i XSModelGroup.obj
 0001:00000328       ?getPath@XMLUri@xercesc_3_1@@QBEPB_WXZ 12001328 f i XMLString.obj
 0001:00000328       ?getProcessContents@XSWildcard@xercesc_3_1@@QBE?AW4PROCESS_CONTENTS@12@XZ 12001328 f i XSComplexTypeDefinition.obj
 0001:00000328       ?getPublicId@XMLEntityDecl@xercesc_3_1@@QBEPB_WXZ 12001328 f i XMLDTDDescription.obj
 0001:00000328       ?getRefKey@XSIDCDefinition@xercesc_3_1@@QBEPAV12@XZ 12001328 f i XSElementDeclaration.obj
 0001:00000328       ?getRelatedData@DOMErrorImpl@xercesc_3_1@@UBEPAXXZ 12001328 f i DOMLSParserImpl.obj
 0001:00000328       ?getScope@XSElementDeclaration@xercesc_3_1@@QBE?AW4SCOPE@XSConstants@2@XZ 12001328 f i PSVIElement.obj
 0001:00000328       ?getScopeDefined@ComplexTypeInfo@xercesc_3_1@@QBEIXZ 12001328 f i XMLElementDecl.obj
 0001:00000328       ?getSign@XMLAbstractDoubleFloat@xercesc_3_1@@UBEHXZ 12001328 f i XMLAbstractDoubleFloat.obj
 0001:00000328       ?getSystemId@XSDLocator@xercesc_3_1@@UBEPB_WXZ 12001328 f i IGXMLScanner2.obj
 0001:00000328       ?getTargetNSURIString@SchemaInfo@xercesc_3_1@@QBEPB_WXZ 12001328 f i IGXMLScanner.obj
 0001:00000328       ?getType@ContentSpecNode@xercesc_3_1@@QBE?AW4NodeTypes@12@XZ 12001328 f i XMLGrammarPoolImpl.obj
 0001:00000328       ?getType@DatatypeValidator@xercesc_3_1@@QBE?AW4ValidatorType@12@XZ 12001328 f i XMLAttr.obj
 0001:00000328       ?getTypeDefinition@XSAttributeDeclaration@xercesc_3_1@@QBEPAVXSSimpleTypeDefinition@2@XZ 12001328 f i PSVIAttributeList.obj
 0001:00000328       ?getValidity@PSVIItem@xercesc_3_1@@QBE?AW4VALIDITY_STATE@12@XZ 12001328 f i PSVIAttribute.obj
 0001:00000328       ?getValue@XMLAttDef@xercesc_3_1@@QBEPB_WXZ 12001328 f i XMLAttDef.obj
 0001:00000328       ?getValue@XMLBigDecimal@xercesc_3_1@@QBEPB_WXZ 12001328 f i XMLAbstractDoubleFloat.obj
 0001:0000032c       ?getSrcFile@XMLException@xercesc_3_1@@QBEPBDXZ 1200132c f i Base64.obj
 0001:0000033a       ?getColumnNumber@DOMLocatorImpl@xercesc_3_1@@UBE_KXZ 1200133a f i DOMLSParserImpl.obj
 0001:0000033a       ?getColumnNumber@SAXParseException@xercesc_3_1@@QBE_KXZ 1200133a f i SAXParseException.obj
 0001:0000033a       ?getColumnNumber@XSDLocator@xercesc_3_1@@UBE_KXZ 1200133a f i IGXMLScanner2.obj
 0001:0000033a       ?getSrcLine@XMLException@xercesc_3_1@@QBE_KXZ 1200133a f i Base64.obj
 0001:00000341       ?getErrorType@XMLException@xercesc_3_1@@QBE?AW4ErrTypes@XMLErrorReporter@2@XZ 12001341 f i Base64.obj
 0001:00000370       ??0ArrayIndexOutOfBoundsException@xercesc_3_1@@QAE@QBD_KW4Codes@XMLExcepts@1@PAVMemoryManager@1@@Z 12001370 f i Base64.obj
 0001:000003b0       ??0ArrayIndexOutOfBoundsException@xercesc_3_1@@QAE@ABV01@@Z 120013b0 f i Base64.obj
 0001:000003cf       ??0ArrayIndexOutOfBoundsException@xercesc_3_1@@QAE@QBD_KW4Codes@XMLExcepts@1@QB_W333PAVMemoryManager@1@@Z 120013cf f i Base64.obj
 0001:0000041b       ??0ArrayIndexOutOfBoundsException@xercesc_3_1@@QAE@QBD_KW4Codes@XMLExcepts@1@0000PAVMemoryManager@1@@Z 1200141b f i Base64.obj
 0001:00000467       ??1ArrayIndexOutOfBoundsException@xercesc_3_1@@UAE@XZ 12001467 f i Base64.obj
 0001:00000472       ??4ArrayIndexOutOfBoundsException@xercesc_3_1@@QAEAAV01@ABV01@@Z 12001472 f i Base64.obj
 0001:00000472       ??4EmptyStackException@xercesc_3_1@@QAEAAV01@ABV01@@Z 12001472 f i HeaderDummy.obj
 0001:00000472       ??4IOException@xercesc_3_1@@QAEAAV01@ABV01@@Z 12001472 f i HeaderDummy.obj
 0001:00000472       ??4IllegalArgumentException@xercesc_3_1@@QAEAAV01@ABV01@@Z 12001472 f i EncodingValidator.obj
 0001:00000472       ??4InvalidCastException@xercesc_3_1@@QAEAAV01@ABV01@@Z 12001472 f i HeaderDummy.obj
 0001:00000472       ??4InvalidDatatypeFacetException@xercesc_3_1@@QAEAAV01@ABV01@@Z 12001472 f i AbstractNumericFacetValidator.obj
 0001:00000472       ??4InvalidDatatypeValueException@xercesc_3_1@@QAEAAV01@ABV01@@Z 12001472 f i ValidationContextImpl.obj
 0001:00000472       ??4MalformedURLException@xercesc_3_1@@QAEAAV01@ABV01@@Z 12001472 f i PlatformUtils.obj
 0001:00000472       ??4NetAccessorException@xercesc_3_1@@QAEAAV01@ABV01@@Z 12001472 f i PlatformUtils.obj
 0001:00000472       ??4NoSuchElementException@xercesc_3_1@@QAEAAV01@ABV01@@Z 12001472 f i EncodingValidator.obj
 0001:00000472       ??4NullPointerException@xercesc_3_1@@QAEAAV01@ABV01@@Z 12001472 f i EncodingValidator.obj
 0001:00000472       ??4NumberFormatException@xercesc_3_1@@QAEAAV01@ABV01@@Z 12001472 f i XMLAbstractDoubleFloat.obj
 0001:00000472       ??4ParseException@xercesc_3_1@@QAEAAV01@ABV01@@Z 12001472 f i ParserForXMLSchema.obj
 0001:00000472       ??4RuntimeException@xercesc_3_1@@QAEAAV01@ABV01@@Z 12001472 f i EncodingValidator.obj
 0001:00000472       ??4SchemaDateTimeException@xercesc_3_1@@QAEAAV01@ABV01@@Z 12001472 f i XMLDateTime.obj
 0001:00000472       ??4TranscodingException@xercesc_3_1@@QAEAAV01@ABV01@@Z 12001472 f i Base64.obj
 0001:00000472       ??4UTFDataFormatException@xercesc_3_1@@QAEAAV01@ABV01@@Z 12001472 f i HeaderDummy.obj
 0001:00000472       ??4UnexpectedEOFException@xercesc_3_1@@QAEAAV01@ABV01@@Z 12001472 f i HeaderDummy.obj
 0001:00000472       ??4UnsupportedEncodingException@xercesc_3_1@@QAEAAV01@ABV01@@Z 12001472 f i HeaderDummy.obj
 0001:00000472       ??4XMLPlatformUtilsException@xercesc_3_1@@QAEAAV01@ABV01@@Z 12001472 f i Base64.obj
 0001:00000472       ??4XPathException@xercesc_3_1@@QAEAAV01@ABV01@@Z 12001472 f i TraverseSchema.obj
 0001:00000472       ??4XSerializationException@xercesc_3_1@@QAEAAV01@ABV01@@Z 12001472 f i KVStringPair.obj
 0001:00000487       ?duplicate@ArrayIndexOutOfBoundsException@xercesc_3_1@@UBEPAVXMLException@2@XZ 12001487 f i Base64.obj
 0001:000004cb       ?getType@ArrayIndexOutOfBoundsException@xercesc_3_1@@UBEPB_WXZ 120014cb f i Base64.obj
 0001:000004d1       ??_EArrayIndexOutOfBoundsException@xercesc_3_1@@UAEPAXI@Z 120014d1 f i Base64.obj
 0001:0000056f       ??0PanicHandler@xercesc_3_1@@IAE@XZ 1200156f f i Base64.obj
 0001:00000578       ??1DefaultPanicHandler@xercesc_3_1@@UAE@XZ 12001578 f i DefaultPanicHandler.obj
 0001:00000578       ??1PanicHandler@xercesc_3_1@@UAE@XZ 12001578 f i Base64.obj
 0001:0000057f       ??_EPanicHandler@xercesc_3_1@@UAEPAXI@Z 1200157f f i Base64.obj
 0001:0000060b       ??_EXMLDeleter@xercesc_3_1@@UAEPAXI@Z 1200160b f i Base64.obj
 0001:00000697       ??0XMLPlatformUtilsException@xercesc_3_1@@QAE@QBD_KW4Codes@XMLExcepts@1@PAVMemoryManager@1@@Z 12001697 f i Base64.obj
 0001:000006d7       ??0XMLPlatformUtilsException@xercesc_3_1@@QAE@ABV01@@Z 120016d7 f i Base64.obj
 0001:000006f6       ??0XMLPlatformUtilsException@xercesc_3_1@@QAE@QBD_KW4Codes@XMLExcepts@1@QB_W333PAVMemoryManager@1@@Z 120016f6 f i Base64.obj
 0001:00000742       ??0XMLPlatformUtilsException@xercesc_3_1@@QAE@QBD_KW4Codes@XMLExcepts@1@0000PAVMemoryManager@1@@Z 12001742 f i Base64.obj
 0001:0000078e       ??1XMLPlatformUtilsException@xercesc_3_1@@UAE@XZ 1200178e f i Base64.obj
 0001:00000799       ?duplicate@XMLPlatformUtilsException@xercesc_3_1@@UBEPAVXMLException@2@XZ 12001799 f i Base64.obj
 0001:000007dd       ?getType@XMLPlatformUtilsException@xercesc_3_1@@UBEPB_WXZ 120017dd f i Base64.obj
 0001:000007e3       ??_EXMLPlatformUtilsException@xercesc_3_1@@UAEPAXI@Z 120017e3 f i Base64.obj
 0001:00000881       ?alignPointerForNewBlockAllocation@XMLPlatformUtils@xercesc_3_1@@SAKK@Z 12001881 f i Base64.obj
 0001:0000089a       ??1XMLDeleter@xercesc_3_1@@UAE@XZ 1200189a f i Base64.obj
 0001:000008a1       ??0XMLDeleter@xercesc_3_1@@IAE@XZ 120018a1 f i Base64.obj
 0001:000008aa       ??0XMLBuffer@xercesc_3_1@@QAE@KQAVMemoryManager@1@@Z 120018aa f i Base64.obj
 0001:000008e8       ??1XMLBuffer@xercesc_3_1@@QAE@XZ 120018e8 f i Base64.obj
 0001:00000929       ?setFullHandler@XMLBuffer@xercesc_3_1@@QAEXPAVXMLBufferFullHandler@2@K@Z 12001929 f i Base64.obj
 0001:0000095d       ?append@XMLBuffer@xercesc_3_1@@QAEX_W@Z 1200195d f i Base64.obj
 0001:00000985       ?append@XMLBuffer@xercesc_3_1@@QAEXQB_WK@Z 12001985 f i Base64.obj
 0001:000009cd       ?append@XMLBuffer@xercesc_3_1@@QAEXQB_W@Z 120019cd f i Base64.obj
 0001:00000a20       ?set@XMLBuffer@xercesc_3_1@@QAEXQB_WK@Z 12001a20 f i Base64.obj
 0001:00000a2c       ?set@XMLBuffer@xercesc_3_1@@QAEXQB_W@Z 12001a2c f i Base64.obj
 0001:00000a4b       ?getRawBuffer@XMLBuffer@xercesc_3_1@@QAEPA_WXZ 12001a4b f i Base64.obj
 0001:00000a4b       ?getRawBuffer@XMLBuffer@xercesc_3_1@@QBEPB_WXZ 12001a4b f i Base64.obj
 0001:00000a5c       ?reset@XMLBuffer@xercesc_3_1@@QAEXXZ 12001a5c f i Base64.obj
 0001:00000a60       ?getInUse@XMLBuffer@xercesc_3_1@@QBE_NXZ 12001a60 f i Base64.obj
 0001:00000a60       ?getStandardUriConformant@XMLScanner@xercesc_3_1@@QBE_NXZ 12001a60 f i XMLValidator.obj
 0001:00000a60       ?hasDefaults@DOMAttrMapImpl@xercesc_3_1@@UAE_NXZ 12001a60 f i AbstractDOMParser.obj
 0001:00000a64       ?getBufferCount@XMLBufferMgr@xercesc_3_1@@QBEKXZ 12001a64 f i XMLBufferMgr.obj
 0001:00000a64       ?getCategoryId@RangeTokenElemMap@xercesc_3_1@@QBEIXZ 12001a64 f i ASCIIRangeFactory.obj
 0001:00000a64       ?getEmptyNamespaceId@ElemStack@xercesc_3_1@@QAEIXZ 12001a64 f i XMLValidator.obj
 0001:00000a64       ?getEntity@EndOfEntityException@xercesc_3_1@@QAEAAVXMLEntityDecl@2@XZ 12001a64 f i DGXMLScanner.obj
 0001:00000a64       ?getEntity@EndOfEntityException@xercesc_3_1@@QBEABVXMLEntityDecl@2@XZ 12001a64 f i DGXMLScanner.obj
 0001:00000a64       ?getEscapeFlags@XMLFormatter@xercesc_3_1@@QBE?AW4EscapeFlags@12@XZ 12001a64 f i LocalFileFormatTarget.obj
 0001:00000a64       ?getGroup@XMLCanRepGroup@xercesc_3_1@@QBE?AW4CanRepGroup@12@XZ 12001a64 f i XMLGrammarPoolImpl.obj
 0001:00000a64       ?getLen@XMLBuffer@xercesc_3_1@@QBEKXZ 12001a64 f i Base64.obj
 0001:00000a64       ?getLocation@XIncludeLocation@xercesc_3_1@@QAEPB_WXZ 12001a64 f i AbstractDOMParser.obj
 0001:00000a64       ?getMatcherCount@XPathMatcherStack@xercesc_3_1@@QBEKXZ 12001a64 f i IGXMLScanner.obj
 0001:00000a64       ?getMemoryManager@?$RefHashTableOf@VRangeTokenElemMap@xercesc_3_1@@UStringHasher@2@@xercesc_3_1@@QBEPAVMemoryManager@2@XZ 12001a64 f i RangeTokenMap.obj
 0001:00000a64       ?getResourceIdentifierType@XMLResourceIdentifier@xercesc_3_1@@QBE?AW4ResourceIdentifierType@12@XZ 12001a64 f i DGXMLScanner.obj
 0001:00000a64       ?getSign@XMLBigInteger@xercesc_3_1@@QBEHXZ 12001a64 f i XMLBigDecimal.obj
 0001:00000a64       ?getTokenRegistry@RangeTokenMap@xercesc_3_1@@IBEPAV?$RefHashTableOf@VRangeTokenElemMap@xercesc_3_1@@UStringHasher@2@@2@XZ 12001a64 f i ASCIIRangeFactory.obj
 0001:00000a64       ?intValue@XMLInteger@xercesc_3_1@@QBEHXZ 12001a64 f i DFAContentModel.obj
 0001:00000a64       ?str@TranscodeFromStr@xercesc_3_1@@QBEPB_WXZ 12001a64 f i PlatformUtils.obj
 0001:00000a64       ?str@TranscodeToStr@xercesc_3_1@@QBEPBEXZ 12001a64 f i PlatformUtils.obj
 0001:00000a67       ?isEmpty@XMLBuffer@xercesc_3_1@@QBE_NXZ 12001a67 f i Base64.obj
 0001:00000a6e       ?hasDefaults@DOMAttrMapImpl@xercesc_3_1@@UAEX_N@Z 12001a6e f i AbstractDOMParser.obj
 0001:00000a6e       ?setInUse@XMLBuffer@xercesc_3_1@@QAEX_N@Z 12001a6e f i Base64.obj
 0001:00000a7b       ??_FXMLBuffer@xercesc_3_1@@QAEXXZ 12001a7b f i Base64.obj
 0001:00000a8c       ??1XMLBufferFullHandler@xercesc_3_1@@UAE@XZ 12001a8c f i Base64.obj
 0001:00000a93       ??0XMLBufferFullHandler@xercesc_3_1@@QAE@XZ 12001a93 f i Base64.obj
 0001:00000a9c       ??0XMLBufferFullHandler@xercesc_3_1@@QAE@ABV01@@Z 12001a9c f i Base64.obj
 0001:00000aa7       ??_EXMLBufferFullHandler@xercesc_3_1@@UAEPAXI@Z 12001aa7 f i Base64.obj
 0001:00000b33       ?moveChars@XMLString@xercesc_3_1@@SAXQA_WQB_WK@Z 12001b33 f i Base64.obj
 0001:00000b4d       ?stringLen@XMLString@xercesc_3_1@@SAKQB_W@Z 12001b4d f i Base64.obj
 0001:00000b6f       ?replicate@XMLString@xercesc_3_1@@SAPA_WQB_WQAVMemoryManager@2@@Z 12001b6f f i Base64.obj
 0001:00000baa       ?startsWith@XMLString@xercesc_3_1@@SA_NQB_W0@Z 12001baa f i Base64.obj
 0001:00000bcc       ?startsWithI@XMLString@xercesc_3_1@@SA_NQB_W0@Z 12001bcc f i Base64.obj
 0001:00000bee       ?endsWith@XMLString@xercesc_3_1@@SA_NQB_W0@Z 12001bee f i Base64.obj
 0001:00000c1d       ?validateRegion@XMLString@xercesc_3_1@@CA_NQB_WH0HK@Z 12001c1d f i Base64.obj
 0001:00000c5f       ?equals@XMLString@xercesc_3_1@@SA_NPB_W0@Z 12001c5f f i Base64.obj
 0001:00000cb9       ?equalsN@XMLString@xercesc_3_1@@SA_NPB_W0K@Z 12001cb9 f i Base64.obj
 0001:00000d27       ?equals@XMLString@xercesc_3_1@@SA_NPBD0@Z 12001d27 f i Base64.obj
 0001:00000d75       ?equalsN@XMLString@xercesc_3_1@@SA_NPBD0K@Z 12001d75 f i Base64.obj
 0001:00000dd2       ?lastIndexOf@XMLString@xercesc_3_1@@SAHQB_W_W@Z 12001dd2 f i Base64.obj
 0001:00000dee       ?hash@XMLString@xercesc_3_1@@SAKQB_WK@Z 12001dee f i Base64.obj
 0001:00000e38       ?hashN@XMLString@xercesc_3_1@@SAKQB_WKK@Z 12001e38 f i Base64.obj
 0001:00000e75       ?isXMLLetter@XMLChar1_0@xercesc_3_1@@SA_N_W0@Z 12001e75 f i Base64.obj
 0001:00000ea3       ?isFirstNameChar@XMLChar1_0@xercesc_3_1@@SA_N_W0@Z 12001ea3 f i Base64.obj
 0001:00000ec1       ?isFirstNCNameChar@XMLChar1_0@xercesc_3_1@@SA_N_W0@Z 12001ec1 f i Base64.obj
 0001:00000ee9       ?isNameChar@XMLChar1_0@xercesc_3_1@@SA_N_W0@Z 12001ee9 f i Base64.obj
 0001:00000f08       ?isNCNameChar@XMLChar1_0@xercesc_3_1@@SA_N_W0@Z 12001f08 f i Base64.obj
 0001:00000f24       ?isPlainContentChar@XMLChar1_0@xercesc_3_1@@SA_N_W0@Z 12001f24 f i Base64.obj
 0001:00000f65       ?isSpecialStartTagChar@XMLChar1_0@xercesc_3_1@@SA_N_W0@Z 12001f65 f i Base64.obj
 0001:00000f84       ?isXMLChar@XMLChar1_0@xercesc_3_1@@SA_N_W0@Z 12001f84 f i Base64.obj
 0001:00000fc5       ?isWhitespace@XMLChar1_0@xercesc_3_1@@SA_N_W@Z 12001fc5 f i Base64.obj
 0001:00000fd7       ?isWhitespace@XMLChar1_0@xercesc_3_1@@SA_N_W0@Z 12001fd7 f i Base64.obj
 0001:00000ff4       ?isControlChar@XMLChar1_0@xercesc_3_1@@SA_N_W0@Z 12001ff4 f i Base64.obj
 0001:00001013       ?isNELRecognized@XMLChar1_0@xercesc_3_1@@SA_NXZ 12002013 f i Base64.obj
 0001:00001013       ?isNELRecognized@XMLPlatformUtils@xercesc_3_1@@SA_NXZ 12002013 f i PlatformUtils.obj
 0001:00001019       ?isXMLLetter@XMLChar1_1@xercesc_3_1@@SA_N_W0@Z 12002019 f i Base64.obj
 0001:00001022       ?isFirstNameChar@XMLChar1_1@xercesc_3_1@@SA_N_W0@Z 12002022 f i Base64.obj
 0001:00001067       ?isFirstNCNameChar@XMLChar1_1@xercesc_3_1@@SA_N_W0@Z 12002067 f i Base64.obj
 0001:000010b5       ?isNameChar@XMLChar1_1@xercesc_3_1@@SA_N_W0@Z 120020b5 f i Base64.obj
 0001:000010fb       ?isNCNameChar@XMLChar1_1@xercesc_3_1@@SA_N_W0@Z 120020fb f i Base64.obj
 0001:0000113e       ?isPlainContentChar@XMLChar1_1@xercesc_3_1@@SA_N_W0@Z 1200213e f i Base64.obj
 0001:0000117f       ?isSpecialStartTagChar@XMLChar1_1@xercesc_3_1@@SA_N_W0@Z 1200217f f i Base64.obj
 0001:0000119e       ?isXMLChar@XMLChar1_1@xercesc_3_1@@SA_N_W0@Z 1200219e f i Base64.obj
 0001:000011df       ?isWhitespace@XMLChar1_1@xercesc_3_1@@SA_N_W0@Z 120021df f i Base64.obj
 0001:000011fc       ?isControlChar@XMLChar1_1@xercesc_3_1@@SA_N_W0@Z 120021fc f i Base64.obj
 0001:0000121b       ??0TranscodingException@xercesc_3_1@@QAE@QBD_KW4Codes@XMLExcepts@1@PAVMemoryManager@1@@Z 1200221b f i Base64.obj
 0001:0000125b       ??0TranscodingException@xercesc_3_1@@QAE@ABV01@@Z 1200225b f i Base64.obj
 0001:0000127a       ??0TranscodingException@xercesc_3_1@@QAE@QBD_KW4Codes@XMLExcepts@1@QB_W333PAVMemoryManager@1@@Z 1200227a f i Base64.obj
 0001:000012c6       ??0TranscodingException@xercesc_3_1@@QAE@QBD_KW4Codes@XMLExcepts@1@0000PAVMemoryManager@1@@Z 120022c6 f i Base64.obj
 0001:00001312       ??1TranscodingException@xercesc_3_1@@UAE@XZ 12002312 f i Base64.obj
 0001:0000131d       ?duplicate@TranscodingException@xercesc_3_1@@UBEPAVXMLException@2@XZ 1200231d f i Base64.obj
 0001:00001361       ?getType@TranscodingException@xercesc_3_1@@UBEPB_WXZ 12002361 f i Base64.obj
 0001:00001367       ??_ETranscodingException@xercesc_3_1@@UAEPAXI@Z 12002367 f i Base64.obj
 0001:00001405       ?isNameChar@XMLReader@xercesc_3_1@@QBE_N_W@Z 12002405 f i Base64.obj
 0001:0000141e       ?isNCNameChar@XMLReader@xercesc_3_1@@QBE_N_W@Z 1200241e f i Base64.obj
 0001:00001434       ?isPlainContentChar@XMLReader@xercesc_3_1@@QBE_N_W@Z 12002434 f i Base64.obj
 0001:0000144d       ?isFirstNameChar@XMLReader@xercesc_3_1@@QBE_N_W@Z 1200244d f i Base64.obj
 0001:00001465       ?isFirstNCNameChar@XMLReader@xercesc_3_1@@QBE_N_W@Z 12002465 f i Base64.obj
 0001:0000148d       ?isSpecialStartTagChar@XMLReader@xercesc_3_1@@QBE_N_W@Z 1200248d f i Base64.obj
 0001:000014a6       ?isXMLChar@XMLReader@xercesc_3_1@@QBE_N_W@Z 120024a6 f i Base64.obj
 0001:000014bf       ?isXMLLetter@XMLReader@xercesc_3_1@@QBE_N_W@Z 120024bf f i Base64.obj
 0001:000014ed       ?isWhitespace@XMLReader@xercesc_3_1@@QBE_N_W@Z 120024ed f i Base64.obj
 0001:00001504       ?isControlChar@XMLReader@xercesc_3_1@@QBE_N_W@Z 12002504 f i Base64.obj
 0001:0000151d       ?charsLeftInBuffer@XMLReader@xercesc_3_1@@QBEKXZ 1200251d f i Base64.obj
 0001:00001526       ?getColumnNumber@XMLReader@xercesc_3_1@@QBE_KXZ 12002526 f i Base64.obj
 0001:00001533       ?getEncodingStr@XMLReader@xercesc_3_1@@QBEPB_WXZ 12002533 f i Base64.obj
 0001:0000153a       ?getLineNumber@XMLReader@xercesc_3_1@@QBE_KXZ 1200253a f i Base64.obj
 0001:00001547       ?getNoMoreFlag@XMLReader@xercesc_3_1@@QBE_NXZ 12002547 f i Base64.obj
 0001:0000154e       ?getPublicId@XMLReader@xercesc_3_1@@QBEPB_WXZ 1200254e f i Base64.obj
 0001:00001555       ?getReaderNum@XMLReader@xercesc_3_1@@QBEKXZ 12002555 f i Base64.obj
 0001:0000155c       ?getRefFrom@XMLReader@xercesc_3_1@@QBE?AW4RefFrom@12@XZ 1200255c f i Base64.obj
 0001:00001563       ?getSource@XMLReader@xercesc_3_1@@QBE?AW4Sources@12@XZ 12002563 f i Base64.obj
 0001:0000156a       ?getSystemId@XMLReader@xercesc_3_1@@QBEPB_WXZ 1200256a f i Base64.obj
 0001:00001571       ?getThrowAtEnd@XMLReader@xercesc_3_1@@QBE_NXZ 12002571 f i Base64.obj
 0001:00001578       ?getType@XMLReader@xercesc_3_1@@QBE?AW4Types@12@XZ 12002578 f i Base64.obj
 0001:0000157f       ?setReaderNum@XMLReader@xercesc_3_1@@QAEXK@Z 1200257f f i Base64.obj
 0001:0000158f       ?setThrowAtEnd@XMLReader@xercesc_3_1@@QAEX_N@Z 1200258f f i Base64.obj
 0001:0000159f       ?setXMLVersion@XMLReader@xercesc_3_1@@QAEXW4XMLVersion@12@@Z 1200259f f i Base64.obj
 0001:000015d7       ?movePlainContentChars@XMLReader@xercesc_3_1@@QAEXAAVXMLBuffer@2@@Z 120025d7 f i Base64.obj
 0001:00001639       ?getNextCharIfNot@XMLReader@xercesc_3_1@@QAE_N_WAA_W@Z 12002639 f i Base64.obj
 0001:000016a5       ?getNextChar@XMLReader@xercesc_3_1@@QAE_NAA_W@Z 120026a5 f i Base64.obj
 0001:0000170b       ?peekNextChar@XMLReader@xercesc_3_1@@QAE_NAA_W@Z 1200270b f i Base64.obj
 0001:00001777       ?encode@Base64@xercesc_3_1@@SAPAEQBEKPAKQAVMemoryManager@2@@Z 12002777 f   Base64.obj
 0001:00001943       ?getDataLength@Base64@xercesc_3_1@@SAHQB_WQAVMemoryManager@2@W4Conformance@12@@Z 12002943 f   Base64.obj
 0001:00001988       ?decode@Base64@xercesc_3_1@@SAPAEQBEPAKQAVMemoryManager@2@W4Conformance@12@@Z 12002988 f   Base64.obj
 0001:000019ce       ?decodeToXMLByte@Base64@xercesc_3_1@@SAPAEQB_WPAKQAVMemoryManager@2@W4Conformance@12@@Z 120029ce f   Base64.obj
 0001:00001a60       ?getCanonicalRepresentation@Base64@xercesc_3_1@@SAPA_WQB_WQAVMemoryManager@2@W4Conformance@12@@Z 12002a60 f   Base64.obj
 0001:00001b80       ?decode@Base64@xercesc_3_1@@CAPAEQBEPAKAAPAEQAVMemoryManager@2@W4Conformance@12@@Z 12002b80 f   Base64.obj
 0001:00001e63       ?isData@Base64@xercesc_3_1@@CA_NABE@Z 12002e63 f   Base64.obj
 0001:00001e78       ??1?$ArrayJanitor@D@xercesc_3_1@@QAE@XZ 12002e78 f i XMLAbstractDoubleFloat.obj
 0001:00001e78       ??1?$ArrayJanitor@E@xercesc_3_1@@QAE@XZ 12002e78 f i Base64.obj
 0001:00001e78       ??1?$ArrayJanitor@H@xercesc_3_1@@QAE@XZ 12002e78 f i XMLRangeFactory.obj
 0001:00001e78       ??1?$ArrayJanitor@PAU?$RefHash2KeysTableBucketElem@V?$KeyRefPair@XVDOMUserDataHandler@xercesc_3_1@@@xercesc_3_1@@@xercesc_3_1@@@xercesc_3_1@@QAE@XZ 12002e78 f i DOMDocumentImpl.obj
 0001:00001e78       ??1?$ArrayJanitor@PAU?$RefHash2KeysTableBucketElem@V?$ValueVectorOf@PAVSchemaElementDecl@xercesc_3_1@@@xercesc_3_1@@@xercesc_3_1@@@xercesc_3_1@@QAE@XZ 12002e78 f i XTemplateSerializer.obj
 0001:00001e78       ??1?$ArrayJanitor@PAU?$RefHash2KeysTableBucketElem@VIdentityConstraint@xercesc_3_1@@@xercesc_3_1@@@xercesc_3_1@@QAE@XZ 12002e78 f i TraverseSchema.obj
 0001:00001e78       ??1?$ArrayJanitor@PAU?$RefHash2KeysTableBucketElem@VSchemaAttDef@xercesc_3_1@@@xercesc_3_1@@@xercesc_3_1@@QAE@XZ 12002e78 f i XTemplateSerializer.obj
 0001:00001e78       ??1?$ArrayJanitor@PAU?$RefHash2KeysTableBucketElem@VSchemaInfo@xercesc_3_1@@@xercesc_3_1@@@xercesc_3_1@@QAE@XZ 12002e78 f i TraverseSchema.obj
 0001:00001e78       ??1?$ArrayJanitor@PAU?$RefHash2KeysTableBucketElem@VValueStore@xercesc_3_1@@@xercesc_3_1@@@xercesc_3_1@@QAE@XZ 12002e78 f i ValueStoreCache.obj
 0001:00001e78       ??1?$ArrayJanitor@PAU?$RefHash2KeysTableBucketElem@VXMLAttr@xercesc_3_1@@@xercesc_3_1@@@xercesc_3_1@@QAE@XZ 12002e78 f i DGXMLScanner.obj
 0001:00001e78       ??1?$ArrayJanitor@PAU?$RefHash2KeysTableBucketElem@VXSIDCDefinition@xercesc_3_1@@@xercesc_3_1@@@xercesc_3_1@@QAE@XZ 12002e78 f i XSObjectFactory.obj
 0001:00001e78       ??1?$ArrayJanitor@PAU?$RefHash2KeysTableBucketElem@VXSObject@xercesc_3_1@@@xercesc_3_1@@@xercesc_3_1@@QAE@XZ 12002e78 f i XSModel.obj
 0001:00001e78       ??1?$ArrayJanitor@PAU?$RefHash2KeysTableBucketElem@_W@xercesc_3_1@@@xercesc_3_1@@QAE@XZ 12002e78 f i TraverseSchema.obj
 0001:00001e78       ??1?$ArrayJanitor@PAU?$RefHashTableBucketElem@I@xercesc_3_1@@@xercesc_3_1@@QAE@XZ 12002e78 f i DGXMLScanner.obj
 0001:00001e78       ??1?$ArrayJanitor@PAU?$RefHashTableBucketElem@UPoolElem@XMLStringPool@xercesc_3_1@@@xercesc_3_1@@@xercesc_3_1@@QAE@XZ 12002e78 f i StringPool.obj
 0001:00001e78       ??1?$ArrayJanitor@PAU?$RefHashTableBucketElem@V?$ValueVectorOf@PAVDOMElement@xercesc_3_1@@@xercesc_3_1@@@xercesc_3_1@@@xercesc_3_1@@QAE@XZ 12002e78 f i TraverseSchema.obj
 0001:00001e78       ??1?$ArrayJanitor@PAU?$RefHashTableBucketElem@V?$ValueVectorOf@PAVSchemaElementDecl@xercesc_3_1@@@xercesc_3_1@@@xercesc_3_1@@@xercesc_3_1@@QAE@XZ 12002e78 f i TraverseSchema.obj
 0001:00001e78       ??1?$ArrayJanitor@PAU?$RefHashTableBucketElem@VCPMapEntry@xercesc_3_1@@@xercesc_3_1@@@xercesc_3_1@@QAE@XZ 12002e78 f i Win32TransService.obj
 0001:00001e78       ??1?$ArrayJanitor@PAU?$RefHashTableBucketElem@VComplexTypeInfo@xercesc_3_1@@@xercesc_3_1@@@xercesc_3_1@@QAE@XZ 12002e78 f i XTemplateSerializer.obj
 0001:00001e78       ??1?$ArrayJanitor@PAU?$RefHashTableBucketElem@VDOMElement@xercesc_3_1@@@xercesc_3_1@@@xercesc_3_1@@QAE@XZ 12002e78 f i SchemaInfo.obj
 0001:00001e78       ??1?$ArrayJanitor@PAU?$RefHashTableBucketElem@VDTDAttDef@xercesc_3_1@@@xercesc_3_1@@@xercesc_3_1@@QAE@XZ 12002e78 f i XTemplateSerializer.obj
 0001:00001e78       ??1?$ArrayJanitor@PAU?$RefHashTableBucketElem@VDTDElementDecl@xercesc_3_1@@@xercesc_3_1@@@xercesc_3_1@@QAE@XZ 12002e78 f i XMLGrammarPoolImpl.obj
 0001:00001e78       ??1?$ArrayJanitor@PAU?$RefHashTableBucketElem@VDTDEntityDecl@xercesc_3_1@@@xercesc_3_1@@@xercesc_3_1@@QAE@XZ 12002e78 f i XMLGrammarPoolImpl.obj
 0001:00001e78       ??1?$ArrayJanitor@PAU?$RefHashTableBucketElem@VDatatypeValidator@xercesc_3_1@@@xercesc_3_1@@@xercesc_3_1@@QAE@XZ 12002e78 f i XTemplateSerializer.obj
 0001:00001e78       ??1?$ArrayJanitor@PAU?$RefHashTableBucketElem@VENameMap@xercesc_3_1@@@xercesc_3_1@@@xercesc_3_1@@QAE@XZ 12002e78 f i TransService.obj
 0001:00001e78       ??1?$ArrayJanitor@PAU?$RefHashTableBucketElem@VFieldValueMap@xercesc_3_1@@@xercesc_3_1@@@xercesc_3_1@@QAE@XZ 12002e78 f i ValueStore.obj
 0001:00001e78       ??1?$ArrayJanitor@PAU?$RefHashTableBucketElem@VGrammar@xercesc_3_1@@@xercesc_3_1@@@xercesc_3_1@@QAE@XZ 12002e78 f i XMLGrammarPoolImpl.obj
 0001:00001e78       ??1?$ArrayJanitor@PAU?$RefHashTableBucketElem@VKVStringPair@xercesc_3_1@@@xercesc_3_1@@@xercesc_3_1@@QAE@XZ 12002e78 f i XTemplateSerializer.obj
 0001:00001e78       ??1?$ArrayJanitor@PAU?$RefHashTableBucketElem@VRangeFactory@xercesc_3_1@@@xercesc_3_1@@@xercesc_3_1@@QAE@XZ 12002e78 f i RangeTokenMap.obj
 0001:00001e78       ??1?$ArrayJanitor@PAU?$RefHashTableBucketElem@VRangeTokenElemMap@xercesc_3_1@@@xercesc_3_1@@@xercesc_3_1@@QAE@XZ 12002e78 f i RangeTokenMap.obj
 0001:00001e78       ??1?$ArrayJanitor@PAU?$RefHashTableBucketElem@VSchemaInfo@xercesc_3_1@@@xercesc_3_1@@@xercesc_3_1@@QAE@XZ 12002e78 f i TraverseSchema.obj
 0001:00001e78       ??1?$ArrayJanitor@PAU?$RefHashTableBucketElem@VValueStore@xercesc_3_1@@@xercesc_3_1@@@xercesc_3_1@@QAE@XZ 12002e78 f i ValueStoreCache.obj
 0001:00001e78       ??1?$ArrayJanitor@PAU?$RefHashTableBucketElem@VXMLAttDef@xercesc_3_1@@@xercesc_3_1@@@xercesc_3_1@@QAE@XZ 12002e78 f i XTemplateSerializer.obj
 0001:00001e78       ??1?$ArrayJanitor@PAU?$RefHashTableBucketElem@VXMLCanRepGroup@xercesc_3_1@@@xercesc_3_1@@@xercesc_3_1@@QAE@XZ 12002e78 f i DatatypeValidatorFactory.obj
 0001:00001e78       ??1?$ArrayJanitor@PAU?$RefHashTableBucketElem@VXMLElementDecl@xercesc_3_1@@@xercesc_3_1@@@xercesc_3_1@@QAE@XZ 12002e78 f i WFXMLScanner.obj
 0001:00001e78       ??1?$ArrayJanitor@PAU?$RefHashTableBucketElem@VXMLInteger@xercesc_3_1@@@xercesc_3_1@@@xercesc_3_1@@QAE@XZ 12002e78 f i DFAContentModel.obj
 0001:00001e78       ??1?$ArrayJanitor@PAU?$RefHashTableBucketElem@VXMLNotationDecl@xercesc_3_1@@@xercesc_3_1@@@xercesc_3_1@@QAE@XZ 12002e78 f i XMLGrammarPoolImpl.obj
 0001:00001e78       ??1?$ArrayJanitor@PAU?$RefHashTableBucketElem@VXMLRefInfo@xercesc_3_1@@@xercesc_3_1@@@xercesc_3_1@@QAE@XZ 12002e78 f i ValidationContextImpl.obj
 0001:00001e78       ??1?$ArrayJanitor@PAU?$RefHashTableBucketElem@VXSAnnotation@xercesc_3_1@@@xercesc_3_1@@@xercesc_3_1@@QAE@XZ 12002e78 f i XTemplateSerializer.obj
 0001:00001e78       ??1?$ArrayJanitor@PAU?$RefHashTableBucketElem@VXSNamespaceItem@xercesc_3_1@@@xercesc_3_1@@@xercesc_3_1@@QAE@XZ 12002e78 f i XSModel.obj
 0001:00001e78       ??1?$ArrayJanitor@PAU?$RefHashTableBucketElem@VXSObject@xercesc_3_1@@@xercesc_3_1@@@xercesc_3_1@@QAE@XZ 12002e78 f i XSModel.obj
 0001:00001e78       ??1?$ArrayJanitor@PAU?$RefHashTableBucketElem@VXSerializedObjectId@xercesc_3_1@@@xercesc_3_1@@@xercesc_3_1@@QAE@XZ 12002e78 f i XSerializeEngine.obj
 0001:00001e78       ??1?$ArrayJanitor@PAU?$RefHashTableBucketElem@VXercesAttGroupInfo@xercesc_3_1@@@xercesc_3_1@@@xercesc_3_1@@QAE@XZ 12002e78 f i XTemplateSerializer.obj
 0001:00001e78       ??1?$ArrayJanitor@PAU?$RefHashTableBucketElem@VXercesGroupInfo@xercesc_3_1@@@xercesc_3_1@@@xercesc_3_1@@QAE@XZ 12002e78 f i XTemplateSerializer.obj
 0001:00001e78       ??1?$ArrayJanitor@PAU?$RefHashTableBucketElem@_W@xercesc_3_1@@@xercesc_3_1@@QAE@XZ 12002e78 f i DOMLSSerializerImpl.obj
 0001:00001e78       ??1?$ArrayJanitor@PAU?$ValueHashTableBucketElem@G@xercesc_3_1@@@xercesc_3_1@@QAE@XZ 12002e78 f i GeneralAttributeCheck.obj
 0001:00001e78       ??1?$ArrayJanitor@PAU?$ValueHashTableBucketElem@I@xercesc_3_1@@@xercesc_3_1@@QAE@XZ 12002e78 f i DOMLSParserImpl.obj
 0001:00001e78       ??1?$ArrayJanitor@PAU?$ValueHashTableBucketElem@W4DataType@XSValue@xercesc_3_1@@@xercesc_3_1@@@xercesc_3_1@@QAE@XZ 12002e78 f i XSValue.obj
 0001:00001e78       ??1?$ArrayJanitor@PAU?$ValueHashTableBucketElem@W4FilterAction@DOMLSParserFilter@xercesc_3_1@@@xercesc_3_1@@@xercesc_3_1@@QAE@XZ 12002e78 f i DOMLSParserImpl.obj
 0001:00001e78       ??1?$ArrayJanitor@PAU?$ValueHashTableBucketElem@_N@xercesc_3_1@@@xercesc_3_1@@QAE@XZ 12002e78 f i EncodingValidator.obj
 0001:00001e78       ??1?$ArrayJanitor@PAU?$ValueHashTableBucketElem@_W@xercesc_3_1@@@xercesc_3_1@@QAE@XZ 12002e78 f i SGXMLScanner.obj
 0001:00001e78       ??1?$ArrayJanitor@PAUHash2KeysSetBucketElem@xercesc_3_1@@@xercesc_3_1@@QAE@XZ 12002e78 f i DGXMLScanner.obj
 0001:00001e78       ??1?$ArrayJanitor@_N@xercesc_3_1@@QAE@XZ 12002e78 f i AllContentModel.obj
 0001:00001e78       ??1?$ArrayJanitor@_W@xercesc_3_1@@QAE@XZ 12002e78 f i PlatformUtils.obj
 0001:00001ed2       ??_EBinFileInputStream@xercesc_3_1@@UAEPAXI@Z 12002ed2 f i BinFileInputStream.obj
 0001:00001f68       ?getIsOpen@BinFileInputStream@xercesc_3_1@@QBE_NXZ 12002f68 f i BinFileInputStream.obj
 0001:00001f68       ?getIsOpen@BinFileOutputStream@xercesc_3_1@@QBE_NXZ 12002f68 f i BinFileOutputStream.obj
 0001:00001f70       ??0BinFileInputStream@xercesc_3_1@@QAE@QB_WQAVMemoryManager@1@@Z 12002f70 f   BinFileInputStream.obj
 0001:00001fa9       ??0BinFileInputStream@xercesc_3_1@@QAE@QBDQAVMemoryManager@1@@Z 12002fa9 f   BinFileInputStream.obj
 0001:00001fe2       ??0BinFileInputStream@xercesc_3_1@@QAE@QAXQAVMemoryManager@1@@Z 12002fe2 f   BinFileInputStream.obj
 0001:00001ffd       ??1BinFileInputStream@xercesc_3_1@@UAE@XZ 12002ffd f   BinFileInputStream.obj
 0001:0000206e       ?getSize@BinFileInputStream@xercesc_3_1@@QBE_KXZ 1200306e f   BinFileInputStream.obj
 0001:0000206e       ?getSize@BinFileOutputStream@xercesc_3_1@@QBE_KXZ 1200306e f   BinFileOutputStream.obj
 0001:0000207c       ?reset@BinFileInputStream@xercesc_3_1@@QAEXXZ 1200307c f   BinFileInputStream.obj
 0001:0000207c       ?reset@BinFileOutputStream@xercesc_3_1@@QAEXXZ 1200307c f   BinFileOutputStream.obj
 0001:0000208a       ?curPos@BinFileInputStream@xercesc_3_1@@UBE_KXZ 1200308a f   BinFileInputStream.obj
 0001:0000208a       ?curPos@BinFileOutputStream@xercesc_3_1@@UBE_KXZ 1200308a f   BinFileOutputStream.obj
 0001:00002098       ?readBytes@BinFileInputStream@xercesc_3_1@@UAEKQAEK@Z 12003098 f   BinFileInputStream.obj
 0001:000020b3       ?createObject@AbstractNumericFacetValidator@xercesc_3_1@@SAPAVXSerializable@2@PAVMemoryManager@2@@Z 120030b3 f   AbstractNumericFacetValidator.obj
 0001:000020b3       ?createObject@AbstractNumericValidator@xercesc_3_1@@SAPAVXSerializable@2@PAVMemoryManager@2@@Z 120030b3 f   AbstractNumericValidator.obj
 0001:000020b3       ?createObject@AbstractStringValidator@xercesc_3_1@@SAPAVXSerializable@2@PAVMemoryManager@2@@Z 120030b3 f   AbstractStringValidator.obj
 0001:000020b3       ?createObject@DatatypeValidator@xercesc_3_1@@SAPAVXSerializable@2@PAVMemoryManager@2@@Z 120030b3 f   DatatypeValidator.obj
 0001:000020b3       ?createObject@DateTimeValidator@xercesc_3_1@@SAPAVXSerializable@2@PAVMemoryManager@2@@Z 120030b3 f   DateTimeValidator.obj
 0001:000020b3       ?createObject@Grammar@xercesc_3_1@@SAPAVXSerializable@2@PAVMemoryManager@2@@Z 120030b3 f   Grammar.obj
 0001:000020b3       ?createObject@IdentityConstraint@xercesc_3_1@@SAPAVXSerializable@2@PAVMemoryManager@2@@Z 120030b3 f   IdentityConstraint.obj
 0001:000020b3       ?createObject@XMLAbstractDoubleFloat@xercesc_3_1@@SAPAVXSerializable@2@PAVMemoryManager@2@@Z 120030b3 f   XMLAbstractDoubleFloat.obj
 0001:000020b3       ?createObject@XMLAttDef@xercesc_3_1@@SAPAVXSerializable@2@PAVMemoryManager@2@@Z 120030b3 f   XMLAttDef.obj
 0001:000020b3       ?createObject@XMLAttDefList@xercesc_3_1@@SAPAVXSerializable@2@PAVMemoryManager@2@@Z 120030b3 f   XMLAttDefList.obj
 0001:000020b3       ?createObject@XMLDTDDescription@xercesc_3_1@@SAPAVXSerializable@2@PAVMemoryManager@2@@Z 120030b3 f   XMLDTDDescription.obj
 0001:000020b3       ?createObject@XMLElementDecl@xercesc_3_1@@SAPAVXSerializable@2@PAVMemoryManager@2@@Z 120030b3 f   XMLElementDecl.obj
 0001:000020b3       ?createObject@XMLEntityDecl@xercesc_3_1@@SAPAVXSerializable@2@PAVMemoryManager@2@@Z 120030b3 f   XMLEntityDecl.obj
 0001:000020b3       ?createObject@XMLGrammarDescription@xercesc_3_1@@SAPAVXSerializable@2@PAVMemoryManager@2@@Z 120030b3 f   XMLGrammarDescription.obj
 0001:000020b3       ?createObject@XMLNumber@xercesc_3_1@@SAPAVXSerializable@2@PAVMemoryManager@2@@Z 120030b3 f   XMLNumber.obj
 0001:000020b3       ?createObject@XMLSchemaDescription@xercesc_3_1@@SAPAVXSerializable@2@PAVMemoryManager@2@@Z 120030b3 f   XMLSchemaDescription.obj
 0001:000020b3       ?getAttributes@DOMAttrImpl@xercesc_3_1@@UBEPAVDOMNamedNodeMap@2@XZ 120030b3 f   DOMAttrImpl.obj
 0001:000020b3       ?getAttributes@DOMCDATASectionImpl@xercesc_3_1@@UBEPAVDOMNamedNodeMap@2@XZ 120030b3 f   DOMCDATASectionImpl.obj
 0001:000020b3       ?getAttributes@DOMCommentImpl@xercesc_3_1@@UBEPAVDOMNamedNodeMap@2@XZ 120030b3 f   DOMCommentImpl.obj
 0001:000020b3       ?getAttributes@DOMDocumentFragmentImpl@xercesc_3_1@@UBEPAVDOMNamedNodeMap@2@XZ 120030b3 f   DOMDocumentFragmentImpl.obj
 0001:000020b3       ?getAttributes@DOMDocumentImpl@xercesc_3_1@@UBEPAVDOMNamedNodeMap@2@XZ 120030b3 f   DOMDocumentImpl.obj
 0001:000020b3       ?getAttributes@DOMDocumentTypeImpl@xercesc_3_1@@UBEPAVDOMNamedNodeMap@2@XZ 120030b3 f   DOMDocumentTypeImpl.obj
 0001:000020b3       ?getAttributes@DOMEntityImpl@xercesc_3_1@@UBEPAVDOMNamedNodeMap@2@XZ 120030b3 f   DOMEntityImpl.obj
 0001:000020b3       ?getAttributes@DOMEntityReferenceImpl@xercesc_3_1@@UBEPAVDOMNamedNodeMap@2@XZ 120030b3 f   DOMEntityReferenceImpl.obj
 0001:000020b3       ?getAttributes@DOMNodeImpl@xercesc_3_1@@QBEPAVDOMNamedNodeMap@2@XZ 120030b3 f   DOMNodeImpl.obj
 0001:000020b3       ?getAttributes@DOMNotationImpl@xercesc_3_1@@UBEPAVDOMNamedNodeMap@2@XZ 120030b3 f   DOMNotationImpl.obj
 0001:000020b3       ?getAttributes@DOMProcessingInstructionImpl@xercesc_3_1@@UBEPAVDOMNamedNodeMap@2@XZ 120030b3 f   DOMProcessingInstructionImpl.obj
 0001:000020b3       ?getAttributes@DOMTextImpl@xercesc_3_1@@UBEPAVDOMNamedNodeMap@2@XZ 120030b3 f   DOMTextImpl.obj
 0001:000020b3       ?getBaseURI@Wrapper4InputSource@xercesc_3_1@@UBEPB_WXZ 120030b3 f   Wrapper4InputSource.obj
 0001:000020b3       ?getContentLeafNameTypeVector@AllContentModel@xercesc_3_1@@UBEPAVContentLeafNameTypeVector@2@XZ 120030b3 f   AllContentModel.obj
 0001:000020b3       ?getContentLeafNameTypeVector@MixedContentModel@xercesc_3_1@@UBEPAVContentLeafNameTypeVector@2@XZ 120030b3 f   MixedContentModel.obj
 0001:000020b3       ?getContentLeafNameTypeVector@SimpleContentModel@xercesc_3_1@@UBEPAVContentLeafNameTypeVector@2@XZ 120030b3 f   SimpleContentModel.obj
 0001:000020b3       ?getContentType@BinFileInputStream@xercesc_3_1@@UBEPB_WXZ 120030b3 f   BinFileInputStream.obj
 0001:000020b3       ?getContentType@BinMemInputStream@xercesc_3_1@@UBEPB_WXZ 120030b3 f   BinMemInputStream.obj
 0001:000020b3       ?getCurrentGrammarType@DGXMLScanner@xercesc_3_1@@UBE?AW4GrammarType@Grammar@2@XZ 120030b3 f   DGXMLScanner.obj
 0001:000020b3       ?getDeclarationHandler@SAX2XMLFilterImpl@xercesc_3_1@@UBEPAVDeclHandler@2@XZ 120030b3 f   SAX2XMLFilterImpl.obj
 0001:000020b3       ?getEntityDeclPool@SGXMLScanner@xercesc_3_1@@UAEPAV?$NameIdPool@VDTDEntityDecl@xercesc_3_1@@@2@XZ 120030b3 f   SGXMLScanner.obj
 0001:000020b3       ?getEntityDeclPool@SGXMLScanner@xercesc_3_1@@UBEPBV?$NameIdPool@VDTDEntityDecl@xercesc_3_1@@@2@XZ 120030b3 f   SGXMLScanner.obj
 0001:000020b3       ?getEntityDeclPool@WFXMLScanner@xercesc_3_1@@UAEPAV?$NameIdPool@VDTDEntityDecl@xercesc_3_1@@@2@XZ 120030b3 f   WFXMLScanner.obj
 0001:000020b3       ?getEntityDeclPool@WFXMLScanner@xercesc_3_1@@UBEPBV?$NameIdPool@VDTDEntityDecl@xercesc_3_1@@@2@XZ 120030b3 f   WFXMLScanner.obj
 0001:000020b3       ?getEnumString@AnySimpleTypeDatatypeValidator@xercesc_3_1@@UBEPBV?$RefArrayVectorOf@_W@2@XZ 120030b3 f   AnySimpleTypeDatatypeValidator.obj
 0001:000020b3       ?getEnumString@BooleanDatatypeValidator@xercesc_3_1@@UBEPBV?$RefArrayVectorOf@_W@2@XZ 120030b3 f   BooleanDatatypeValidator.obj
 0001:000020b3       ?getFirstChild@DOMCDATASectionImpl@xercesc_3_1@@UBEPAVDOMNode@2@XZ 120030b3 f   DOMCDATASectionImpl.obj
 0001:000020b3       ?getFirstChild@DOMCommentImpl@xercesc_3_1@@UBEPAVDOMNode@2@XZ 120030b3 f   DOMCommentImpl.obj
 0001:000020b3       ?getFirstChild@DOMNodeImpl@xercesc_3_1@@QBEPAVDOMNode@2@XZ 120030b3 f   DOMNodeImpl.obj
 0001:000020b3       ?getFirstChild@DOMNotationImpl@xercesc_3_1@@UBEPAVDOMNode@2@XZ 120030b3 f   DOMNotationImpl.obj
 0001:000020b3       ?getFirstChild@DOMProcessingInstructionImpl@xercesc_3_1@@UBEPAVDOMNode@2@XZ 120030b3 f   DOMProcessingInstructionImpl.obj
 0001:000020b3       ?getFirstChild@DOMTextImpl@xercesc_3_1@@UBEPAVDOMNode@2@XZ 120030b3 f   DOMTextImpl.obj
 0001:000020b3       ?getGrammarType@DTDGrammar@xercesc_3_1@@UBE?AW4GrammarType@Grammar@2@XZ 120030b3 f   XMLGrammarPoolImpl.obj
 0001:000020b3       ?getGrammarType@XMLDTDDescription@xercesc_3_1@@UBE?AW4GrammarType@Grammar@2@XZ 120030b3 f   XMLDTDDescription.obj
 0001:000020b3       ?getLastChild@DOMCDATASectionImpl@xercesc_3_1@@UBEPAVDOMNode@2@XZ 120030b3 f   DOMCDATASectionImpl.obj
 0001:000020b3       ?getLastChild@DOMCommentImpl@xercesc_3_1@@UBEPAVDOMNode@2@XZ 120030b3 f   DOMCommentImpl.obj
 0001:000020b3       ?getLastChild@DOMNodeImpl@xercesc_3_1@@QBEPAVDOMNode@2@XZ 120030b3 f   DOMNodeImpl.obj
 0001:000020b3       ?getLastChild@DOMNotationImpl@xercesc_3_1@@UBEPAVDOMNode@2@XZ 120030b3 f   DOMNotationImpl.obj
 0001:000020b3       ?getLastChild@DOMProcessingInstructionImpl@xercesc_3_1@@UBEPAVDOMNode@2@XZ 120030b3 f   DOMProcessingInstructionImpl.obj
 0001:000020b3       ?getLastChild@DOMTextImpl@xercesc_3_1@@UBEPAVDOMNode@2@XZ 120030b3 f   DOMTextImpl.obj
 0001:000020b3       ?getLexicalHandler@SAX2XMLFilterImpl@xercesc_3_1@@UBEPAVLexicalHandler@2@XZ 120030b3 f   SAX2XMLFilterImpl.obj
 0001:000020b3       ?getLocalName@DOMAttrImpl@xercesc_3_1@@UBEPB_WXZ 120030b3 f   DOMAttrImpl.obj
 0001:000020b3       ?getLocalName@DOMCDATASectionImpl@xercesc_3_1@@UBEPB_WXZ 120030b3 f   DOMCDATASectionImpl.obj
 0001:000020b3       ?getLocalName@DOMCommentImpl@xercesc_3_1@@UBEPB_WXZ 120030b3 f   DOMCommentImpl.obj
 0001:000020b3       ?getLocalName@DOMDocumentFragmentImpl@xercesc_3_1@@UBEPB_WXZ 120030b3 f   DOMDocumentFragmentImpl.obj
 0001:000020b3       ?getLocalName@DOMDocumentImpl@xercesc_3_1@@UBEPB_WXZ 120030b3 f   DOMDocumentImpl.obj
 0001:000020b3       ?getLocalName@DOMDocumentTypeImpl@xercesc_3_1@@UBEPB_WXZ 120030b3 f   DOMDocumentTypeImpl.obj
 0001:000020b3       ?getLocalName@DOMElementImpl@xercesc_3_1@@UBEPB_WXZ 120030b3 f   DOMElementImpl.obj
 0001:000020b3       ?getLocalName@DOMEntityImpl@xercesc_3_1@@UBEPB_WXZ 120030b3 f   DOMEntityImpl.obj
 0001:000020b3       ?getLocalName@DOMEntityReferenceImpl@xercesc_3_1@@UBEPB_WXZ 120030b3 f   DOMEntityReferenceImpl.obj
 0001:000020b3       ?getLocalName@DOMNodeImpl@xercesc_3_1@@QBEPB_WXZ 120030b3 f   DOMNodeImpl.obj
 0001:000020b3       ?getLocalName@DOMNotationImpl@xercesc_3_1@@UBEPB_WXZ 120030b3 f   DOMNotationImpl.obj
 0001:000020b3       ?getLocalName@DOMProcessingInstructionImpl@xercesc_3_1@@UBEPB_WXZ 120030b3 f   DOMProcessingInstructionImpl.obj
 0001:000020b3       ?getLocalName@DOMTextImpl@xercesc_3_1@@UBEPB_WXZ 120030b3 f   DOMTextImpl.obj
 0001:000020b3       ?getName@XSObject@xercesc_3_1@@UBEPB_WXZ 120030b3 f   XSObject.obj
 0001:000020b3       ?getNamespace@XSObject@xercesc_3_1@@UAEPB_WXZ 120030b3 f   XSObject.obj
 0001:000020b3       ?getNamespaceItem@XSObject@xercesc_3_1@@UAEPAVXSNamespaceItem@2@XZ 120030b3 f   XSObject.obj
 0001:000020b3       ?getNamespaceURI@DOMAttrImpl@xercesc_3_1@@UBEPB_WXZ 120030b3 f   DOMAttrImpl.obj
 0001:000020b3       ?getNamespaceURI@DOMCDATASectionImpl@xercesc_3_1@@UBEPB_WXZ 120030b3 f   DOMCDATASectionImpl.obj
 0001:000020b3       ?getNamespaceURI@DOMCommentImpl@xercesc_3_1@@UBEPB_WXZ 120030b3 f   DOMCommentImpl.obj
 0001:000020b3       ?getNamespaceURI@DOMDocumentFragmentImpl@xercesc_3_1@@UBEPB_WXZ 120030b3 f   DOMDocumentFragmentImpl.obj
 0001:000020b3       ?getNamespaceURI@DOMDocumentImpl@xercesc_3_1@@UBEPB_WXZ 120030b3 f   DOMDocumentImpl.obj
 0001:000020b3       ?getNamespaceURI@DOMDocumentTypeImpl@xercesc_3_1@@UBEPB_WXZ 120030b3 f   DOMDocumentTypeImpl.obj
 0001:000020b3       ?getNamespaceURI@DOMElementImpl@xercesc_3_1@@UBEPB_WXZ 120030b3 f   DOMElementImpl.obj
 0001:000020b3       ?getNamespaceURI@DOMEntityImpl@xercesc_3_1@@UBEPB_WXZ 120030b3 f   DOMEntityImpl.obj
 0001:000020b3       ?getNamespaceURI@DOMEntityReferenceImpl@xercesc_3_1@@UBEPB_WXZ 120030b3 f   DOMEntityReferenceImpl.obj
 0001:000020b3       ?getNamespaceURI@DOMNodeImpl@xercesc_3_1@@QBEPB_WXZ 120030b3 f   DOMNodeImpl.obj
 0001:000020b3       ?getNamespaceURI@DOMNotationImpl@xercesc_3_1@@UBEPB_WXZ 120030b3 f   DOMNotationImpl.obj
 0001:000020b3       ?getNamespaceURI@DOMProcessingInstructionImpl@xercesc_3_1@@UBEPB_WXZ 120030b3 f   DOMProcessingInstructionImpl.obj
 0001:000020b3       ?getNamespaceURI@DOMTextImpl@xercesc_3_1@@UBEPB_WXZ 120030b3 f   DOMTextImpl.obj
 0001:000020b3       ?getNextSibling@DOMAttrImpl@xercesc_3_1@@UBEPAVDOMNode@2@XZ 120030b3 f   DOMAttrImpl.obj
 0001:000020b3       ?getNextSibling@DOMDocumentFragmentImpl@xercesc_3_1@@UBEPAVDOMNode@2@XZ 120030b3 f   DOMDocumentFragmentImpl.obj
 0001:000020b3       ?getNextSibling@DOMDocumentImpl@xercesc_3_1@@UBEPAVDOMNode@2@XZ 120030b3 f   DOMDocumentImpl.obj
 0001:000020b3       ?getNextSibling@DOMEntityImpl@xercesc_3_1@@UBEPAVDOMNode@2@XZ 120030b3 f   DOMEntityImpl.obj
 0001:000020b3       ?getNextSibling@DOMNodeImpl@xercesc_3_1@@QBEPAVDOMNode@2@XZ 120030b3 f   DOMNodeImpl.obj
 0001:000020b3       ?getNextSibling@DOMNotationImpl@xercesc_3_1@@UBEPAVDOMNode@2@XZ 120030b3 f   DOMNotationImpl.obj
 0001:000020b3       ?getNoParen@Token@xercesc_3_1@@UBEHXZ 120030b3 f   ASCIIRangeFactory.obj
 0001:000020b3       ?getNodeValue@DOMDocumentFragmentImpl@xercesc_3_1@@UBEPB_WXZ 120030b3 f   DOMDocumentFragmentImpl.obj
 0001:000020b3       ?getNodeValue@DOMDocumentImpl@xercesc_3_1@@UBEPB_WXZ 120030b3 f   DOMDocumentImpl.obj
 0001:000020b3       ?getNodeValue@DOMDocumentTypeImpl@xercesc_3_1@@UBEPB_WXZ 120030b3 f   DOMDocumentTypeImpl.obj
 0001:000020b3       ?getNodeValue@DOMElementImpl@xercesc_3_1@@UBEPB_WXZ 120030b3 f   DOMElementImpl.obj
 0001:000020b3       ?getNodeValue@DOMEntityImpl@xercesc_3_1@@UBEPB_WXZ 120030b3 f   DOMEntityImpl.obj
 0001:000020b3       ?getNodeValue@DOMEntityReferenceImpl@xercesc_3_1@@UBEPB_WXZ 120030b3 f   DOMEntityReferenceImpl.obj
 0001:000020b3       ?getNodeValue@DOMNodeImpl@xercesc_3_1@@QBEPB_WXZ 120030b3 f   DOMNodeImpl.obj
 0001:000020b3       ?getNodeValue@DOMNotationImpl@xercesc_3_1@@UBEPB_WXZ 120030b3 f   DOMNotationImpl.obj
 0001:000020b3       ?getObjectType@SchemaElementDecl@xercesc_3_1@@UBE?AW4objectType@XMLElementDecl@2@XZ 120030b3 f   SchemaElementDecl.obj
 0001:000020b3       ?getOwnerDocument@DOMDocumentImpl@xercesc_3_1@@UBEPAVDOMDocument@2@XZ 120030b3 f   DOMDocumentImpl.obj
 0001:000020b3       ?getParentNode@DOMAttrImpl@xercesc_3_1@@UBEPAVDOMNode@2@XZ 120030b3 f   DOMAttrImpl.obj
 0001:000020b3       ?getParentNode@DOMDocumentFragmentImpl@xercesc_3_1@@UBEPAVDOMNode@2@XZ 120030b3 f   DOMDocumentFragmentImpl.obj
 0001:000020b3       ?getParentNode@DOMDocumentImpl@xercesc_3_1@@UBEPAVDOMNode@2@XZ 120030b3 f   DOMDocumentImpl.obj
 0001:000020b3       ?getParentNode@DOMEntityImpl@xercesc_3_1@@UBEPAVDOMNode@2@XZ 120030b3 f   DOMEntityImpl.obj
 0001:000020b3       ?getParentNode@DOMNodeImpl@xercesc_3_1@@QBEPAVDOMNode@2@XZ 120030b3 f   DOMNodeImpl.obj
 0001:000020b3       ?getParentNode@DOMNotationImpl@xercesc_3_1@@UBEPAVDOMNode@2@XZ 120030b3 f   DOMNotationImpl.obj
 0001:000020b3       ?getPrefix@DOMAttrImpl@xercesc_3_1@@UBEPB_WXZ 120030b3 f   DOMAttrImpl.obj
 0001:000020b3       ?getPrefix@DOMCDATASectionImpl@xercesc_3_1@@UBEPB_WXZ 120030b3 f   DOMCDATASectionImpl.obj
 0001:000020b3       ?getPrefix@DOMCommentImpl@xercesc_3_1@@UBEPB_WXZ 120030b3 f   DOMCommentImpl.obj
 0001:000020b3       ?getPrefix@DOMDocumentFragmentImpl@xercesc_3_1@@UBEPB_WXZ 120030b3 f   DOMDocumentFragmentImpl.obj
 0001:000020b3       ?getPrefix@DOMDocumentImpl@xercesc_3_1@@UBEPB_WXZ 120030b3 f   DOMDocumentImpl.obj
 0001:000020b3       ?getPrefix@DOMDocumentTypeImpl@xercesc_3_1@@UBEPB_WXZ 120030b3 f   DOMDocumentTypeImpl.obj
 0001:000020b3       ?getPrefix@DOMElementImpl@xercesc_3_1@@UBEPB_WXZ 120030b3 f   DOMElementImpl.obj
 0001:000020b3       ?getPrefix@DOMEntityImpl@xercesc_3_1@@UBEPB_WXZ 120030b3 f   DOMEntityImpl.obj
 0001:000020b3       ?getPrefix@DOMEntityReferenceImpl@xercesc_3_1@@UBEPB_WXZ 120030b3 f   DOMEntityReferenceImpl.obj
 0001:000020b3       ?getPrefix@DOMNodeImpl@xercesc_3_1@@QBEPB_WXZ 120030b3 f   DOMNodeImpl.obj
 0001:000020b3       ?getPrefix@DOMNotationImpl@xercesc_3_1@@UBEPB_WXZ 120030b3 f   DOMNotationImpl.obj
 0001:000020b3       ?getPrefix@DOMProcessingInstructionImpl@xercesc_3_1@@UBEPB_WXZ 120030b3 f   DOMProcessingInstructionImpl.obj
 0001:000020b3       ?getPrefix@DOMTextImpl@xercesc_3_1@@UBEPB_WXZ 120030b3 f   DOMTextImpl.obj
 0001:000020b3       ?getPreviousSibling@DOMAttrImpl@xercesc_3_1@@UBEPAVDOMNode@2@XZ 120030b3 f   DOMAttrImpl.obj
 0001:000020b3       ?getPreviousSibling@DOMDocumentFragmentImpl@xercesc_3_1@@UBEPAVDOMNode@2@XZ 120030b3 f   DOMDocumentFragmentImpl.obj
 0001:000020b3       ?getPreviousSibling@DOMDocumentImpl@xercesc_3_1@@UBEPAVDOMNode@2@XZ 120030b3 f   DOMDocumentImpl.obj
 0001:000020b3       ?getPreviousSibling@DOMEntityImpl@xercesc_3_1@@UBEPAVDOMNode@2@XZ 120030b3 f   DOMEntityImpl.obj
 0001:000020b3       ?getPreviousSibling@DOMNodeImpl@xercesc_3_1@@QBEPAVDOMNode@2@XZ 120030b3 f   DOMNodeImpl.obj
 0001:000020b3       ?getPreviousSibling@DOMNotationImpl@xercesc_3_1@@UBEPAVDOMNode@2@XZ 120030b3 f   DOMNotationImpl.obj
 0001:000020b3       ?getReferenceNo@Token@xercesc_3_1@@UBEHXZ 120030b3 f   ASCIIRangeFactory.obj
 0001:000020b3       ?getRelatedException@DOMErrorImpl@xercesc_3_1@@UBEPAXXZ 120030b3 f   DOMLSParserImpl.obj
 0001:000020b3       ?getSign@XMLDateTime@xercesc_3_1@@UBEHXZ 120030b3 f   XMLDateTime.obj
 0001:000020b3       ?getString@Token@xercesc_3_1@@UBEPB_WXZ 120030b3 f   ASCIIRangeFactory.obj
 0001:000020b3       ?getStringData@Wrapper4InputSource@xercesc_3_1@@UBEPB_WXZ 120030b3 f   Wrapper4InputSource.obj
 0001:000020b3       ?getSystemId@XMLDTDDescription@xercesc_3_1@@UBEPB_WXZ 120030b3 f   XMLDTDDescription.obj
 0001:000020b3       ?getType@IC_Unique@xercesc_3_1@@UBEFXZ 120030b3 f   TraverseSchema.obj
 0001:000020b3       ?size@Token@xercesc_3_1@@UBEKXZ 120030b3 f   ASCIIRangeFactory.obj
 0001:000020b3       ___scrt_stub_for_is_c_termination_complete 120030b3 f   MSVCRT:ucrt_stubs.obj
 0001:000020b3       __is_c_termination_complete 120030b3 f   MSVCRT:ucrt_stubs.obj
 0001:000020b6       ??_EBinInputStream@xercesc_3_1@@UAEPAXI@Z 120030b6 f i BinInputStream.obj
 0001:00002150       ??1BinInputStream@xercesc_3_1@@UAE@XZ 12003150 f   BinInputStream.obj
 0001:00002157       ??0BinInputStream@xercesc_3_1@@IAE@XZ 12003157 f   BinInputStream.obj
 0001:00002160       ??_EBinMemInputStream@xercesc_3_1@@UAEPAXI@Z 12003160 f i BinMemInputStream.obj
 0001:000021f6       ?reset@BinMemInputStream@xercesc_3_1@@QAEXXZ 120031f6 f i BinMemInputStream.obj
 0001:000021fb       ?curPos@BinMemInputStream@xercesc_3_1@@UBE_KXZ 120031fb f i BinMemInputStream.obj
 0001:000021fb       ?getSize@BinMemOutputStream@xercesc_3_1@@QBE_KXZ 120031fb f i BinMemOutputStream.obj
 0001:00002201       ?getBaseURI@XMLResourceIdentifier@xercesc_3_1@@QBEPB_WXZ 12003201 f i DGXMLScanner.obj
 0001:00002201       ?getChar@CharToken@xercesc_3_1@@UBEHXZ 12003201 f i CharToken.obj
 0001:00002201       ?getCreateReason@XMLAttDef@xercesc_3_1@@QBE?AW4CreateReasons@12@XZ 12003201 f i XMLAttDef.obj
 0001:00002201       ?getCreateReason@XMLElementDecl@xercesc_3_1@@QBE?AW4CreateReasons@12@XZ 12003201 f i XMLDTDDescription.obj
 0001:00002201       ?getCurrentNode@DOMTreeWalkerImpl@xercesc_3_1@@UAEPAVDOMNode@2@XZ 12003201 f i DOMTreeWalkerImpl.obj
 0001:00002201       ?getDerivedBy@ComplexTypeInfo@xercesc_3_1@@QBEHXZ 12003201 f i XMLElementDecl.obj
 0001:00002201       ?getDocTypeHandler@DTDScanner@xercesc_3_1@@QAEPAVDocTypeHandler@2@XZ 12003201 f i DGXMLScanner.obj
 0001:00002201       ?getDocTypeHandler@DTDScanner@xercesc_3_1@@QBEPBVDocTypeHandler@2@XZ 12003201 f i DGXMLScanner.obj
 0001:00002201       ?getElementDecl@ContentSpecNode@xercesc_3_1@@QAEPAVXMLElementDecl@2@XZ 12003201 f i XMLGrammarPoolImpl.obj
 0001:00002201       ?getElementDecl@ContentSpecNode@xercesc_3_1@@QBEPBVXMLElementDecl@2@XZ 12003201 f i XMLGrammarPoolImpl.obj
 0001:00002201       ?getEncoding@DOMLSInputImpl@xercesc_3_1@@UBEPB_WXZ 12003201 f i DOMImplementationImpl.obj
 0001:00002201       ?getEntityDeclPool@ValidationContextImpl@xercesc_3_1@@UBEPBV?$NameIdPool@VDTDEntityDecl@xercesc_3_1@@@2@XZ 12003201 f i ValidationContextImpl.obj
 0001:00002201       ?getFinalSet@DatatypeValidator@xercesc_3_1@@QBEHXZ 12003201 f i XMLAttr.obj
 0001:00002201       ?getHost@XMLURL@xercesc_3_1@@QBEPB_WXZ 12003201 f i PlatformUtils.obj
 0001:00002201       ?getKey@KVStringPair@xercesc_3_1@@QAEPA_WXZ 12003201 f i KVStringPair.obj
 0001:00002201       ?getKey@KVStringPair@xercesc_3_1@@QBEPB_WXZ 12003201 f i KVStringPair.obj
 0001:00002201       ?getKey@XMLNotationDecl@xercesc_3_1@@QBEPB_WXZ 12003201 f i XMLDTDDescription.obj
 0001:00002201       ?getLeafCount@ContentLeafNameTypeVector@xercesc_3_1@@QBEKXZ 12003201 f i ContentLeafNameTypeVector.obj
 0001:00002201       ?getLen@MemBufFormatTarget@xercesc_3_1@@QBEKXZ 12003201 f i MemBufFormatTarget.obj
 0001:00002201       ?getLocationPaths@XercesXPath@xercesc_3_1@@QBEPAV?$RefVectorOf@VXercesLocationPath@xercesc_3_1@@@2@XZ 12003201 f i XMLGrammarPoolImpl.obj
 0001:00002201       ?getMemoryManager@XMLTranscoder@xercesc_3_1@@QBEPAVMemoryManager@2@XZ 12003201 f i PlatformUtils.obj
 0001:00002201       ?getMessage@DOMErrorImpl@xercesc_3_1@@UBEPB_WXZ 12003201 f i DOMLSParserImpl.obj
 0001:00002201       ?getMin@ClosureToken@xercesc_3_1@@UBEHXZ 12003201 f i ClosureToken.obj
 0001:00002201       ?getName@XMLNotationDecl@xercesc_3_1@@QBEPB_WXZ 12003201 f i XMLDTDDescription.obj
 0001:00002201       ?getNameId@XercesGroupInfo@xercesc_3_1@@QBEIXZ 12003201 f i XMLGrammarPoolImpl.obj
 0001:00002201       ?getNamespaceId@XercesAttGroupInfo@xercesc_3_1@@QBEIXZ 12003201 f i XMLGrammarPoolImpl.obj
 0001:00002201       ?getNewLine@DOMLSSerializerImpl@xercesc_3_1@@UBEPB_WXZ 12003201 f i DOMLSSerializerImpl.obj
 0001:00002201       ?getNextOp@Op@xercesc_3_1@@QBEPBV12@XZ 12003201 f i Op.obj
 0001:00002201       ?getNoParen@ParenToken@xercesc_3_1@@UBEHXZ 12003201 f i ParenToken.obj
 0001:00002201       ?getNodeName@DOMNotationImpl@xercesc_3_1@@UBEPB_WXZ 12003201 f i DOMNotationImpl.obj
 0001:00002201       ?getOptions@RegxParser@xercesc_3_1@@QBEHXZ 12003201 f i ParserForXMLSchema.obj
 0001:00002201       ?getPublicId@InputSource@xercesc_3_1@@UBEPB_WXZ 12003201 f i LocalFileInputSource.obj
 0001:00002201       ?getReaderMgr@XMLValidator@xercesc_3_1@@IAEPAVReaderMgr@2@XZ 12003201 f i XMLValidator.obj
 0001:00002201       ?getReaderMgr@XMLValidator@xercesc_3_1@@IBEPBVReaderMgr@2@XZ 12003201 f i XMLValidator.obj
 0001:00002201       ?getReferenceNo@StringToken@xercesc_3_1@@UBEHXZ 12003201 f i ParserForXMLSchema.obj
 0001:00002201       ?getRootName@XMLDTDDescriptionImpl@xercesc_3_1@@UBEPB_WXZ 12003201 f i XMLDTDDescriptionImpl.obj
 0001:00002201       ?getScale@XMLBigDecimal@xercesc_3_1@@QBEIXZ 12003201 f i XMLAbstractDoubleFloat.obj
 0001:00002201       ?getSchemaNormalizedValue@PSVIItem@xercesc_3_1@@QAEPB_WXZ 12003201 f i PSVIAttribute.obj
 0001:00002201       ?getSchemaType@DOMConfigurationImpl@xercesc_3_1@@QBEPB_WXZ 12003201 f i DOMConfigurationImpl.obj
 0001:00002201       ?getSelector@IdentityConstraint@xercesc_3_1@@QBEPAVIC_Selector@2@XZ 12003201 f i XMLElementDecl.obj
 0001:00002201       ?getSize@BinMemInputStream@xercesc_3_1@@QBEKXZ 12003201 f i BinMemInputStream.obj
 0001:00002201       ?getSystemId@DOMLSOutputImpl@xercesc_3_1@@UBEPB_WXZ 12003201 f i DOMImplementationImpl.obj
 0001:00002201       ?getTargetNSURI@SchemaInfo@xercesc_3_1@@QBEHXZ 12003201 f i IGXMLScanner.obj
 0001:00002201       ?getTargetNamespace@XMLSchemaDescriptionImpl@xercesc_3_1@@UBEPB_WXZ 12003201 f i XMLSchemaDescriptionImpl.obj
 0001:00002201       ?getTokenFactory@RangeTokenMap@xercesc_3_1@@QBEPAVTokenFactory@2@XZ 12003201 f i ASCIIRangeFactory.obj
 0001:00002201       ?getUnRepFlags@XMLFormatter@xercesc_3_1@@QBE?AW4UnRepFlags@12@XZ 12003201 f i LocalFileFormatTarget.obj
 0001:00002201       ?getUserInfo@XMLUri@xercesc_3_1@@QBEPB_WXZ 12003201 f i XMLString.obj
 0001:00002201       ?getValue@XMLAttr@xercesc_3_1@@QBEPB_WXZ 12003201 f i XMLAttr.obj
 0001:00002201       ?getValue@XMLEntityDecl@xercesc_3_1@@QBEPB_WXZ 12003201 f i XMLDTDDescription.obj
 0001:00002201       ?getWhatToShow@DOMNodeIteratorImpl@xercesc_3_1@@UAEKXZ 12003201 f i DOMNodeIteratorImpl.obj
 0001:00002205       ??0BinMemInputStream@xercesc_3_1@@QAE@QBEKW4BufOpts@01@QAVMemoryManager@1@@Z 12003205 f   BinMemInputStream.obj
 0001:00002266       ??1BinMemInputStream@xercesc_3_1@@UAE@XZ 12003266 f   BinMemInputStream.obj
 0001:000022c1       ?readBytes@BinMemInputStream@xercesc_3_1@@UAEKQAEK@Z 120032c1 f   BinMemInputStream.obj
 0001:000022f7       ??0BitSet@xercesc_3_1@@QAE@KQAVMemoryManager@1@@Z 120032f7 f   BitSet.obj
 0001:00002319       ??0BitSet@xercesc_3_1@@QAE@ABV01@@Z 12003319 f   BitSet.obj
 0001:0000235f       ??1BitSet@xercesc_3_1@@QAE@XZ 1200335f f   BitSet.obj
 0001:0000239f       ?equals@BitSet@xercesc_3_1@@QBE_NABV12@@Z 1200339f f   BitSet.obj
 0001:000023de       ?get@BitSet@xercesc_3_1@@QBE_NK@Z 120033de f   BitSet.obj
 0001:00002412       ?size@BitSet@xercesc_3_1@@QBEKXZ 12003412 f   BitSet.obj
 0001:00002419       ?allAreCleared@BitSet@xercesc_3_1@@QBE_NXZ 12003419 f   BitSet.obj
 0001:0000243b       ?allAreSet@BitSet@xercesc_3_1@@QBE_NXZ 1200343b f   BitSet.obj
 0001:0000245d       ?clearAll@BitSet@xercesc_3_1@@QAEXXZ 1200345d f   BitSet.obj
 0001:00002472       ?clear@BitSet@xercesc_3_1@@QAEXK@Z 12003472 f   BitSet.obj
 0001:0000249f       ?set@BitSet@xercesc_3_1@@QAEXK@Z 1200349f f   BitSet.obj
 0001:000024cc       ?andWith@BitSet@xercesc_3_1@@QAEXABV12@@Z 120034cc f   BitSet.obj
 0001:00002506       ?orWith@BitSet@xercesc_3_1@@QAEXABV12@@Z 12003506 f   BitSet.obj
 0001:00002540       ?xorWith@BitSet@xercesc_3_1@@QAEXABV12@@Z 12003540 f   BitSet.obj
 0001:0000257a       ?hash@BitSet@xercesc_3_1@@QBEKK@Z 1200357a f   BitSet.obj
 0001:000025a7       ?ensureCapacity@BitSet@xercesc_3_1@@AAEXK@Z 120035a7 f   BitSet.obj
 0001:0000262d       ??0DefaultPanicHandler@xercesc_3_1@@QAE@XZ 1200362d f i DefaultPanicHandler.obj
 0001:00002636       ??_EDefaultPanicHandler@xercesc_3_1@@UAEPAXI@Z 12003636 f i DefaultPanicHandler.obj
 0001:000026d0       ___local_stdio_printf_options 120036d0 f i DefaultPanicHandler.obj
 0001:000026d6       _fprintf                   120036d6 f i DefaultPanicHandler.obj
 0001:000026fa       ?panic@DefaultPanicHandler@xercesc_3_1@@UAEXW4PanicReasons@PanicHandler@2@@Z 120036fa f   DefaultPanicHandler.obj
 0001:00002727       ??0IllegalArgumentException@xercesc_3_1@@QAE@QBD_KW4Codes@XMLExcepts@1@PAVMemoryManager@1@@Z 12003727 f i EncodingValidator.obj
 0001:00002767       ??0IllegalArgumentException@xercesc_3_1@@QAE@ABV01@@Z 12003767 f i EncodingValidator.obj
 0001:00002786       ??0IllegalArgumentException@xercesc_3_1@@QAE@QBD_KW4Codes@XMLExcepts@1@QB_W333PAVMemoryManager@1@@Z 12003786 f i EncodingValidator.obj
 0001:000027d2       ??0IllegalArgumentException@xercesc_3_1@@QAE@QBD_KW4Codes@XMLExcepts@1@0000PAVMemoryManager@1@@Z 120037d2 f i EncodingValidator.obj
 0001:0000281e       ??1IllegalArgumentException@xercesc_3_1@@UAE@XZ 1200381e f i EncodingValidator.obj
 0001:00002829       ?duplicate@IllegalArgumentException@xercesc_3_1@@UBEPAVXMLException@2@XZ 12003829 f i EncodingValidator.obj
 0001:0000286d       ?getType@IllegalArgumentException@xercesc_3_1@@UBEPB_WXZ 1200386d f i EncodingValidator.obj
 0001:00002873       ??_EIllegalArgumentException@xercesc_3_1@@UAEPAXI@Z 12003873 f i EncodingValidator.obj
 0001:00002911       ??0NoSuchElementException@xercesc_3_1@@QAE@QBD_KW4Codes@XMLExcepts@1@PAVMemoryManager@1@@Z 12003911 f i EncodingValidator.obj
 0001:00002951       ??0NoSuchElementException@xercesc_3_1@@QAE@ABV01@@Z 12003951 f i EncodingValidator.obj
 0001:00002970       ??0NoSuchElementException@xercesc_3_1@@QAE@QBD_KW4Codes@XMLExcepts@1@QB_W333PAVMemoryManager@1@@Z 12003970 f i EncodingValidator.obj
 0001:000029bc       ??0NoSuchElementException@xercesc_3_1@@QAE@QBD_KW4Codes@XMLExcepts@1@0000PAVMemoryManager@1@@Z 120039bc f i EncodingValidator.obj
 0001:00002a08       ??1NoSuchElementException@xercesc_3_1@@UAE@XZ 12003a08 f i EncodingValidator.obj
 0001:00002a13       ?duplicate@NoSuchElementException@xercesc_3_1@@UBEPAVXMLException@2@XZ 12003a13 f i EncodingValidator.obj
 0001:00002a57       ?getType@NoSuchElementException@xercesc_3_1@@UBEPB_WXZ 12003a57 f i EncodingValidator.obj
 0001:00002a5d       ??_ENoSuchElementException@xercesc_3_1@@UAEPAXI@Z 12003a5d f i EncodingValidator.obj
 0001:00002afb       ??0RuntimeException@xercesc_3_1@@QAE@QBD_KW4Codes@XMLExcepts@1@PAVMemoryManager@1@@Z 12003afb f i EncodingValidator.obj
 0001:00002b3b       ??0RuntimeException@xercesc_3_1@@QAE@ABV01@@Z 12003b3b f i EncodingValidator.obj
 0001:00002b5a       ??0RuntimeException@xercesc_3_1@@QAE@QBD_KW4Codes@XMLExcepts@1@QB_W333PAVMemoryManager@1@@Z 12003b5a f i EncodingValidator.obj
 0001:00002ba6       ??0RuntimeException@xercesc_3_1@@QAE@QBD_KW4Codes@XMLExcepts@1@0000PAVMemoryManager@1@@Z 12003ba6 f i EncodingValidator.obj
 0001:00002bf2       ??1RuntimeException@xercesc_3_1@@UAE@XZ 12003bf2 f i EncodingValidator.obj
 0001:00002bfd       ?duplicate@RuntimeException@xercesc_3_1@@UBEPAVXMLException@2@XZ 12003bfd f i EncodingValidator.obj
 0001:00002c41       ?getType@RuntimeException@xercesc_3_1@@UBEPB_WXZ 12003c41 f i EncodingValidator.obj
 0001:00002c47       ??_ERuntimeException@xercesc_3_1@@UAEPAXI@Z 12003c47 f i EncodingValidator.obj
 0001:00002ce5       ??0NullPointerException@xercesc_3_1@@QAE@QBD_KW4Codes@XMLExcepts@1@PAVMemoryManager@1@@Z 12003ce5 f i EncodingValidator.obj
 0001:00002d25       ??0NullPointerException@xercesc_3_1@@QAE@ABV01@@Z 12003d25 f i EncodingValidator.obj
 0001:00002d44       ??0NullPointerException@xercesc_3_1@@QAE@QBD_KW4Codes@XMLExcepts@1@QB_W333PAVMemoryManager@1@@Z 12003d44 f i EncodingValidator.obj
 0001:00002d90       ??0NullPointerException@xercesc_3_1@@QAE@QBD_KW4Codes@XMLExcepts@1@0000PAVMemoryManager@1@@Z 12003d90 f i EncodingValidator.obj
 0001:00002ddc       ??1NullPointerException@xercesc_3_1@@UAE@XZ 12003ddc f i EncodingValidator.obj
 0001:00002de7       ?duplicate@NullPointerException@xercesc_3_1@@UBEPAVXMLException@2@XZ 12003de7 f i EncodingValidator.obj
 0001:00002e2b       ?getType@NullPointerException@xercesc_3_1@@UBEPB_WXZ 12003e2b f i EncodingValidator.obj
 0001:00002e31       ??_ENullPointerException@xercesc_3_1@@UAEPAXI@Z 12003e31 f i EncodingValidator.obj
 0001:00002ecf       ??4EncodingValidator@xercesc_3_1@@QAEAAV01@ABV01@@Z 12003ecf f i EncodingValidator.obj
 0001:00002ecf       ??4XIncludeLocation@xercesc_3_1@@QAEAAV01@ABV01@@Z 12003ecf f i AbstractDOMParser.obj
 0001:00002edf       ?initializeEncodingValidator@XMLInitializer@xercesc_3_1@@CAXXZ 12003edf f   EncodingValidator.obj
 0001:00002f12       ?terminateEncodingValidator@XMLInitializer@xercesc_3_1@@CAXXZ 12003f12 f   EncodingValidator.obj
 0001:00002f37       ??0EncodingValidator@xercesc_3_1@@AAE@XZ 12003f37 f   EncodingValidator.obj
 0001:00002f46       ??1EncodingValidator@xercesc_3_1@@AAE@XZ 12003f46 f   EncodingValidator.obj
 0001:00002f64       ?isValidEncoding@EncodingValidator@xercesc_3_1@@QAE_NQB_W@Z 12003f64 f   EncodingValidator.obj
 0001:00002fa5       ?initializeRegistry@EncodingValidator@xercesc_3_1@@AAEXXZ 12003fa5 f   EncodingValidator.obj
 0001:00002ffe       ?instance@EncodingValidator@xercesc_3_1@@SAPAV12@XZ 12003ffe f   EncodingValidator.obj
 0001:00003004       ??0?$ValueHashTableOf@_NUStringHasher@xercesc_3_1@@@xercesc_3_1@@QAE@KQAVMemoryManager@1@@Z 12004004 f i EncodingValidator.obj
 0001:0000304b       ??1?$ValueHashTableOf@GUStringHasher@xercesc_3_1@@@xercesc_3_1@@QAE@XZ 1200404b f i GeneralAttributeCheck.obj
 0001:0000304b       ??1?$ValueHashTableOf@IUStringHasher@xercesc_3_1@@@xercesc_3_1@@QAE@XZ 1200404b f i DOMLSParserImpl.obj
 0001:0000304b       ??1?$ValueHashTableOf@W4DataType@XSValue@xercesc_3_1@@UStringHasher@3@@xercesc_3_1@@QAE@XZ 1200404b f i XSValue.obj
 0001:0000304b       ??1?$ValueHashTableOf@_NUStringHasher@xercesc_3_1@@@xercesc_3_1@@QAE@XZ 1200404b f i EncodingValidator.obj
 0001:0000304b       ??1?$ValueHashTableOf@_WUStringHasher@xercesc_3_1@@@xercesc_3_1@@QAE@XZ 1200404b f i SGXMLScanner.obj
 0001:000030ca       ?put@?$ValueHashTableOf@_NUStringHasher@xercesc_3_1@@@xercesc_3_1@@QAEXPAXAB_N@Z 120040ca f i EncodingValidator.obj
 0001:00003151       ?rehash@?$ValueHashTableOf@GUStringHasher@xercesc_3_1@@@xercesc_3_1@@AAEXXZ 12004151 f i GeneralAttributeCheck.obj
 0001:00003151       ?rehash@?$ValueHashTableOf@IUStringHasher@xercesc_3_1@@@xercesc_3_1@@AAEXXZ 12004151 f i DOMLSParserImpl.obj
 0001:00003151       ?rehash@?$ValueHashTableOf@W4DataType@XSValue@xercesc_3_1@@UStringHasher@3@@xercesc_3_1@@AAEXXZ 12004151 f i XSValue.obj
 0001:00003151       ?rehash@?$ValueHashTableOf@_NUStringHasher@xercesc_3_1@@@xercesc_3_1@@AAEXXZ 12004151 f i EncodingValidator.obj
 0001:00003151       ?rehash@?$ValueHashTableOf@_WUStringHasher@xercesc_3_1@@@xercesc_3_1@@AAEXXZ 12004151 f i SGXMLScanner.obj
 0001:00003200       ?swapBytes@BitOps@xercesc_3_1@@SA_WG@Z 12004200 f i HeaderDummy.obj
 0001:00003213       ?swapBytes@BitOps@xercesc_3_1@@SAII@Z 12004213 f i HeaderDummy.obj
 0001:0000321d       ??0EmptyStackException@xercesc_3_1@@QAE@QBD_KW4Codes@XMLExcepts@1@PAVMemoryManager@1@@Z 1200421d f i HeaderDummy.obj
 0001:0000325d       ??0EmptyStackException@xercesc_3_1@@QAE@ABV01@@Z 1200425d f i HeaderDummy.obj
 0001:0000327c       ??0EmptyStackException@xercesc_3_1@@QAE@QBD_KW4Codes@XMLExcepts@1@QB_W333PAVMemoryManager@1@@Z 1200427c f i HeaderDummy.obj
 0001:000032c8       ??0EmptyStackException@xercesc_3_1@@QAE@QBD_KW4Codes@XMLExcepts@1@0000PAVMemoryManager@1@@Z 120042c8 f i HeaderDummy.obj
 0001:00003314       ??1EmptyStackException@xercesc_3_1@@UAE@XZ 12004314 f i HeaderDummy.obj
 0001:0000331f       ?duplicate@EmptyStackException@xercesc_3_1@@UBEPAVXMLException@2@XZ 1200431f f i HeaderDummy.obj
 0001:00003363       ?getType@EmptyStackException@xercesc_3_1@@UBEPB_WXZ 12004363 f i HeaderDummy.obj
 0001:00003369       ??_EEmptyStackException@xercesc_3_1@@UAEPAXI@Z 12004369 f i HeaderDummy.obj
 0001:00003407       ??0InvalidCastException@xercesc_3_1@@QAE@QBD_KW4Codes@XMLExcepts@1@PAVMemoryManager@1@@Z 12004407 f i HeaderDummy.obj
 0001:00003447       ??0InvalidCastException@xercesc_3_1@@QAE@ABV01@@Z 12004447 f i HeaderDummy.obj
 0001:00003466       ??0InvalidCastException@xercesc_3_1@@QAE@QBD_KW4Codes@XMLExcepts@1@QB_W333PAVMemoryManager@1@@Z 12004466 f i HeaderDummy.obj
 0001:000034b2       ??0InvalidCastException@xercesc_3_1@@QAE@QBD_KW4Codes@XMLExcepts@1@0000PAVMemoryManager@1@@Z 120044b2 f i HeaderDummy.obj
 0001:000034fe       ??1InvalidCastException@xercesc_3_1@@UAE@XZ 120044fe f i HeaderDummy.obj
 0001:00003509       ?duplicate@InvalidCastException@xercesc_3_1@@UBEPAVXMLException@2@XZ 12004509 f i HeaderDummy.obj
 0001:0000354d       ?getType@InvalidCastException@xercesc_3_1@@UBEPB_WXZ 1200454d f i HeaderDummy.obj
 0001:00003553       ??_EInvalidCastException@xercesc_3_1@@UAEPAXI@Z 12004553 f i HeaderDummy.obj
 0001:000035f1       ??0IOException@xercesc_3_1@@QAE@QBD_KW4Codes@XMLExcepts@1@PAVMemoryManager@1@@Z 120045f1 f i HeaderDummy.obj
 0001:00003631       ??0IOException@xercesc_3_1@@QAE@ABV01@@Z 12004631 f i HeaderDummy.obj
 0001:00003650       ??0IOException@xercesc_3_1@@QAE@QBD_KW4Codes@XMLExcepts@1@QB_W333PAVMemoryManager@1@@Z 12004650 f i HeaderDummy.obj
 0001:0000369c       ??0IOException@xercesc_3_1@@QAE@QBD_KW4Codes@XMLExcepts@1@0000PAVMemoryManager@1@@Z 1200469c f i HeaderDummy.obj
 0001:000036e8       ??1IOException@xercesc_3_1@@UAE@XZ 120046e8 f i HeaderDummy.obj
 0001:000036f3       ?duplicate@IOException@xercesc_3_1@@UBEPAVXMLException@2@XZ 120046f3 f i HeaderDummy.obj
 0001:00003737       ?getType@IOException@xercesc_3_1@@UBEPB_WXZ 12004737 f i HeaderDummy.obj
 0001:0000373d       ??_EIOException@xercesc_3_1@@UAEPAXI@Z 1200473d f i HeaderDummy.obj
 0001:000037db       ??0UnexpectedEOFException@xercesc_3_1@@QAE@QBD_KW4Codes@XMLExcepts@1@PAVMemoryManager@1@@Z 120047db f i HeaderDummy.obj
 0001:0000381b       ??0UnexpectedEOFException@xercesc_3_1@@QAE@ABV01@@Z 1200481b f i HeaderDummy.obj
 0001:0000383a       ??0UnexpectedEOFException@xercesc_3_1@@QAE@QBD_KW4Codes@XMLExcepts@1@QB_W333PAVMemoryManager@1@@Z 1200483a f i HeaderDummy.obj
 0001:00003886       ??0UnexpectedEOFException@xercesc_3_1@@QAE@QBD_KW4Codes@XMLExcepts@1@0000PAVMemoryManager@1@@Z 12004886 f i HeaderDummy.obj
 0001:000038d2       ??1UnexpectedEOFException@xercesc_3_1@@UAE@XZ 120048d2 f i HeaderDummy.obj
 0001:000038dd       ?duplicate@UnexpectedEOFException@xercesc_3_1@@UBEPAVXMLException@2@XZ 120048dd f i HeaderDummy.obj
 0001:00003921       ?getType@UnexpectedEOFException@xercesc_3_1@@UBEPB_WXZ 12004921 f i HeaderDummy.obj
 0001:00003927       ??_EUnexpectedEOFException@xercesc_3_1@@UAEPAXI@Z 12004927 f i HeaderDummy.obj
 0001:000039c5       ??0UnsupportedEncodingException@xercesc_3_1@@QAE@QBD_KW4Codes@XMLExcepts@1@PAVMemoryManager@1@@Z 120049c5 f i HeaderDummy.obj
 0001:00003a05       ??0UnsupportedEncodingException@xercesc_3_1@@QAE@ABV01@@Z 12004a05 f i HeaderDummy.obj
 0001:00003a24       ??0UnsupportedEncodingException@xercesc_3_1@@QAE@QBD_KW4Codes@XMLExcepts@1@QB_W333PAVMemoryManager@1@@Z 12004a24 f i HeaderDummy.obj
 0001:00003a70       ??0UnsupportedEncodingException@xercesc_3_1@@QAE@QBD_KW4Codes@XMLExcepts@1@0000PAVMemoryManager@1@@Z 12004a70 f i HeaderDummy.obj
 0001:00003abc       ??1UnsupportedEncodingException@xercesc_3_1@@UAE@XZ 12004abc f i HeaderDummy.obj
 0001:00003ac7       ?duplicate@UnsupportedEncodingException@xercesc_3_1@@UBEPAVXMLException@2@XZ 12004ac7 f i HeaderDummy.obj
 0001:00003b0b       ?getType@UnsupportedEncodingException@xercesc_3_1@@UBEPB_WXZ 12004b0b f i HeaderDummy.obj
 0001:00003b11       ??_EUnsupportedEncodingException@xercesc_3_1@@UAEPAXI@Z 12004b11 f i HeaderDummy.obj
 0001:00003baf       ??0UTFDataFormatException@xercesc_3_1@@QAE@QBD_KW4Codes@XMLExcepts@1@PAVMemoryManager@1@@Z 12004baf f i HeaderDummy.obj
 0001:00003bef       ??0UTFDataFormatException@xercesc_3_1@@QAE@ABV01@@Z 12004bef f i HeaderDummy.obj
 0001:00003c0e       ??0UTFDataFormatException@xercesc_3_1@@QAE@QBD_KW4Codes@XMLExcepts@1@QB_W333PAVMemoryManager@1@@Z 12004c0e f i HeaderDummy.obj
 0001:00003c5a       ??0UTFDataFormatException@xercesc_3_1@@QAE@QBD_KW4Codes@XMLExcepts@1@0000PAVMemoryManager@1@@Z 12004c5a f i HeaderDummy.obj
 0001:00003ca6       ??1UTFDataFormatException@xercesc_3_1@@UAE@XZ 12004ca6 f i HeaderDummy.obj
 0001:00003cb1       ?duplicate@UTFDataFormatException@xercesc_3_1@@UBEPAVXMLException@2@XZ 12004cb1 f i HeaderDummy.obj
 0001:00003cf5       ?getType@UTFDataFormatException@xercesc_3_1@@UBEPB_WXZ 12004cf5 f i HeaderDummy.obj
 0001:00003cfb       ??_EUTFDataFormatException@xercesc_3_1@@UAEPAXI@Z 12004cfb f i HeaderDummy.obj
 0001:00003d99       ?getDataLength@HexBin@xercesc_3_1@@SAHQB_W@Z 12004d99 f   HexBin.obj
 0001:00003dbe       ?isArrayByteHex@HexBin@xercesc_3_1@@SA_NQB_W@Z 12004dbe f   HexBin.obj
 0001:00003e02       ?getCanonicalRepresentation@HexBin@xercesc_3_1@@SAPA_WQB_WQAVMemoryManager@2@@Z 12004e02 f   HexBin.obj
 0001:00003e33       ?decodeToXMLByte@HexBin@xercesc_3_1@@SAPAEQB_WQAVMemoryManager@2@@Z 12004e33 f   HexBin.obj
 0001:00003ec6       ?isHex@HexBin@xercesc_3_1@@CA_NAB_W@Z 12004ec6 f   HexBin.obj
 0001:00003ee8       ??0XSerializationException@xercesc_3_1@@QAE@QBD_KW4Codes@XMLExcepts@1@PAVMemoryManager@1@@Z 12004ee8 f i KVStringPair.obj
 0001:00003f28       ??0XSerializationException@xercesc_3_1@@QAE@ABV01@@Z 12004f28 f i KVStringPair.obj
 0001:00003f47       ??0XSerializationException@xercesc_3_1@@QAE@QBD_KW4Codes@XMLExcepts@1@QB_W333PAVMemoryManager@1@@Z 12004f47 f i KVStringPair.obj
 0001:00003f93       ??0XSerializationException@xercesc_3_1@@QAE@QBD_KW4Codes@XMLExcepts@1@0000PAVMemoryManager@1@@Z 12004f93 f i KVStringPair.obj
 0001:00003fdf       ??1XSerializationException@xercesc_3_1@@UAE@XZ 12004fdf f i KVStringPair.obj
 0001:00003fea       ?duplicate@XSerializationException@xercesc_3_1@@UBEPAVXMLException@2@XZ 12004fea f i KVStringPair.obj
 0001:0000402e       ?getType@XSerializationException@xercesc_3_1@@UBEPB_WXZ 1200502e f i KVStringPair.obj
 0001:00004034       ??_EXSerializationException@xercesc_3_1@@UAEPAXI@Z 12005034 f i KVStringPair.obj
 0001:000040d2       ?isStoring@XSerializeEngine@xercesc_3_1@@QBE_NXZ 120050d2 f i KVStringPair.obj
 0001:000040da       ?isLoading@XSerializeEngine@xercesc_3_1@@QBE_NXZ 120050da f i KVStringPair.obj
 0001:000040e2       ?ensureStoring@XSerializeEngine@xercesc_3_1@@ABEXXZ 120050e2 f i KVStringPair.obj
 0001:000040fa       ?ensureLoading@XSerializeEngine@xercesc_3_1@@ABEXXZ 120050fa f i KVStringPair.obj
 0001:00004112       ?Assert@XSerializeEngine@xercesc_3_1@@ABEX_NW4Codes@XMLExcepts@2@@Z 12005112 f i KVStringPair.obj
 0001:0000414e       ?readString@XSerializeEngine@xercesc_3_1@@QAEXAAPA_WAAK@Z 1200514e f i KVStringPair.obj
 0001:00004167       ?readString@XSerializeEngine@xercesc_3_1@@QAEXAAPA_W@Z 12005167 f i KVStringPair.obj
 0001:00004183       ?readString@XSerializeEngine@xercesc_3_1@@QAEXAAPAEAAK@Z 12005183 f i KVStringPair.obj
 0001:0000419c       ?readString@XSerializeEngine@xercesc_3_1@@QAEXAAPAE@Z 1200519c f i KVStringPair.obj
 0001:000041b7       ?getBufCur@XSerializeEngine@xercesc_3_1@@QBEKXZ 120051b7 f i KVStringPair.obj
 0001:000041be       ?getBufCurAccumulated@XSerializeEngine@xercesc_3_1@@QBEKXZ 120051be f i KVStringPair.obj
 0001:000041d6       ?getBufCount@XSerializeEngine@xercesc_3_1@@QBEKXZ 120051d6 f i KVStringPair.obj
 0001:000041d6       ?getCanonicalRepresentation@PSVIItem@xercesc_3_1@@QBEPB_WXZ 120051d6 f i PSVIAttribute.obj
 0001:000041d6       ?getCompositor@XSModelGroup@xercesc_3_1@@QBE?AW4COMPOSITOR_TYPE@12@XZ 120051d6 f i XSModelGroup.obj
 0001:000041d6       ?getConstraintType@XSWildcard@xercesc_3_1@@QBE?AW4NAMESPACE_CONSTRAINT@12@XZ 120051d6 f i XSComplexTypeDefinition.obj
 0001:000041d6       ?getContentSpec@XercesGroupInfo@xercesc_3_1@@QBEPAVContentSpecNode@2@XZ 120051d6 f i XMLGrammarPoolImpl.obj
 0001:000041d6       ?getCurrentSchemaURL@SchemaInfo@xercesc_3_1@@QBEPA_WXZ 120051d6 f i IGXMLScanner.obj
 0001:000041d6       ?getData@ModifierOp@xercesc_3_1@@UBEHXZ 120051d6 f i Op.obj
 0001:000041d6       ?getFacetKind@XSFacet@xercesc_3_1@@QBE?AW4FACET@XSSimpleTypeDefinition@2@XZ 120051d6 f i XSFacet.obj
 0001:000041d6       ?getFacetKind@XSMultiValueFacet@xercesc_3_1@@QBE?AW4FACET@XSSimpleTypeDefinition@2@XZ 120051d6 f i XSMultiValueFacet.obj
 0001:000041d6       ?getFilter@DOMLSParserImpl@xercesc_3_1@@UBEPBVDOMLSParserFilter@2@XZ 120051d6 f i DOMLSParserImpl.obj
 0001:000041d6       ?getFilter@DOMLSSerializerImpl@xercesc_3_1@@UBEPAVDOMLSSerializerFilter@2@XZ 120051d6 f i DOMLSSerializerImpl.obj
 0001:000041d6       ?getFinalSet@ComplexTypeInfo@xercesc_3_1@@QBEHXZ 120051d6 f i XMLElementDecl.obj
 0001:000041d6       ?getFirstChild@DOMAttrImpl@xercesc_3_1@@UBEPAVDOMNode@2@XZ 120051d6 f i DOMAttrImpl.obj
 0001:000041d6       ?getFirstChild@DOMDocumentFragmentImpl@xercesc_3_1@@UBEPAVDOMNode@2@XZ 120051d6 f i DOMDocumentFragmentImpl.obj
 0001:000041d6       ?getFirstChild@DOMDocumentImpl@xercesc_3_1@@UBEPAVDOMNode@2@XZ 120051d6 f i DOMDocumentImpl.obj
 0001:000041d6       ?getFirstChild@DOMDocumentTypeImpl@xercesc_3_1@@UBEPAVDOMNode@2@XZ 120051d6 f i DOMDocumentTypeImpl.obj
 0001:000041d6       ?getFirstChild@DOMElementImpl@xercesc_3_1@@UBEPAVDOMNode@2@XZ 120051d6 f i DOMElementImpl.obj
 0001:000041d6       ?getFirstChild@DOMEntityReferenceImpl@xercesc_3_1@@UBEPAVDOMNode@2@XZ 120051d6 f i DOMEntityReferenceImpl.obj
 0001:000041d6       ?getFixed@DatatypeValidator@xercesc_3_1@@IBEHXZ 120051d6 f i XMLAttr.obj
 0001:000041d6       ?getFormattedString@XMLBigDecimal@xercesc_3_1@@UBEPB_WXZ 120051d6 f i XMLAbstractDoubleFloat.obj
 0001:000041d6       ?getGrammar@DTDValidator@xercesc_3_1@@UBEPAVGrammar@2@XZ 120051d6 f i DGXMLScanner.obj
 0001:000041d6       ?getId@XMLAttDef@xercesc_3_1@@QBEKXZ 120051d6 f i XMLAttDef.obj
 0001:000041d6       ?getLocator@XMLResourceIdentifier@xercesc_3_1@@QBEPBVLocator@2@XZ 120051d6 f i DGXMLScanner.obj
 0001:000041d6       ?getMemoryManager@?$BaseRefVectorOf@V?$RefHashTableOf@VValueStore@xercesc_3_1@@UPtrHasher@2@@xercesc_3_1@@@xercesc_3_1@@QBEPAVMemoryManager@2@XZ 120051d6 f i ValueStoreCache.obj
 0001:000041d6       ?getMemoryManager@?$BaseRefVectorOf@VDOMBuffer@xercesc_3_1@@@xercesc_3_1@@QBEPAVMemoryManager@2@XZ 120051d6 f i DOMDocumentImpl.obj
 0001:000041d6       ?getMemoryManager@?$BaseRefVectorOf@VXMLEntityDecl@xercesc_3_1@@@xercesc_3_1@@QBEPAVMemoryManager@2@XZ 120051d6 f i ReaderMgr.obj
 0001:000041d6       ?getMemoryManager@?$BaseRefVectorOf@VXMLReader@xercesc_3_1@@@xercesc_3_1@@QBEPAVMemoryManager@2@XZ 120051d6 f i ReaderMgr.obj
 0001:000041d6       ?getMemoryManager@TokenFactory@xercesc_3_1@@QBEPAVMemoryManager@2@XZ 120051d6 f i ASCIIRangeFactory.obj
 0001:000041d6       ?getNoParen@RegxParser@xercesc_3_1@@QBEHXZ 120051d6 f i ParserForXMLSchema.obj
 0001:000041d6       ?getNotationName@XMLEntityDecl@xercesc_3_1@@QBEPB_WXZ 120051d6 f i XMLDTDDescription.obj
 0001:000041d6       ?getParameterNames@DOMConfigurationImpl@xercesc_3_1@@UBEPBVDOMStringList@2@XZ 120051d6 f i DOMConfigurationImpl.obj
 0001:000041d6       ?getParent@SAX2XMLFilterImpl@xercesc_3_1@@UBEPAVSAX2XMLReader@2@XZ 120051d6 f i SAX2XMLFilterImpl.obj
 0001:000041d6       ?getPath@XMLURL@xercesc_3_1@@QBEPB_WXZ 120051d6 f i PlatformUtils.obj
 0001:000041d6       ?getPrefix@QName@xercesc_3_1@@QAEPA_WXZ 120051d6 f i QName.obj
 0001:000041d6       ?getPrefix@QName@xercesc_3_1@@QBEPB_WXZ 120051d6 f i QName.obj
 0001:000041d6       ?getRawData@XMLBigDecimal@xercesc_3_1@@UBEPA_WXZ 120051d6 f i XMLAbstractDoubleFloat.obj
 0001:000041d6       ?getRegBasedAuthority@XMLUri@xercesc_3_1@@QBEPB_WXZ 120051d6 f i XMLString.obj
 0001:000041d6       ?getSecond@ContentSpecNode@xercesc_3_1@@QAEPAV12@XZ 120051d6 f i XMLGrammarPoolImpl.obj
 0001:000041d6       ?getSecond@ContentSpecNode@xercesc_3_1@@QBEPBV12@XZ 120051d6 f i XMLGrammarPoolImpl.obj
 0001:000041d6       ?getSystemId@DOMLSInputImpl@xercesc_3_1@@UBEPB_WXZ 120051d6 f i DOMImplementationImpl.obj
 0001:000041d6       ?getSystemId@DOMNotationImpl@xercesc_3_1@@UBEPB_WXZ 120051d6 f i DOMNotationImpl.obj
 0001:000041d6       ?getSystemId@XMLNotationDecl@xercesc_3_1@@QBEPB_WXZ 120051d6 f i XMLDTDDescription.obj
 0001:000041d6       ?getTermType@XSParticle@xercesc_3_1@@QBE?AW4TERM_TYPE@12@XZ 120051d6 f i XSComplexTypeDefinition.obj
 0001:000041d6       ?getTriggeringComponent@XMLSchemaDescriptionImpl@xercesc_3_1@@UBEPBVQName@2@XZ 120051d6 f i XMLSchemaDescriptionImpl.obj
 0001:000041d6       ?getType@DOMErrorImpl@xercesc_3_1@@UBEPB_WXZ 120051d6 f i DOMLSParserImpl.obj
 0001:000041d6       ?getTypeCategory@XSTypeDefinition@xercesc_3_1@@QBE?AW4TYPE_CATEGORY@12@XZ 120051d6 f i XMLAttr.obj
 0001:000041d6       ?getValidatingMemberType@ValidationContextImpl@xercesc_3_1@@UBEPAVDatatypeValidator@2@XZ 120051d6 f i ValidationContextImpl.obj
 0001:000041da       ?getBlockDefault@SchemaInfo@xercesc_3_1@@QBEHXZ 120051da f i IGXMLScanner.obj
 0001:000041da       ?getBlockSize@XMLTranscoder@xercesc_3_1@@QBEKXZ 120051da f i PlatformUtils.obj
 0001:000041da       ?getBufMgr@XMLValidator@xercesc_3_1@@IAEPAVXMLBufferMgr@2@XZ 120051da f i XMLValidator.obj
 0001:000041da       ?getBufMgr@XMLValidator@xercesc_3_1@@IBEPBVXMLBufferMgr@2@XZ 120051da f i XMLValidator.obj
 0001:000041da       ?getByteStream@DOMLSOutputImpl@xercesc_3_1@@UBEPAVXMLFormatTarget@2@XZ 120051da f i DOMImplementationImpl.obj
 0001:000041da       ?getCurrentEntity@ReaderMgr@xercesc_3_1@@QAEPAVXMLEntityDecl@2@XZ 120051da f i ReaderMgr.obj
 0001:000041da       ?getCurrentEntity@ReaderMgr@xercesc_3_1@@QBEPBVXMLEntityDecl@2@XZ 120051da f i ReaderMgr.obj
 0001:000041da       ?getDefaultType@XMLAttDef@xercesc_3_1@@QBE?AW4DefAttTypes@12@XZ 120051da f i XMLAttDef.obj
 0001:000041da       ?getDocument@DOMParentNode@xercesc_3_1@@QBEPAVDOMDocument@2@XZ 120051da f i DOMParentNode.obj
 0001:000041da       ?getEmptyNamespaceId@NamespaceScope@xercesc_3_1@@QBEIXZ 120051da f i XMLGrammarPoolImpl.obj
 0001:000041da       ?getEncodingName@XMLFormatter@xercesc_3_1@@QBEPB_WXZ 120051da f i LocalFileFormatTarget.obj
 0001:000041da       ?getEntityExpansionLimit@SecurityManager@xercesc_3_1@@UBEKXZ 120051da f i XMLValidator.obj
 0001:000041da       ?getId@XMLEntityDecl@xercesc_3_1@@QBEKXZ 120051da f i XMLDTDDescription.obj
 0001:000041da       ?getId@XMLNotationDecl@xercesc_3_1@@QBEKXZ 120051da f i XMLDTDDescription.obj
 0001:000041da       ?getIdentityConstraintName@IdentityConstraint@xercesc_3_1@@QBEPA_WXZ 120051da f i XMLElementDecl.obj
 0001:000041da       ?getMemoryManager@InputSource@xercesc_3_1@@QBEPAVMemoryManager@2@XZ 120051da f i LocalFileInputSource.obj
 0001:000041da       ?getMemoryManager@RegxParser@xercesc_3_1@@IBEPAVMemoryManager@2@XZ 120051da f i ParserForXMLSchema.obj
 0001:000041da       ?getMemoryManager@XMLAttDefList@xercesc_3_1@@QBEPAVMemoryManager@2@XZ 120051da f i XMLAttDefList.obj
 0001:000041da       ?getMemoryManager@XMLElementDecl@xercesc_3_1@@QBEPAVMemoryManager@2@XZ 120051da f i XMLDTDDescription.obj
 0001:000041da       ?getMemoryManager@XMLGrammarDescription@xercesc_3_1@@QBEPAVMemoryManager@2@XZ 120051da f i XMLDTDDescription.obj
 0001:000041da       ?getMemoryManager@XMLGrammarPool@xercesc_3_1@@QAEPAVMemoryManager@2@XZ 120051da f i XMLGrammarPoolImpl.obj
 0001:000041da       ?getMemoryManager@XMLURL@xercesc_3_1@@QBEPAVMemoryManager@2@XZ 120051da f i PlatformUtils.obj
 0001:000041da       ?getMessage@SAXException@xercesc_3_1@@UBEPB_WXZ 120051da f i XSAnnotation.obj
 0001:000041da       ?getNamespaces@XSModel@xercesc_3_1@@QAEPAV?$RefArrayVectorOf@_W@2@XZ 120051da f i XMLGrammarPoolImpl.obj
 0001:000041da       ?getNextSibling@DOMChildNode@xercesc_3_1@@QBEPAVDOMNode@2@XZ 120051da f i DOMChildNode.obj
 0001:000041da       ?getOwnerDocument@DOMParentNode@xercesc_3_1@@QBEPAVDOMDocument@2@XZ 120051da f i DOMParentNode.obj
 0001:000041da       ?getPort@XMLUri@xercesc_3_1@@QBEHXZ 120051da f i XMLString.obj
 0001:000041da       ?getPublicId@XMLResourceIdentifier@xercesc_3_1@@QBEPB_WXZ 120051da f i DGXMLScanner.obj
 0001:000041da       ?getRangeMap@RangeTokenMap@xercesc_3_1@@IBEPAV?$RefHashTableOf@VRangeFactory@xercesc_3_1@@UStringHasher@2@@2@XZ 120051da f i ASCIIRangeFactory.obj
 0001:000041da       ?getReaderNum@EndOfEntityException@xercesc_3_1@@QBEKXZ 120051da f i DGXMLScanner.obj
 0001:000041da       ?getResultType@DOMXPathResultImpl@xercesc_3_1@@UBE?AW4ResultType@DOMXPathResult@2@XZ 120051da f i DOMXPathResultImpl.obj
 0001:000041da       ?getRoot@DOMNodeIteratorImpl@xercesc_3_1@@UAEPAVDOMNode@2@XZ 120051da f i DOMNodeIteratorImpl.obj
 0001:000041da       ?getSign@XMLBigDecimal@xercesc_3_1@@UBEHXZ 120051da f i XMLAbstractDoubleFloat.obj
 0001:000041da       ?getStorerLevel@XSerializeEngine@xercesc_3_1@@QBEIXZ 120051da f i KVStringPair.obj
 0001:000041da       ?getStringData@DOMLSInputImpl@xercesc_3_1@@UBEPB_WXZ 120051da f i DOMImplementationImpl.obj
 0001:000041da       ?getStringPool@GrammarResolver@xercesc_3_1@@QAEPAVXMLStringPool@2@XZ 120051da f i XMLValidator.obj
 0001:000041da       ?getTargetNamespace@SchemaGrammar@xercesc_3_1@@UBEPB_WXZ 120051da f i XMLGrammarPoolImpl.obj
 0001:000041da       ?getTokenType@Token@xercesc_3_1@@QBE?AW4tokType@12@XZ 120051da f i ASCIIRangeFactory.obj
 0001:000041da       ?getType@XMLAttr@xercesc_3_1@@QBE?AW4AttTypes@XMLAttDef@2@XZ 120051da f i XMLAttr.obj
 0001:000041da       ?getType@XSObject@xercesc_3_1@@QBE?AW4COMPONENT_TYPE@XSConstants@2@XZ 120051da f i XMLAttr.obj
 0001:000041da       ?getUserDefinedRegistry@DatatypeValidatorFactory@xercesc_3_1@@QBEPAV?$RefHashTableOf@VDatatypeValidator@xercesc_3_1@@UStringHasher@2@@2@XZ 120051da f i XMLGrammarPoolImpl.obj
 0001:000041da       ?getWhatToShow@DOMTreeWalkerImpl@xercesc_3_1@@UAEKXZ 120051da f i DOMTreeWalkerImpl.obj
 0001:000041da       ?getXPath@IC_Field@xercesc_3_1@@QBEPAVXercesXPath@2@XZ 120051da f i XMLElementDecl.obj
 0001:000041da       ?getXPath@IC_Selector@xercesc_3_1@@QBEPAVXercesXPath@2@XZ 120051da f i XSIDCDefinition.obj
 0001:000041da       ?length@TranscodeFromStr@xercesc_3_1@@QBEKXZ 120051da f i PlatformUtils.obj
 0001:000041da       ?length@TranscodeToStr@xercesc_3_1@@QBEKXZ 120051da f i PlatformUtils.obj
 0001:000041da       ?size@?$ValueVectorOf@PAX@xercesc_3_1@@QBEKXZ 120051da f i XSerializeEngine.obj
 0001:000041de       ??4DOMNodeImpl@xercesc_3_1@@QAEAAV01@ABV01@@Z 120051de f i AbstractDOMParser.obj
 0001:000041de       ??4XProtoType@xercesc_3_1@@QAEAAV01@ABV01@@Z 120051de f i KVStringPair.obj
 0001:000041f4       ??0EndOfEntityException@xercesc_3_1@@QAE@ABV01@@Z 120051f4 f i DGXMLScanner.obj
 0001:000041f4       ??0XMLPScanToken@xercesc_3_1@@QAE@ABV01@@Z 120051f4 f i XSAnnotation.obj
 0001:000041f4       ??4XProtoType@xercesc_3_1@@QAEAAV01@$$QAV01@@Z 120051f4 f i KVStringPair.obj
 0001:0000420a       ??1Grammar@xercesc_3_1@@UAE@XZ 1200520a f i XMLDTDDescription.obj
 0001:0000420a       ??1XMLAttDefList@xercesc_3_1@@UAE@XZ 1200520a f i XMLAttDefList.obj
 0001:0000420a       ??1XMLDTDDescription@xercesc_3_1@@UAE@XZ 1200520a f i XMLDTDDescription.obj
 0001:0000420a       ??1XMLGrammarDescription@xercesc_3_1@@UAE@XZ 1200520a f i XMLGrammarDescription.obj
 0001:0000420a       ??1XMLNumber@xercesc_3_1@@UAE@XZ 1200520a f i XMLNumber.obj
 0001:0000420a       ??1XMLSchemaDescription@xercesc_3_1@@UAE@XZ 1200520a f i XMLSchemaDescription.obj
 0001:0000420a       ??1XSerializable@xercesc_3_1@@UAE@XZ 1200520a f i KVStringPair.obj
 0001:00004211       ??0XSerializable@xercesc_3_1@@IAE@XZ 12005211 f i KVStringPair.obj
 0001:0000421a       ??0XSerializable@xercesc_3_1@@IAE@ABV01@@Z 1200521a f i KVStringPair.obj
 0001:00004225       ??_EXSerializable@xercesc_3_1@@UAEPAXI@Z 12005225 f i KVStringPair.obj
 0001:000042b1       ?checkAdditionalFacetConstraints@AbstractNumericFacetValidator@xercesc_3_1@@MBEXQAVMemoryManager@2@@Z 120052b1 f i AbstractNumericFacetValidator.obj
 0001:000042b1       ?checkAdditionalFacetConstraints@AbstractStringValidator@xercesc_3_1@@MBEXQAVMemoryManager@2@@Z 120052b1 f i AbstractStringValidator.obj
 0001:000042b1       ?checkAdditionalFacetConstraintsBase@AbstractNumericFacetValidator@xercesc_3_1@@MBEXQAVMemoryManager@2@@Z 120052b1 f i AbstractNumericFacetValidator.obj
 0001:000042b1       ?doctypeComment@SAXParser@xercesc_3_1@@UAEXQB_W@Z 120052b1 f i SAXParser.obj
 0001:000042b1       ?endAttList@SAX2XMLReaderImpl@xercesc_3_1@@UAEXABVDTDElementDecl@2@@Z 120052b1 f i SAX2XMLReaderImpl.obj
 0001:000042b1       ?endAttList@SAXParser@xercesc_3_1@@UAEXABVDTDElementDecl@2@@Z 120052b1 f i SAXParser.obj
 0001:000042b1       ?endElement@HandlerBase@xercesc_3_1@@UAEXQB_W@Z 120052b1 f i Dummy.obj
 0001:000042b1       ?endEntity@DefaultHandler@xercesc_3_1@@UAEXQB_W@Z 120052b1 f i sax2Dummy.obj
 0001:000042b1       ?endEntityReference@XSDDOMParser@xercesc_3_1@@UAEXABVXMLEntityDecl@2@@Z 120052b1 f i XSDDOMParser.obj
 0001:000042b1       ?endInputSource@DOMLSParserImpl@xercesc_3_1@@UAEXABVInputSource@2@@Z 120052b1 f i DOMLSParserImpl.obj
 0001:000042b1       ?endInputSource@SAX2XMLReaderImpl@xercesc_3_1@@UAEXABVInputSource@2@@Z 120052b1 f i SAX2XMLReaderImpl.obj
 0001:000042b1       ?endInputSource@SAXParser@xercesc_3_1@@UAEXABVInputSource@2@@Z 120052b1 f i SAXParser.obj
 0001:000042b1       ?endInputSource@XercesDOMParser@xercesc_3_1@@UAEXABVInputSource@2@@Z 120052b1 f i XSAnnotation.obj
 0001:000042b1       ?endPrefixMapping@DefaultHandler@xercesc_3_1@@UAEXQB_W@Z 120052b1 f i sax2Dummy.obj
 0001:000042b1       ?error@DefaultHandler@xercesc_3_1@@UAEXABVSAXParseException@2@@Z 120052b1 f i sax2Dummy.obj
 0001:000042b1       ?error@HandlerBase@xercesc_3_1@@UAEXABVSAXParseException@2@@Z 120052b1 f i Dummy.obj
 0001:000042b1       ?installAdvDocHandler@SAX2XMLFilterImpl@xercesc_3_1@@UAEXQAVXMLDocumentHandler@2@@Z 120052b1 f i SAX2XMLFilterImpl.obj
 0001:000042b1       ?serialize@Grammar@xercesc_3_1@@UAEXAAVXSerializeEngine@2@@Z 120052b1 f i Grammar.obj
 0001:000042b1       ?serialize@XMLAttDefList@xercesc_3_1@@UAEXAAVXSerializeEngine@2@@Z 120052b1 f i XMLAttDefList.obj
 0001:000042b1       ?serialize@XMLDTDDescription@xercesc_3_1@@UAEXAAVXSerializeEngine@2@@Z 120052b1 f i XMLDTDDescription.obj
 0001:000042b1       ?serialize@XMLGrammarDescription@xercesc_3_1@@UAEXAAVXSerializeEngine@2@@Z 120052b1 f i XMLGrammarDescription.obj
 0001:000042b1       ?serialize@XMLNumber@xercesc_3_1@@UAEXAAVXSerializeEngine@2@@Z 120052b1 f i XMLNumber.obj
 0001:000042b1       ?serialize@XMLSchemaDescription@xercesc_3_1@@UAEXAAVXSerializeEngine@2@@Z 120052b1 f i XMLSchemaDescription.obj
 0001:000042b1       ?serialize@XSerializable@xercesc_3_1@@UAEXAAVXSerializeEngine@2@@Z 120052b1 f i KVStringPair.obj
 0001:000042b1       ?setBaseURI@Wrapper4InputSource@xercesc_3_1@@UAEXQB_W@Z 120052b1 f i Wrapper4InputSource.obj
 0001:000042b1       ?setByteStream@Wrapper4InputSource@xercesc_3_1@@UAEXPAVInputSource@2@@Z 120052b1 f i Wrapper4InputSource.obj
 0001:000042b1       ?setContentModel@SchemaElementDecl@xercesc_3_1@@UAEXQAVXMLContentModel@2@@Z 120052b1 f i XMLElementDecl.obj
 0001:000042b1       ?setContentSpec@SchemaElementDecl@xercesc_3_1@@UAEXPAVContentSpecNode@2@@Z 120052b1 f i XMLElementDecl.obj
 0001:000042b1       ?setDeclarationHandler@SAX2XMLFilterImpl@xercesc_3_1@@UAEXQAVDeclHandler@2@@Z 120052b1 f i SAX2XMLFilterImpl.obj
 0001:000042b1       ?setDocumentLocator@DefaultHandler@xercesc_3_1@@UAEXQBVLocator@2@@Z 120052b1 f i sax2Dummy.obj
 0001:000042b1       ?setDocumentLocator@HandlerBase@xercesc_3_1@@UAEXQBVLocator@2@@Z 120052b1 f i Dummy.obj
 0001:000042b1       ?setElemStack@ValidationContext@xercesc_3_1@@UAEXPAVElemStack@2@@Z 120052b1 f i XMLAttr.obj
 0001:000042b1       ?setEnclosingCT@SchemaAttDef@xercesc_3_1@@QAEXPAVComplexTypeInfo@2@@Z 120052b1 f i XMLElementDecl.obj
 0001:000042b1       ?setInputBufferSize@SAX2XMLReader@xercesc_3_1@@UAEXK@Z 120052b1 f i XSAnnotation.obj
 0001:000042b1       ?setLexicalHandler@SAX2XMLFilterImpl@xercesc_3_1@@UAEXQAVLexicalHandler@2@@Z 120052b1 f i SAX2XMLFilterImpl.obj
 0001:000042b1       ?setMax@Token@xercesc_3_1@@UAEXH@Z 120052b1 f i ASCIIRangeFactory.obj
 0001:000042b1       ?setMin@Token@xercesc_3_1@@UAEXH@Z 120052b1 f i ASCIIRangeFactory.obj
 0001:000042b1       ?setNamespaceScope@ValidationContext@xercesc_3_1@@UAEXPAVNamespaceScope@2@@Z 120052b1 f i XMLAttr.obj
 0001:000042b1       ?setNodeValue@DOMDocumentFragmentImpl@xercesc_3_1@@UAEXPB_W@Z 120052b1 f i DOMDocumentFragmentImpl.obj
 0001:000042b1       ?setNodeValue@DOMDocumentImpl@xercesc_3_1@@UAEXPB_W@Z 120052b1 f i DOMDocumentImpl.obj
 0001:000042b1       ?setNodeValue@DOMDocumentTypeImpl@xercesc_3_1@@UAEXPB_W@Z 120052b1 f i DOMDocumentTypeImpl.obj
 0001:000042b1       ?setNodeValue@DOMElementImpl@xercesc_3_1@@UAEXPB_W@Z 120052b1 f i DOMElementImpl.obj
 0001:000042b1       ?setNodeValue@DOMEntityImpl@xercesc_3_1@@UAEXPB_W@Z 120052b1 f i DOMEntityImpl.obj
 0001:000042b1       ?setNodeValue@DOMEntityReferenceImpl@xercesc_3_1@@UAEXPB_W@Z 120052b1 f i DOMEntityReferenceImpl.obj
 0001:000042b1       ?setNodeValue@DOMNodeImpl@xercesc_3_1@@QAEXPB_W@Z 120052b1 f i DOMNodeImpl.obj
 0001:000042b1       ?setNodeValue@DOMNotationImpl@xercesc_3_1@@UAEXPB_W@Z 120052b1 f i DOMNotationImpl.obj
 0001:000042b1       ?setScanner@ValidationContext@xercesc_3_1@@UAEXPAVXMLScanner@2@@Z 120052b1 f i XMLAttr.obj
 0001:000042b1       ?setStringData@Wrapper4InputSource@xercesc_3_1@@UAEXPB_W@Z 120052b1 f i Wrapper4InputSource.obj
 0001:000042b1       ?setSystemId@XMLDTDDescription@xercesc_3_1@@UAEXQB_W@Z 120052b1 f i XMLDTDDescription.obj
 0001:000042b1       ?skippedEntity@DefaultHandler@xercesc_3_1@@UAEXQB_W@Z 120052b1 f i sax2Dummy.obj
 0001:000042b1       ?startAttList@SAX2XMLReaderImpl@xercesc_3_1@@UAEXABVDTDElementDecl@2@@Z 120052b1 f i SAX2XMLReaderImpl.obj
 0001:000042b1       ?startAttList@SAXParser@xercesc_3_1@@UAEXABVDTDElementDecl@2@@Z 120052b1 f i SAXParser.obj
 0001:000042b1       ?startEntity@DefaultHandler@xercesc_3_1@@UAEXQB_W@Z 120052b1 f i sax2Dummy.obj
 0001:000042b1       ?startEntityReference@XSDDOMParser@xercesc_3_1@@UAEXABVXMLEntityDecl@2@@Z 120052b1 f i XSDDOMParser.obj
 0001:000042b1       ?startInputSource@DOMLSParserImpl@xercesc_3_1@@UAEXABVInputSource@2@@Z 120052b1 f i DOMLSParserImpl.obj
 0001:000042b1       ?startInputSource@SAX2XMLReaderImpl@xercesc_3_1@@UAEXABVInputSource@2@@Z 120052b1 f i SAX2XMLReaderImpl.obj
 0001:000042b1       ?startInputSource@SAXParser@xercesc_3_1@@UAEXABVInputSource@2@@Z 120052b1 f i SAXParser.obj
 0001:000042b1       ?startInputSource@XercesDOMParser@xercesc_3_1@@UAEXABVInputSource@2@@Z 120052b1 f i XSAnnotation.obj
 0001:000042b1       ?trace@XSerializeEngine@xercesc_3_1@@QBEXPAD@Z 120052b1 f i XSerializeEngine.obj
 0001:000042b1       ?validateElement@DTDValidator@xercesc_3_1@@UAEXPBVXMLElementDecl@2@@Z 120052b1 f i DGXMLScanner.obj
 0001:000042b1       ?warning@DefaultHandler@xercesc_3_1@@UAEXABVSAXParseException@2@@Z 120052b1 f i sax2Dummy.obj
 0001:000042b1       ?warning@HandlerBase@xercesc_3_1@@UAEXABVSAXParseException@2@@Z 120052b1 f i Dummy.obj
 0001:000042b4       ??_FKVStringPair@xercesc_3_1@@QAEXXZ 120052b4 f i KVStringPair.obj
 0001:000042c0       ??_EKVStringPair@xercesc_3_1@@UAEPAXI@Z 120052c0 f i KVStringPair.obj
 0001:00004356       ?getAttName@XMLAttr@xercesc_3_1@@QBEPAVQName@2@XZ 12005356 f i XMLAttr.obj
 0001:00004356       ?getBlockSet@ComplexTypeInfo@xercesc_3_1@@QBEHXZ 12005356 f i XMLElementDecl.obj
 0001:00004356       ?getBuiltinDatatypeValidatorFactory@GrammarResolver@xercesc_3_1@@QAEPAVDatatypeValidatorFactory@2@XZ 12005356 f i XMLValidator.obj
 0001:00004356       ?getChild@ChildOp@xercesc_3_1@@UBEPBVOp@2@XZ 12005356 f i Op.obj
 0001:00004356       ?getData@CharOp@xercesc_3_1@@UBEHXZ 12005356 f i Op.obj
 0001:00004356       ?getEntityDeclPool@DTDGrammar@xercesc_3_1@@QAEPAV?$NameIdPool@VDTDEntityDecl@xercesc_3_1@@@2@XZ 12005356 f i XMLGrammarPoolImpl.obj
 0001:00004356       ?getEntityDeclPool@DTDGrammar@xercesc_3_1@@QBEPBV?$NameIdPool@VDTDEntityDecl@xercesc_3_1@@@2@XZ 12005356 f i XMLGrammarPoolImpl.obj
 0001:00004356       ?getFacetsDefined@DatatypeValidator@xercesc_3_1@@IBEHXZ 12005356 f i XMLAttr.obj
 0001:00004356       ?getFilter@DOMNodeIteratorImpl@xercesc_3_1@@UAEPAVDOMNodeFilter@2@XZ 12005356 f i DOMNodeIteratorImpl.obj
 0001:00004356       ?getFirst@ContentSpecNode@xercesc_3_1@@QAEPAV12@XZ 12005356 f i XMLGrammarPoolImpl.obj
 0001:00004356       ?getFirst@ContentSpecNode@xercesc_3_1@@QBEPBV12@XZ 12005356 f i XMLGrammarPoolImpl.obj
 0001:00004356       ?getHost@XMLUri@xercesc_3_1@@QBEPB_WXZ 12005356 f i XMLString.obj
 0001:00004356       ?getId@XMLElementDecl@xercesc_3_1@@QBEKXZ 12005356 f i XMLDTDDescription.obj
 0001:00004356       ?getId@XSObject@xercesc_3_1@@UBEKXZ 12005356 f i XSObject.obj
 0001:00004356       ?getKey@XMLEntityDecl@xercesc_3_1@@QBEPB_WXZ 12005356 f i XMLDTDDescription.obj
 0001:00004356       ?getLiteral@StringOp@xercesc_3_1@@UBEPB_WXZ 12005356 f i Op.obj
 0001:00004356       ?getLocation@DOMErrorImpl@xercesc_3_1@@UBEPAVDOMLocator@2@XZ 12005356 f i DOMLSParserImpl.obj
 0001:00004356       ?getLocationHints@XMLSchemaDescriptionImpl@xercesc_3_1@@UBEPBV?$RefArrayVectorOf@_W@2@XZ 12005356 f i XMLSchemaDescriptionImpl.obj
 0001:00004356       ?getMax@ClosureToken@xercesc_3_1@@UBEHXZ 12005356 f i ClosureToken.obj
 0001:00004356       ?getMemoryManager@?$ValueVectorOf@H@xercesc_3_1@@QBEPAVMemoryManager@2@XZ 12005356 f i IGXMLScanner.obj
 0001:00004356       ?getMemoryManager@?$ValueVectorOf@I@xercesc_3_1@@QBEPAVMemoryManager@2@XZ 12005356 f i SAX2XMLReaderImpl.obj
 0001:00004356       ?getMemoryManager@?$ValueVectorOf@K@xercesc_3_1@@QBEPAVMemoryManager@2@XZ 12005356 f i SAX2XMLReaderImpl.obj
 0001:00004356       ?getMemoryManager@?$ValueVectorOf@PAVComplexTypeInfo@xercesc_3_1@@@xercesc_3_1@@QBEPAVMemoryManager@2@XZ 12005356 f i IGXMLScanner.obj
 0001:00004356       ?getMemoryManager@?$ValueVectorOf@URE_RuntimeContext@xercesc_3_1@@@xercesc_3_1@@QBEPAVMemoryManager@2@XZ 12005356 f i RegularExpression.obj
 0001:00004356       ?getMemoryManager@?$ValueVectorOf@_N@xercesc_3_1@@QBEPAVMemoryManager@2@XZ 12005356 f i IGXMLScanner.obj
 0001:00004356       ?getName@XMLEntityDecl@xercesc_3_1@@QBEPB_WXZ 12005356 f i XMLDTDDescription.obj
 0001:00004356       ?getNameSpace@XMLResourceIdentifier@xercesc_3_1@@QBEPB_WXZ 12005356 f i DGXMLScanner.obj
 0001:00004356       ?getNamespaceId@XercesGroupInfo@xercesc_3_1@@QBEIXZ 12005356 f i XMLGrammarPoolImpl.obj
 0001:00004356       ?getNamespaceScope@SchemaInfo@xercesc_3_1@@QBEPAVNamespaceScope@2@XZ 12005356 f i IGXMLScanner.obj
 0001:00004356       ?getNextSibling@DOMCDATASectionImpl@xercesc_3_1@@UBEPAVDOMNode@2@XZ 12005356 f i DOMCDATASectionImpl.obj
 0001:00004356       ?getNextSibling@DOMCommentImpl@xercesc_3_1@@UBEPAVDOMNode@2@XZ 12005356 f i DOMCommentImpl.obj
 0001:00004356       ?getNextSibling@DOMProcessingInstructionImpl@xercesc_3_1@@UBEPAVDOMNode@2@XZ 12005356 f i DOMProcessingInstructionImpl.obj
 0001:00004356       ?getNextSibling@DOMTextImpl@xercesc_3_1@@UBEPAVDOMNode@2@XZ 12005356 f i DOMTextImpl.obj
 0001:00004356       ?getOffset@RegxParser@xercesc_3_1@@QBEKXZ 12005356 f i ParserForXMLSchema.obj
 0001:00004356       ?getOwnerDocument@DOMAttrImpl@xercesc_3_1@@UBEPAVDOMDocument@2@XZ 12005356 f i DOMAttrImpl.obj
 0001:00004356       ?getOwnerDocument@DOMDocumentFragmentImpl@xercesc_3_1@@UBEPAVDOMDocument@2@XZ 12005356 f i DOMDocumentFragmentImpl.obj
 0001:00004356       ?getOwnerDocument@DOMDocumentTypeImpl@xercesc_3_1@@UBEPAVDOMDocument@2@XZ 12005356 f i DOMDocumentTypeImpl.obj
 0001:00004356       ?getOwnerDocument@DOMElementImpl@xercesc_3_1@@UBEPAVDOMDocument@2@XZ 12005356 f i DOMElementImpl.obj
 0001:00004356       ?getOwnerDocument@DOMEntityImpl@xercesc_3_1@@UBEPAVDOMDocument@2@XZ 12005356 f i DOMEntityImpl.obj
 0001:00004356       ?getOwnerDocument@DOMEntityReferenceImpl@xercesc_3_1@@UBEPAVDOMDocument@2@XZ 12005356 f i DOMEntityReferenceImpl.obj
 0001:00004356       ?getPassword@XMLURL@xercesc_3_1@@QBEPB_WXZ 12005356 f i PlatformUtils.obj
 0001:00004356       ?getPublicId@DOMLSInputImpl@xercesc_3_1@@UBEPB_WXZ 12005356 f i DOMImplementationImpl.obj
 0001:00004356       ?getPublicId@DOMNotationImpl@xercesc_3_1@@UBEPB_WXZ 12005356 f i DOMNotationImpl.obj
 0001:00004356       ?getPublicId@XMLNotationDecl@xercesc_3_1@@QBEPB_WXZ 12005356 f i XMLDTDDescription.obj
 0001:00004356       ?getRoot@DOMTreeWalkerImpl@xercesc_3_1@@UAEPAVDOMNode@2@XZ 12005356 f i DOMTreeWalkerImpl.obj
 0001:00004356       ?getScanner@XMLValidator@xercesc_3_1@@IAEPAVXMLScanner@2@XZ 12005356 f i XMLValidator.obj
 0001:00004356       ?getScanner@XMLValidator@xercesc_3_1@@IBEPBVXMLScanner@2@XZ 12005356 f i XMLValidator.obj
 0001:00004356       ?getSchemaDefault@PSVIItem@xercesc_3_1@@QAEPB_WXZ 12005356 f i PSVIAttribute.obj
 0001:00004356       ?getSchemaLocation@DOMConfigurationImpl@xercesc_3_1@@QBEPB_WXZ 12005356 f i DOMConfigurationImpl.obj
 0001:00004356       ?getString@StringToken@xercesc_3_1@@UBEPB_WXZ 12005356 f i ParserForXMLSchema.obj
 0001:00004356       ?getSystemId@InputSource@xercesc_3_1@@UBEPB_WXZ 12005356 f i LocalFileInputSource.obj
 0001:00004356       ?getToken@RangeOp@xercesc_3_1@@UBEPBVToken@2@XZ 12005356 f i Op.obj
 0001:00004356       ?getTranscoder@XMLFormatter@xercesc_3_1@@QAEPAVXMLTranscoder@2@XZ 12005356 f i LocalFileFormatTarget.obj
 0001:00004356       ?getTranscoder@XMLFormatter@xercesc_3_1@@QBEPBVXMLTranscoder@2@XZ 12005356 f i LocalFileFormatTarget.obj
 0001:00004356       ?getType@XMLAbstractDoubleFloat@xercesc_3_1@@QBE?AW4LiteralType@12@XZ 12005356 f i XMLAbstractDoubleFloat.obj
 0001:00004356       ?getURI@QName@xercesc_3_1@@QBEIXZ 12005356 f i QName.obj
 0001:00004356       ?getValue@KVStringPair@xercesc_3_1@@QAEPA_WXZ 12005356 f i KVStringPair.obj
 0001:00004356       ?getValue@KVStringPair@xercesc_3_1@@QBEPB_WXZ 12005356 f i KVStringPair.obj
 0001:0000435a       ?setKey@KVStringPair@xercesc_3_1@@QAEXQB_W@Z 1200535a f i KVStringPair.obj
 0001:00004379       ?setValue@KVStringPair@xercesc_3_1@@QAEXQB_W@Z 12005379 f i KVStringPair.obj
 0001:00004398       ?setKey@KVStringPair@xercesc_3_1@@QAEXQB_WK@Z 12005398 f i KVStringPair.obj
 0001:000043e8       ?setValue@KVStringPair@xercesc_3_1@@QAEXQB_WK@Z 120053e8 f i KVStringPair.obj
 0001:00004438       ?set@KVStringPair@xercesc_3_1@@QAEXQB_W0@Z 12005438 f i KVStringPair.obj
 0001:0000446b       ?set@KVStringPair@xercesc_3_1@@QAEXQB_WK0K@Z 1200546b f i KVStringPair.obj
 0001:0000448e       ??0KVStringPair@xercesc_3_1@@QAE@QAVMemoryManager@1@@Z 1200548e f   KVStringPair.obj
 0001:000044b1       ??0KVStringPair@xercesc_3_1@@QAE@QB_W0QAVMemoryManager@1@@Z 120054b1 f   KVStringPair.obj
 0001:000044f4       ??0KVStringPair@xercesc_3_1@@QAE@QB_W0KQAVMemoryManager@1@@Z 120054f4 f   KVStringPair.obj
 0001:0000454d       ??0KVStringPair@xercesc_3_1@@QAE@QB_WK0KQAVMemoryManager@1@@Z 1200554d f   KVStringPair.obj
 0001:0000459d       ??0KVStringPair@xercesc_3_1@@QAE@ABV01@@Z 1200559d f   KVStringPair.obj
 0001:000045e5       ??1KVStringPair@xercesc_3_1@@UAE@XZ 120055e5 f   KVStringPair.obj
 0001:0000463f       ?createObject@KVStringPair@xercesc_3_1@@SAPAVXSerializable@2@PAVMemoryManager@2@@Z 1200563f f   KVStringPair.obj
 0001:00004666       ?handlesDTD@DTDValidator@xercesc_3_1@@UBE_NXZ 12005666 f   DGXMLScanner.obj
 0001:00004666       ?handlesSchema@SchemaValidator@xercesc_3_1@@UBE_NXZ 12005666 f   IGXMLScanner.obj
 0001:00004666       ?isAtomic@DatatypeValidator@xercesc_3_1@@UBE_NXZ 12005666 f   XMLAttr.obj
 0001:00004666       ?isRepeatableLeaf@CMRepeatingLeaf@xercesc_3_1@@UBE_NXZ 12005666 f   DFAContentModel.obj
 0001:00004666       ?isSerializable@AbstractNumericFacetValidator@xercesc_3_1@@UBE_NXZ 12005666 f   AbstractNumericFacetValidator.obj
 0001:00004666       ?isSerializable@AbstractNumericValidator@xercesc_3_1@@UBE_NXZ 12005666 f   AbstractNumericValidator.obj
 0001:00004666       ?isSerializable@AbstractStringValidator@xercesc_3_1@@UBE_NXZ 12005666 f   AbstractStringValidator.obj
 0001:00004666       ?isSerializable@AnySimpleTypeDatatypeValidator@xercesc_3_1@@UBE_NXZ 12005666 f   AnySimpleTypeDatatypeValidator.obj
 0001:00004666       ?isSerializable@AnyURIDatatypeValidator@xercesc_3_1@@UBE_NXZ 12005666 f   AnyURIDatatypeValidator.obj
 0001:00004666       ?isSerializable@Base64BinaryDatatypeValidator@xercesc_3_1@@UBE_NXZ 12005666 f   Base64BinaryDatatypeValidator.obj
 0001:00004666       ?isSerializable@BooleanDatatypeValidator@xercesc_3_1@@UBE_NXZ 12005666 f   BooleanDatatypeValidator.obj
 0001:00004666       ?isSerializable@ComplexTypeInfo@xercesc_3_1@@UBE_NXZ 12005666 f   ComplexTypeInfo.obj
 0001:00004666       ?isSerializable@ContentSpecNode@xercesc_3_1@@UBE_NXZ 12005666 f   ContentSpecNode.obj
 0001:00004666       ?isSerializable@DTDAttDef@xercesc_3_1@@UBE_NXZ 12005666 f   DTDAttDef.obj
 0001:00004666       ?isSerializable@DTDAttDefList@xercesc_3_1@@UBE_NXZ 12005666 f   DTDAttDefList.obj
 0001:00004666       ?isSerializable@DTDElementDecl@xercesc_3_1@@UBE_NXZ 12005666 f   DTDElementDecl.obj
 0001:00004666       ?isSerializable@DTDEntityDecl@xercesc_3_1@@UBE_NXZ 12005666 f   DTDEntityDecl.obj
 0001:00004666       ?isSerializable@DTDGrammar@xercesc_3_1@@UBE_NXZ 12005666 f   DTDGrammar.obj
 0001:00004666       ?isSerializable@DatatypeValidator@xercesc_3_1@@UBE_NXZ 12005666 f   DatatypeValidator.obj
 0001:00004666       ?isSerializable@DatatypeValidatorFactory@xercesc_3_1@@UBE_NXZ 12005666 f   DatatypeValidatorFactory.obj
 0001:00004666       ?isSerializable@DateDatatypeValidator@xercesc_3_1@@UBE_NXZ 12005666 f   DateDatatypeValidator.obj
 0001:00004666       ?isSerializable@DateTimeDatatypeValidator@xercesc_3_1@@UBE_NXZ 12005666 f   DateTimeDatatypeValidator.obj
 0001:00004666       ?isSerializable@DateTimeValidator@xercesc_3_1@@UBE_NXZ 12005666 f   DateTimeValidator.obj
 0001:00004666       ?isSerializable@DayDatatypeValidator@xercesc_3_1@@UBE_NXZ 12005666 f   DayDatatypeValidator.obj
 0001:00004666       ?isSerializable@DecimalDatatypeValidator@xercesc_3_1@@UBE_NXZ 12005666 f   DecimalDatatypeValidator.obj
 0001:00004666       ?isSerializable@DoubleDatatypeValidator@xercesc_3_1@@UBE_NXZ 12005666 f   DoubleDatatypeValidator.obj
 0001:00004666       ?isSerializable@DurationDatatypeValidator@xercesc_3_1@@UBE_NXZ 12005666 f   DurationDatatypeValidator.obj
 0001:00004666       ?isSerializable@ENTITYDatatypeValidator@xercesc_3_1@@UBE_NXZ 12005666 f   ENTITYDatatypeValidator.obj
 0001:00004666       ?isSerializable@FloatDatatypeValidator@xercesc_3_1@@UBE_NXZ 12005666 f   FloatDatatypeValidator.obj
 0001:00004666       ?isSerializable@Grammar@xercesc_3_1@@UBE_NXZ 12005666 f   Grammar.obj
 0001:00004666       ?isSerializable@HexBinaryDatatypeValidator@xercesc_3_1@@UBE_NXZ 12005666 f   HexBinaryDatatypeValidator.obj
 0001:00004666       ?isSerializable@IC_Field@xercesc_3_1@@UBE_NXZ 12005666 f   IC_Field.obj
 0001:00004666       ?isSerializable@IC_Key@xercesc_3_1@@UBE_NXZ 12005666 f   IC_Key.obj
 0001:00004666       ?isSerializable@IC_KeyRef@xercesc_3_1@@UBE_NXZ 12005666 f   IC_KeyRef.obj
 0001:00004666       ?isSerializable@IC_Selector@xercesc_3_1@@UBE_NXZ 12005666 f   IC_Selector.obj
 0001:00004666       ?isSerializable@IC_Unique@xercesc_3_1@@UBE_NXZ 12005666 f   IC_Unique.obj
 0001:00004666       ?isSerializable@IDDatatypeValidator@xercesc_3_1@@UBE_NXZ 12005666 f   IDDatatypeValidator.obj
 0001:00004666       ?isSerializable@IDREFDatatypeValidator@xercesc_3_1@@UBE_NXZ 12005666 f   IDREFDatatypeValidator.obj
 0001:00004666       ?isSerializable@IdentityConstraint@xercesc_3_1@@UBE_NXZ 12005666 f   IdentityConstraint.obj
 0001:00004666       ?isSerializable@KVStringPair@xercesc_3_1@@UBE_NXZ 12005666 f   KVStringPair.obj
 0001:00004666       ?isSerializable@ListDatatypeValidator@xercesc_3_1@@UBE_NXZ 12005666 f   ListDatatypeValidator.obj
 0001:00004666       ?isSerializable@MonthDatatypeValidator@xercesc_3_1@@UBE_NXZ 12005666 f   MonthDatatypeValidator.obj
 0001:00004666       ?isSerializable@MonthDayDatatypeValidator@xercesc_3_1@@UBE_NXZ 12005666 f   MonthDayDatatypeValidator.obj
 0001:00004666       ?isSerializable@NCNameDatatypeValidator@xercesc_3_1@@UBE_NXZ 12005666 f   NCNameDatatypeValidator.obj
 0001:00004666       ?isSerializable@NOTATIONDatatypeValidator@xercesc_3_1@@UBE_NXZ 12005666 f   NOTATIONDatatypeValidator.obj
 0001:00004666       ?isSerializable@NameDatatypeValidator@xercesc_3_1@@UBE_NXZ 12005666 f   NameDatatypeValidator.obj
 0001:00004666       ?isSerializable@QName@xercesc_3_1@@UBE_NXZ 12005666 f   QName.obj
 0001:00004666       ?isSerializable@QNameDatatypeValidator@xercesc_3_1@@UBE_NXZ 12005666 f   QNameDatatypeValidator.obj
 0001:00004666       ?isSerializable@SchemaAttDef@xercesc_3_1@@UBE_NXZ 12005666 f   SchemaAttDef.obj
 0001:00004666       ?isSerializable@SchemaAttDefList@xercesc_3_1@@UBE_NXZ 12005666 f   SchemaAttDefList.obj
 0001:00004666       ?isSerializable@SchemaElementDecl@xercesc_3_1@@UBE_NXZ 12005666 f   SchemaElementDecl.obj
 0001:00004666       ?isSerializable@SchemaGrammar@xercesc_3_1@@UBE_NXZ 12005666 f   SchemaGrammar.obj
 0001:00004666       ?isSerializable@StringDatatypeValidator@xercesc_3_1@@UBE_NXZ 12005666 f   StringDatatypeValidator.obj
 0001:00004666       ?isSerializable@TimeDatatypeValidator@xercesc_3_1@@UBE_NXZ 12005666 f   TimeDatatypeValidator.obj
 0001:00004666       ?isSerializable@UnionDatatypeValidator@xercesc_3_1@@UBE_NXZ 12005666 f   UnionDatatypeValidator.obj
 0001:00004666       ?isSerializable@XMLAbstractDoubleFloat@xercesc_3_1@@UBE_NXZ 12005666 f   XMLAbstractDoubleFloat.obj
 0001:00004666       ?isSerializable@XMLAttDef@xercesc_3_1@@UBE_NXZ 12005666 f   XMLAttDef.obj
 0001:00004666       ?isSerializable@XMLAttDefList@xercesc_3_1@@UBE_NXZ 12005666 f   XMLAttDefList.obj
 0001:00004666       ?isSerializable@XMLBigDecimal@xercesc_3_1@@UBE_NXZ 12005666 f   XMLBigDecimal.obj
 0001:00004666       ?isSerializable@XMLDTDDescription@xercesc_3_1@@UBE_NXZ 12005666 f   XMLDTDDescription.obj
 0001:00004666       ?isSerializable@XMLDTDDescriptionImpl@xercesc_3_1@@UBE_NXZ 12005666 f   XMLDTDDescriptionImpl.obj
 0001:00004666       ?isSerializable@XMLDateTime@xercesc_3_1@@UBE_NXZ 12005666 f   XMLDateTime.obj
 0001:00004666       ?isSerializable@XMLDouble@xercesc_3_1@@UBE_NXZ 12005666 f   XMLDouble.obj
 0001:00004666       ?isSerializable@XMLElementDecl@xercesc_3_1@@UBE_NXZ 12005666 f   XMLElementDecl.obj
 0001:00004666       ?isSerializable@XMLEntityDecl@xercesc_3_1@@UBE_NXZ 12005666 f   XMLEntityDecl.obj
 0001:00004666       ?isSerializable@XMLFloat@xercesc_3_1@@UBE_NXZ 12005666 f   XMLFloat.obj
 0001:00004666       ?isSerializable@XMLGrammarDescription@xercesc_3_1@@UBE_NXZ 12005666 f   XMLGrammarDescription.obj
 0001:00004666       ?isSerializable@XMLNotationDecl@xercesc_3_1@@UBE_NXZ 12005666 f   XMLNotationDecl.obj
 0001:00004666       ?isSerializable@XMLNumber@xercesc_3_1@@UBE_NXZ 12005666 f   XMLNumber.obj
 0001:00004666       ?isSerializable@XMLRefInfo@xercesc_3_1@@UBE_NXZ 12005666 f   XMLRefInfo.obj
 0001:00004666       ?isSerializable@XMLSchemaDescription@xercesc_3_1@@UBE_NXZ 12005666 f   XMLSchemaDescription.obj
 0001:00004666       ?isSerializable@XMLSchemaDescriptionImpl@xercesc_3_1@@UBE_NXZ 12005666 f   XMLSchemaDescriptionImpl.obj
 0001:00004666       ?isSerializable@XMLStringPool@xercesc_3_1@@UBE_NXZ 12005666 f   StringPool.obj
 0001:00004666       ?isSerializable@XMLUri@xercesc_3_1@@UBE_NXZ 12005666 f   XMLUri.obj
 0001:00004666       ?isSerializable@XSAnnotation@xercesc_3_1@@UBE_NXZ 12005666 f   XSAnnotation.obj
 0001:00004666       ?isSerializable@XercesAttGroupInfo@xercesc_3_1@@UBE_NXZ 12005666 f   XercesAttGroupInfo.obj
 0001:00004666       ?isSerializable@XercesGroupInfo@xercesc_3_1@@UBE_NXZ 12005666 f   XercesGroupInfo.obj
 0001:00004666       ?isSerializable@XercesLocationPath@xercesc_3_1@@UBE_NXZ 12005666 f   XercesXPath.obj
 0001:00004666       ?isSerializable@XercesNodeTest@xercesc_3_1@@UBE_NXZ 12005666 f   XercesXPath.obj
 0001:00004666       ?isSerializable@XercesStep@xercesc_3_1@@UBE_NXZ 12005666 f   XercesXPath.obj
 0001:00004666       ?isSerializable@XercesXPath@xercesc_3_1@@UBE_NXZ 12005666 f   XercesXPath.obj
 0001:00004666       ?isSerializable@YearDatatypeValidator@xercesc_3_1@@UBE_NXZ 12005666 f   YearDatatypeValidator.obj
 0001:00004666       ?isSerializable@YearMonthDatatypeValidator@xercesc_3_1@@UBE_NXZ 12005666 f   YearMonthDatatypeValidator.obj
 0001:00004666       ?requiresNamespaces@SchemaValidator@xercesc_3_1@@UBE_NXZ 12005666 f   SchemaValidator.obj
 0001:00004666       ?supportsSrcOfs@Win32TransService@xercesc_3_1@@UBE_NXZ 12005666 f   Win32TransService.obj
 0001:00004666       ___acrt_initialize         12005666 f   MSVCRT:ucrt_stubs.obj
 0001:00004666       ___acrt_thread_attach      12005666 f   MSVCRT:ucrt_stubs.obj
 0001:00004666       ___acrt_thread_detach      12005666 f   MSVCRT:ucrt_stubs.obj
 0001:00004666       ___acrt_uninitialize       12005666 f   MSVCRT:ucrt_stubs.obj
 0001:00004666       ___acrt_uninitialize_critical 12005666 f   MSVCRT:ucrt_stubs.obj
 0001:00004666       ___scrt_stub_for_acrt_initialize 12005666 f   MSVCRT:ucrt_stubs.obj
 0001:00004666       ___scrt_stub_for_acrt_thread_attach 12005666 f   MSVCRT:ucrt_stubs.obj
 0001:00004666       ___scrt_stub_for_acrt_thread_detach 12005666 f   MSVCRT:ucrt_stubs.obj
 0001:00004666       ___scrt_stub_for_acrt_uninitialize 12005666 f   MSVCRT:ucrt_stubs.obj
 0001:00004666       ___scrt_stub_for_acrt_uninitialize_critical 12005666 f   MSVCRT:ucrt_stubs.obj
 0001:00004666       ___vcrt_initialize         12005666 f   MSVCRT:ucrt_stubs.obj
 0001:00004666       ___vcrt_thread_attach      12005666 f   MSVCRT:ucrt_stubs.obj
 0001:00004666       ___vcrt_thread_detach      12005666 f   MSVCRT:ucrt_stubs.obj
 0001:00004666       ___vcrt_uninitialize       12005666 f   MSVCRT:ucrt_stubs.obj
 0001:00004666       ___vcrt_uninitialize_critical 12005666 f   MSVCRT:ucrt_stubs.obj
 0001:00004669       ?getProtoType@KVStringPair@xercesc_3_1@@UBEPAVXProtoType@2@XZ 12005669 f   KVStringPair.obj
 0001:0000466f       ?serialize@KVStringPair@xercesc_3_1@@UAEXAAVXSerializeEngine@2@@Z 1200566f f   KVStringPair.obj
 0001:000046cd       ??_FXMLMutex@xercesc_3_1@@QAEXXZ 120056cd f i Mutexes.obj
 0001:000046d9       ??0XMLMutex@xercesc_3_1@@QAE@QAVMemoryManager@1@@Z 120056d9 f   Mutexes.obj
 0001:000046f8       ??1XMLMutex@xercesc_3_1@@QAE@XZ 120056f8 f   Mutexes.obj
 0001:00004744       ?lock@XMLMutex@xercesc_3_1@@QAEXXZ 12005744 f   Mutexes.obj
 0001:0000474d       ?unlock@XMLMutex@xercesc_3_1@@QAEXXZ 1200574d f   Mutexes.obj
 0001:00004756       ??0XMLMutexLock@xercesc_3_1@@QAE@QAVXMLMutex@1@@Z 12005756 f   Mutexes.obj
 0001:00004770       ??1XMLMutexLock@xercesc_3_1@@QAE@XZ 12005770 f   Mutexes.obj
 0001:000047ae       ?getPanicReasonString@PanicHandler@xercesc_3_1@@SAPBDW4PanicReasons@12@@Z 120057ae f   PanicHandler.obj
 0001:00004826       ??1DOMCharacterDataImpl@xercesc_3_1@@QAE@XZ 12005826 f i DOMCharacterDataImpl.obj
 0001:00004826       ??1DOMChildNode@xercesc_3_1@@QAE@XZ 12005826 f i DOMChildNode.obj
 0001:00004826       ??1DOMNodeImpl@xercesc_3_1@@QAE@XZ 12005826 f i DOMNodeImpl.obj
 0001:00004826       ??1EndOfEntityException@xercesc_3_1@@QAE@XZ 12005826 f i DGXMLScanner.obj
 0001:00004826       ??1OutOfMemoryException@xercesc_3_1@@QAE@XZ 12005826 f i PlatformUtils.obj
 0001:00004826       ??1RangeTokenElemMap@xercesc_3_1@@QAE@XZ 12005826 f i RangeTokenMap.obj
 0001:00004826       ??1RegxUtil@xercesc_3_1@@QAE@XZ 12005826 f i RegularExpression.obj
 0001:00004826       ??1SubstitutionGroupComparator@xercesc_3_1@@QAE@XZ 12005826 f i IGXMLScanner2.obj
 0001:00004826       ??1XMLCanRepGroup@xercesc_3_1@@QAE@XZ 12005826 f i XMLCanRepGroup.obj
 0001:00004826       ??1XMLInteger@xercesc_3_1@@QAE@XZ 12005826 f i DFAContentModel.obj
 0001:00004826       ??1XMLPScanToken@xercesc_3_1@@QAE@XZ 12005826 f i XSAnnotation.obj
 0001:00004826       ??1XMLResourceIdentifier@xercesc_3_1@@QAE@XZ 12005826 f i DGXMLScanner.obj
 0001:00004826       ??1XMLUniCharacter@xercesc_3_1@@QAE@XZ 12005826 f i RangeTokenMap.obj
 0001:00004826       ??1XUtil@xercesc_3_1@@AAE@XZ 12005826 f i SchemaInfo.obj
 0001:00004826       ??3@YAXPAXPAVDOMDocument@xercesc_3_1@@@Z 12005826 f i AbstractDOMParser.obj
 0001:00004826       ??3@YAXPAXPAVDOMDocument@xercesc_3_1@@W4NodeObjectType@DOMMemoryManager@1@@Z 12005826 f i DOMAttrImpl.obj
 0001:00004826       ??3@YAXPAXPAVDOMDocumentImpl@xercesc_3_1@@@Z 12005826 f i AbstractDOMParser.obj
 0001:00004826       ??3@YAXPAXPAVDOMDocumentImpl@xercesc_3_1@@W4NodeObjectType@DOMMemoryManager@1@@Z 12005826 f i AbstractDOMParser.obj
 0001:00004826       ??3XMemory@xercesc_3_1@@SAXPAX0@Z 12005826 f i XMemory.obj
 0001:00004826       ?endCDATA@DefaultHandler@xercesc_3_1@@UAEXXZ 12005826 f i sax2Dummy.obj
 0001:00004826       ?endDTD@DefaultHandler@xercesc_3_1@@UAEXXZ 12005826 f i sax2Dummy.obj
 0001:00004826       ?endDocument@DefaultHandler@xercesc_3_1@@UAEXXZ 12005826 f i sax2Dummy.obj
 0001:00004826       ?endDocument@HandlerBase@xercesc_3_1@@UAEXXZ 12005826 f i Dummy.obj
 0001:00004826       ?endDocument@IdentityConstraintHandler@xercesc_3_1@@QAEXXZ 12005826 f i IGXMLScanner.obj
 0001:00004826       ?endDocument@ValueStoreCache@xercesc_3_1@@QAEXXZ 12005826 f i IGXMLScanner.obj
 0001:00004826       ?endExtSubset@AbstractDOMParser@xercesc_3_1@@UAEXXZ 12005826 f i AbstractDOMParser.obj
 0001:00004826       ?endExtSubset@SAXParser@xercesc_3_1@@UAEXXZ 12005826 f i SAXParser.obj
 0001:00004826       ?endIntSubset@SAXParser@xercesc_3_1@@UAEXXZ 12005826 f i SAXParser.obj
 0001:00004826       ?flush@XMLFormatTarget@xercesc_3_1@@UAEXXZ 12005826 f i LocalFileFormatTarget.obj
 0001:00004826       ?inheritAdditionalFacet@AbstractNumericFacetValidator@xercesc_3_1@@MAEXXZ 12005826 f i AbstractNumericFacetValidator.obj
 0001:00004826       ?inheritAdditionalFacet@AbstractStringValidator@xercesc_3_1@@MAEXXZ 12005826 f i AbstractStringValidator.obj
 0001:00004826       ?normalize@DOMCDATASectionImpl@xercesc_3_1@@UAEXXZ 12005826 f i DOMCDATASectionImpl.obj
 0001:00004826       ?normalize@DOMCommentImpl@xercesc_3_1@@UAEXXZ 12005826 f i DOMCommentImpl.obj
 0001:00004826       ?normalize@DOMNodeImpl@xercesc_3_1@@QAEXXZ 12005826 f i DOMNodeImpl.obj
 0001:00004826       ?normalize@DOMNotationImpl@xercesc_3_1@@UAEXXZ 12005826 f i DOMNotationImpl.obj
 0001:00004826       ?normalize@DOMProcessingInstructionImpl@xercesc_3_1@@UAEXXZ 12005826 f i DOMProcessingInstructionImpl.obj
 0001:00004826       ?normalize@DOMTextImpl@xercesc_3_1@@UAEXXZ 12005826 f i DOMTextImpl.obj
 0001:00004826       ?orphanChild@CMAny@xercesc_3_1@@UAEXXZ 12005826 f i CMAny.obj
 0001:00004826       ?orphanChild@CMLeaf@xercesc_3_1@@UAEXXZ 12005826 f i DFAContentModel.obj
 0001:00004826       ?postParseValidation@DTDValidator@xercesc_3_1@@UAEXXZ 12005826 f i DTDValidator.obj
 0001:00004826       ?postParseValidation@SchemaValidator@xercesc_3_1@@UAEXXZ 12005826 f i SchemaValidator.obj
 0001:00004826       ?release@DOMTreeWalkerImpl@xercesc_3_1@@UAEXXZ 12005826 f i DOMTreeWalkerImpl.obj
 0001:00004826       ?reset@DTDAttDef@xercesc_3_1@@UAEXXZ 12005826 f i XMLElementDecl.obj
 0001:00004826       ?reset@DTDValidator@xercesc_3_1@@UAEXXZ 12005826 f i DTDValidator.obj
 0001:00004826       ?reset@SchemaAttDef@xercesc_3_1@@UAEXXZ 12005826 f i XMLElementDecl.obj
 0001:00004826       ?resetCachedGrammar@XMLScanner@xercesc_3_1@@UAEXXZ 12005826 f i XMLScanner.obj
 0001:00004826       ?resetDocType@DefaultHandler@xercesc_3_1@@UAEXXZ 12005826 f i sax2Dummy.obj
 0001:00004826       ?resetDocType@HandlerBase@xercesc_3_1@@UAEXXZ 12005826 f i Dummy.obj
 0001:00004826       ?resetDocument@DefaultHandler@xercesc_3_1@@UAEXXZ 12005826 f i sax2Dummy.obj
 0001:00004826       ?resetDocument@HandlerBase@xercesc_3_1@@UAEXXZ 12005826 f i Dummy.obj
 0001:00004826       ?resetEntities@DOMLSParserImpl@xercesc_3_1@@UAEXXZ 12005826 f i DOMLSParserImpl.obj
 0001:00004826       ?resetEntities@SAX2XMLReaderImpl@xercesc_3_1@@UAEXXZ 12005826 f i SAX2XMLReaderImpl.obj
 0001:00004826       ?resetEntities@SAXParser@xercesc_3_1@@UAEXXZ 12005826 f i SAXParser.obj
 0001:00004826       ?resetEntities@XercesDOMParser@xercesc_3_1@@UAEXXZ 12005826 f i XSAnnotation.obj
 0001:00004826       ?resetErrors@AnnotationErrorReporter@xercesc_3_1@@UAEXXZ 12005826 f i TraverseSchema.obj
 0001:00004826       ?resetErrors@DOMLSParserImpl@xercesc_3_1@@UAEXXZ 12005826 f i DOMLSParserImpl.obj
 0001:00004826       ?resetErrors@DefaultHandler@xercesc_3_1@@UAEXXZ 12005826 f i sax2Dummy.obj
 0001:00004826       ?resetErrors@HandlerBase@xercesc_3_1@@UAEXXZ 12005826 f i Dummy.obj
 0001:00004826       ?resetErrors@XercesDOMParser@xercesc_3_1@@UAEXXZ 12005826 f i XercesDOMParser.obj
 0001:00004826       ?startCDATA@DefaultHandler@xercesc_3_1@@UAEXXZ 12005826 f i sax2Dummy.obj
 0001:00004826       ?startDocument@DefaultHandler@xercesc_3_1@@UAEXXZ 12005826 f i sax2Dummy.obj
 0001:00004826       ?startDocument@HandlerBase@xercesc_3_1@@UAEXXZ 12005826 f i Dummy.obj
 0001:00004826       ?startExtSubset@AbstractDOMParser@xercesc_3_1@@UAEXXZ 12005826 f i AbstractDOMParser.obj
 0001:00004826       ?startExtSubset@SAXParser@xercesc_3_1@@UAEXXZ 12005826 f i SAXParser.obj
 0001:00004826       ?startIntSubset@SAX2XMLReaderImpl@xercesc_3_1@@UAEXXZ 12005826 f i SAX2XMLReaderImpl.obj
 0001:00004826       ?startIntSubset@SAXParser@xercesc_3_1@@UAEXXZ 12005826 f i SAXParser.obj
 0001:00004826       @_guard_check_icall_nop@4  12005826 f i MSVCRT:guard_support.obj
 0001:00004829       ?getCode@OutOfMemoryException@xercesc_3_1@@QBE?AW4Codes@XMLExcepts@2@XZ 12005829 f i PlatformUtils.obj
 0001:0000482f       ?getMessage@OutOfMemoryException@xercesc_3_1@@QBEPB_WXZ 1200582f f i PlatformUtils.obj
 0001:0000482f       ?getType@OutOfMemoryException@xercesc_3_1@@QBEPB_WXZ 1200582f f i PlatformUtils.obj
 0001:00004835       ?getSrcFile@OutOfMemoryException@xercesc_3_1@@QBEPBDXZ 12005835 f i PlatformUtils.obj
 0001:0000483b       ?getSrcLine@OutOfMemoryException@xercesc_3_1@@QBE_KXZ 1200583b f i PlatformUtils.obj
 0001:00004840       ??0MemoryManagerImpl@xercesc_3_1@@QAE@XZ 12005840 f i PlatformUtils.obj
 0001:00004849       ??_FXMLURL@xercesc_3_1@@QAEXXZ 12005849 f i PlatformUtils.obj
 0001:00004855       ??9XMLURL@xercesc_3_1@@QBE_NABV01@@Z 12005855 f i PlatformUtils.obj
 0001:0000486a       ?getAnnotation@XSAttributeDeclaration@xercesc_3_1@@QBEPAVXSAnnotation@2@XZ 1200586a f i PSVIAttributeList.obj
 0001:0000486a       ?getAnnotation@XSModelGroup@xercesc_3_1@@QBEPAVXSAnnotation@2@XZ 1200586a f i XSModelGroup.obj
 0001:0000486a       ?getAnnotation@XSModelGroupDefinition@xercesc_3_1@@QBEPAVXSAnnotation@2@XZ 1200586a f i XSModel.obj
 0001:0000486a       ?getAttributeWildcard@XSAttributeGroupDefinition@xercesc_3_1@@QBEPAVXSWildcard@2@XZ 1200586a f i XSAttributeGroupDefinition.obj
 0001:0000486a       ?getAttributes@XMLSchemaDescriptionImpl@xercesc_3_1@@UBEPBVXMLAttDef@2@XZ 1200586a f i XMLSchemaDescriptionImpl.obj
 0001:0000486a       ?getBaseGroup@XercesGroupInfo@xercesc_3_1@@QBEPAV12@XZ 1200586a f i XMLGrammarPoolImpl.obj
 0001:0000486a       ?getBaseType@XSComplexTypeDefinition@xercesc_3_1@@UAEPAVXSTypeDefinition@2@XZ 1200586a f i XSComplexTypeDefinition.obj
 0001:0000486a       ?getBaseType@XSSimpleTypeDefinition@xercesc_3_1@@UAEPAVXSTypeDefinition@2@XZ 1200586a f i XSSimpleTypeDefinition.obj
 0001:0000486a       ?getComplexTypeRegistry@SchemaGrammar@xercesc_3_1@@QBEPAV?$RefHashTableOf@VComplexTypeInfo@xercesc_3_1@@UStringHasher@2@@2@XZ 1200586a f i XMLGrammarPoolImpl.obj
 0001:0000486a       ?getConstraintValue@XSAttributeUse@xercesc_3_1@@QAEPB_WXZ 1200586a f i XSAttributeGroupDefinition.obj
 0001:0000486a       ?getContentType@ComplexTypeInfo@xercesc_3_1@@QBEHXZ 1200586a f i XMLElementDecl.obj
 0001:0000486a       ?getDTDHandler@SAX2XMLFilterImpl@xercesc_3_1@@UBEPAVDTDHandler@2@XZ 1200586a f i SAX2XMLFilterImpl.obj
 0001:0000486a       ?getEnumeration@XMLAttDef@xercesc_3_1@@QBEPB_WXZ 1200586a f i XMLAttDef.obj
 0001:0000486a       ?getFieldStrs@XSIDCDefinition@xercesc_3_1@@QAEPAV?$RefArrayVectorOf@_W@2@XZ 1200586a f i XSElementDeclaration.obj
 0001:0000486a       ?getIdentityConstraint@XPathMatcher@xercesc_3_1@@QBEPAVIdentityConstraint@2@XZ 1200586a f i XMLElementDecl.obj
 0001:0000486a       ?getKey@IC_KeyRef@xercesc_3_1@@QBEPAVIdentityConstraint@2@XZ 1200586a f i XSIDCDefinition.obj
 0001:0000486a       ?getLexicalFacetValue@XSFacet@xercesc_3_1@@QBEPB_WXZ 1200586a f i XSFacet.obj
 0001:0000486a       ?getLexicalFacetValues@XSMultiValueFacet@xercesc_3_1@@QAEPAV?$RefArrayVectorOf@_W@2@XZ 1200586a f i XSMultiValueFacet.obj
 0001:0000486a       ?getMaxOccurs@XSParticle@xercesc_3_1@@QBEKXZ 1200586a f i XSComplexTypeDefinition.obj
 0001:0000486a       ?getMemoryManager@XMLBigDecimal@xercesc_3_1@@QBEPAVMemoryManager@2@XZ 1200586a f i XMLAbstractDoubleFloat.obj
 0001:0000486a       ?getMemoryManager@XMLNotationDecl@xercesc_3_1@@QBEPAVMemoryManager@2@XZ 1200586a f i XMLDTDDescription.obj
 0001:0000486a       ?getNext@XSAnnotation@xercesc_3_1@@QAEPAV12@XZ 1200586a f i XSAnnotation.obj
 0001:0000486a       ?getNodeName@DOMProcessingInstructionImpl@xercesc_3_1@@UBEPB_WXZ 1200586a f i DOMProcessingInstructionImpl.obj
 0001:0000486a       ?getNsConstraintList@XSWildcard@xercesc_3_1@@QAEPAV?$RefArrayVectorOf@_W@2@XZ 1200586a f i XSComplexTypeDefinition.obj
 0001:0000486a       ?getOrdered@DatatypeValidator@xercesc_3_1@@QBE?AW4ORDERING@XSSimpleTypeDefinition@2@XZ 1200586a f i XMLAttr.obj
 0001:0000486a       ?getPSVIScope@SchemaElementDecl@xercesc_3_1@@QBE?AW4PSVIScope@PSVIDefs@2@XZ 1200586a f i XMLElementDecl.obj
 0001:0000486a       ?getProtocol@XMLURL@xercesc_3_1@@QBE?AW4Protocols@12@XZ 1200586a f i PlatformUtils.obj
 0001:0000486a       ?getPublicId@XSDLocator@xercesc_3_1@@UBEPB_WXZ 1200586a f i IGXMLScanner2.obj
 0001:0000486a       ?getQueryString@XMLUri@xercesc_3_1@@QBEPB_WXZ 1200586a f i XMLString.obj
 0001:0000486a       ?getRawData@XMLAbstractDoubleFloat@xercesc_3_1@@UBEPA_WXZ 1200586a f i XMLAbstractDoubleFloat.obj
 0001:0000486a       ?getRoot@SchemaInfo@xercesc_3_1@@QBEPBVDOMElement@2@XZ 1200586a f i IGXMLScanner.obj
 0001:0000486a       ?getScanner@AbstractDOMParser@xercesc_3_1@@IBEPAVXMLScanner@2@XZ 1200586a f i XSAnnotation.obj
 0001:0000486a       ?getSystemId@XMLEntityDecl@xercesc_3_1@@QBEPB_WXZ 1200586a f i XMLDTDDescription.obj
 0001:0000486a       ?getTarget@DOMProcessingInstructionImpl@xercesc_3_1@@UBEPB_WXZ 1200586a f i DOMProcessingInstructionImpl.obj
 0001:0000486a       ?getValidationAttempted@PSVIItem@xercesc_3_1@@QBE?AW4ASSESSMENT_TYPE@12@XZ 1200586a f i PSVIAttribute.obj
 0001:0000486e       ?getAnnotation@XSAttributeGroupDefinition@xercesc_3_1@@QBEPAVXSAnnotation@2@XZ 1200586e f i XSAttributeGroupDefinition.obj
 0001:0000486e       ?getAnnotation@XSFacet@xercesc_3_1@@QBEPAVXSAnnotation@2@XZ 1200586e f i XSFacet.obj
 0001:0000486e       ?getAnnotation@XSWildcard@xercesc_3_1@@QBEPAVXSAnnotation@2@XZ 1200586e f i XSComplexTypeDefinition.obj
 0001:0000486e       ?getAnnotations@XSIDCDefinition@xercesc_3_1@@QAEPAV?$RefVectorOf@VXSAnnotation@xercesc_3_1@@@2@XZ 1200586e f i XSIDCDefinition.obj
 0001:0000486e       ?getAnnotations@XSMultiValueFacet@xercesc_3_1@@QAEPAV?$RefVectorOf@VXSAnnotation@xercesc_3_1@@@2@XZ 1200586e f i XSMultiValueFacet.obj
 0001:0000486e       ?getAttrDeclaration@XSAttributeUse@xercesc_3_1@@QBEPAVXSAttributeDeclaration@2@XZ 1200586e f i XSAttributeGroupDefinition.obj
 0001:0000486e       ?getBaseURI@XMLEntityDecl@xercesc_3_1@@QBEPB_WXZ 1200586e f i XMLDTDDescription.obj
 0001:0000486e       ?getBaseValidator@DatatypeValidator@xercesc_3_1@@QBEPAV12@XZ 1200586e f i XMLAttr.obj
 0001:0000486e       ?getDefinedFacets@XSSimpleTypeDefinition@xercesc_3_1@@QBEHXZ 1200586e f i XMLAttr.obj
 0001:0000486e       ?getElementId@ComplexTypeInfo@xercesc_3_1@@QBEIXZ 1200586e f i XMLElementDecl.obj
 0001:0000486e       ?getEnclosingScope@SchemaElementDecl@xercesc_3_1@@QBEIXZ 1200586e f i XMLElementDecl.obj
 0001:0000486e       ?getEntityResolver@SAX2XMLFilterImpl@xercesc_3_1@@UBEPAVEntityResolver@2@XZ 1200586e f i SAX2XMLFilterImpl.obj
 0001:0000486e       ?getFragment@XMLUri@xercesc_3_1@@QBEPB_WXZ 1200586e f i XMLString.obj
 0001:0000486e       ?getGroupInfoRegistry@SchemaGrammar@xercesc_3_1@@QBEPAV?$RefHashTableOf@VXercesGroupInfo@xercesc_3_1@@UStringHasher@2@@2@XZ 1200586e f i XMLGrammarPoolImpl.obj
 0001:0000486e       ?getLocator@XercesGroupInfo@xercesc_3_1@@QBEPAVXSDLocator@2@XZ 1200586e f i XMLGrammarPoolImpl.obj
 0001:0000486e       ?getMemoryManager@QName@xercesc_3_1@@QBEPAVMemoryManager@2@XZ 1200586e f i QName.obj
 0001:0000486e       ?getMemoryManager@XMLAttDef@xercesc_3_1@@QBEPAVMemoryManager@2@XZ 1200586e f i XMLAttDef.obj
 0001:0000486e       ?getMemoryManager@XPathMatcher@xercesc_3_1@@QBEPAVMemoryManager@2@XZ 1200586e f i XMLElementDecl.obj
 0001:0000486e       ?getMinOccurs@ContentSpecNode@xercesc_3_1@@QBEHXZ 1200586e f i XMLGrammarPoolImpl.obj
 0001:0000486e       ?getName@DOMAttrImpl@xercesc_3_1@@UBEPB_WXZ 1200586e f i DOMAttrImpl.obj
 0001:0000486e       ?getNodeName@DOMAttrImpl@xercesc_3_1@@UBEPB_WXZ 1200586e f i DOMAttrImpl.obj
 0001:0000486e       ?getNodeName@DOMEntityImpl@xercesc_3_1@@UBEPB_WXZ 1200586e f i DOMEntityImpl.obj
 0001:0000486e       ?getPublicId@SAXParseException@xercesc_3_1@@QBEPB_WXZ 1200586e f i SAXParseException.obj
 0001:0000486e       ?getQuery@XMLURL@xercesc_3_1@@QBEPB_WXZ 1200586e f i PlatformUtils.obj
 0001:0000486e       ?getScope@XSAttributeDeclaration@xercesc_3_1@@QBE?AW4SCOPE@XSConstants@2@XZ 1200586e f i PSVIAttributeList.obj
 0001:0000486e       ?getState@RegxParser@xercesc_3_1@@QBE?AW4parserState@12@XZ 1200586e f i ParserForXMLSchema.obj
 0001:0000486e       ?getString@Context@RegularExpression@xercesc_3_1@@QBEPB_WXZ 1200586e f i RegularExpression.obj
 0001:0000486e       ?getSystemId@XSAnnotation@xercesc_3_1@@QBEPB_WXZ 1200586e f i XMLGrammarPoolImpl.obj
 0001:0000486e       ?getTypeDefinition@XSElementDeclaration@xercesc_3_1@@QBEPAVXSTypeDefinition@2@XZ 1200586e f i PSVIElement.obj
 0001:00004872       ?getAttGroupInfoRegistry@SchemaGrammar@xercesc_3_1@@QBEPAV?$RefHashTableOf@VXercesAttGroupInfo@xercesc_3_1@@UStringHasher@2@@2@XZ 12005872 f i XMLGrammarPoolImpl.obj
 0001:00004872       ?getAttributeWildcard@XSComplexTypeDefinition@xercesc_3_1@@QBEPAVXSWildcard@2@XZ 12005872 f i PSVIElement.obj
 0001:00004872       ?getCharData@RegxParser@xercesc_3_1@@QBEHXZ 12005872 f i ParserForXMLSchema.obj
 0001:00004872       ?getContentSpec@DTDElementDecl@xercesc_3_1@@UAEPAVContentSpecNode@2@XZ 12005872 f i XMLElementDecl.obj
 0001:00004872       ?getContentSpec@DTDElementDecl@xercesc_3_1@@UBEPBVContentSpecNode@2@XZ 12005872 f i XMLElementDecl.obj
 0001:00004872       ?getElemId@DTDAttDef@xercesc_3_1@@QBEKXZ 12005872 f i XMLElementDecl.obj
 0001:00004872       ?getElemId@SchemaAttDef@xercesc_3_1@@QBEKXZ 12005872 f i XMLElementDecl.obj
 0001:00004872       ?getEnclosingCTDefinition@XSAttributeDeclaration@xercesc_3_1@@QAEPAVXSComplexTypeDefinition@2@XZ 12005872 f i PSVIAttributeList.obj
 0001:00004872       ?getEnclosingCTDefinition@XSElementDeclaration@xercesc_3_1@@QBEPAVXSComplexTypeDefinition@2@XZ 12005872 f i PSVIElement.obj
 0001:00004872       ?getErrorHandler@SAX2XMLFilterImpl@xercesc_3_1@@UBEPAVErrorHandler@2@XZ 12005872 f i SAX2XMLFilterImpl.obj
 0001:00004872       ?getFacets@DatatypeValidator@xercesc_3_1@@QBEPAV?$RefHashTableOf@VKVStringPair@xercesc_3_1@@UStringHasher@2@@2@XZ 12005872 f i XMLAttr.obj
 0001:00004872       ?getFinalSet@SchemaElementDecl@xercesc_3_1@@QBEHXZ 12005872 f i XMLElementDecl.obj
 0001:00004872       ?getFixedFacets@XSSimpleTypeDefinition@xercesc_3_1@@QBEHXZ 12005872 f i XMLAttr.obj
 0001:00004872       ?getGrammarsToAddToXSModel@GrammarResolver@xercesc_3_1@@QAEPAV?$ValueVectorOf@PAVSchemaGrammar@xercesc_3_1@@@2@XZ 12005872 f i XMLValidator.obj
 0001:00004872       ?getInitialDepth@SelectorMatcher@xercesc_3_1@@UBEHXZ 12005872 f i XSIDCDefinition.obj
 0001:00004872       ?getMaxOccurs@ContentSpecNode@xercesc_3_1@@QBEHXZ 12005872 f i XMLGrammarPoolImpl.obj
 0001:00004872       ?getMemoryManager@XMLAbstractDoubleFloat@xercesc_3_1@@QBEPAVMemoryManager@2@XZ 12005872 f i XMLAbstractDoubleFloat.obj
 0001:00004872       ?getNextSibling@DOMDocumentTypeImpl@xercesc_3_1@@UBEPAVDOMNode@2@XZ 12005872 f i DOMDocumentTypeImpl.obj
 0001:00004872       ?getNextSibling@DOMElementImpl@xercesc_3_1@@UBEPAVDOMNode@2@XZ 12005872 f i DOMElementImpl.obj
 0001:00004872       ?getNextSibling@DOMEntityReferenceImpl@xercesc_3_1@@UBEPAVDOMNode@2@XZ 12005872 f i DOMEntityReferenceImpl.obj
 0001:00004872       ?getPublicId@DOMEntityImpl@xercesc_3_1@@UBEPB_WXZ 12005872 f i DOMEntityImpl.obj
 0001:00004872       ?getSystemId@SAXParseException@xercesc_3_1@@QBEPB_WXZ 12005872 f i SAXParseException.obj
 0001:00004872       ?getTypeDefinition@PSVIAttribute@xercesc_3_1@@UAEPAVXSTypeDefinition@2@XZ 12005872 f i PSVIAttribute.obj
 0001:00004872       ?getTypeDefinition@PSVIElement@xercesc_3_1@@UAEPAVXSTypeDefinition@2@XZ 12005872 f i PSVIElement.obj
 0001:00004872       ?getUser@XMLURL@xercesc_3_1@@QBEPB_WXZ 12005872 f i PlatformUtils.obj
 0001:00004872       ?getValueStore@FieldMatcher@xercesc_3_1@@QBEPAVValueStore@2@XZ 12005872 f i XMLElementDecl.obj
 0001:00004876       ?getURLText@XMLURL@xercesc_3_1@@QBEPB_WXZ 12005876 f i PlatformUtils.obj
 0001:00004889       ??0MalformedURLException@xercesc_3_1@@QAE@QBD_KW4Codes@XMLExcepts@1@PAVMemoryManager@1@@Z 12005889 f i PlatformUtils.obj
 0001:000048c9       ??0MalformedURLException@xercesc_3_1@@QAE@ABV01@@Z 120058c9 f i PlatformUtils.obj
 0001:000048e8       ??0MalformedURLException@xercesc_3_1@@QAE@QBD_KW4Codes@XMLExcepts@1@QB_W333PAVMemoryManager@1@@Z 120058e8 f i PlatformUtils.obj
 0001:00004934       ??0MalformedURLException@xercesc_3_1@@QAE@QBD_KW4Codes@XMLExcepts@1@0000PAVMemoryManager@1@@Z 12005934 f i PlatformUtils.obj
 0001:00004980       ??1MalformedURLException@xercesc_3_1@@UAE@XZ 12005980 f i PlatformUtils.obj
 0001:0000498b       ?duplicate@MalformedURLException@xercesc_3_1@@UBEPAVXMLException@2@XZ 1200598b f i PlatformUtils.obj
 0001:000049cf       ?getType@MalformedURLException@xercesc_3_1@@UBEPB_WXZ 120059cf f i PlatformUtils.obj
 0001:000049d5       ??_EMalformedURLException@xercesc_3_1@@UAEPAXI@Z 120059d5 f i PlatformUtils.obj
 0001:00004a73       ??4XMLNetHTTPInfo@xercesc_3_1@@QAEAAV01@ABV01@@Z 12005a73 f i PlatformUtils.obj
 0001:00004a8a       ??4XMLNetHTTPInfo@xercesc_3_1@@QAEAAV01@$$QAV01@@Z 12005a8a f i PlatformUtils.obj
 0001:00004ab2       ??0XMLNetHTTPInfo@xercesc_3_1@@QAE@XZ 12005ab2 f i PlatformUtils.obj
 0001:00004ac5       ??1XMLNetAccessor@xercesc_3_1@@UAE@XZ 12005ac5 f i PlatformUtils.obj
 0001:00004acc       ??0XMLNetAccessor@xercesc_3_1@@IAE@XZ 12005acc f i PlatformUtils.obj
 0001:00004ad5       ??_EXMLNetAccessor@xercesc_3_1@@UAEPAXI@Z 12005ad5 f i PlatformUtils.obj
 0001:00004b6f       ??0NetAccessorException@xercesc_3_1@@QAE@QBD_KW4Codes@XMLExcepts@1@PAVMemoryManager@1@@Z 12005b6f f i PlatformUtils.obj
 0001:00004baf       ??0NetAccessorException@xercesc_3_1@@QAE@ABV01@@Z 12005baf f i PlatformUtils.obj
 0001:00004bce       ??0NetAccessorException@xercesc_3_1@@QAE@QBD_KW4Codes@XMLExcepts@1@QB_W333PAVMemoryManager@1@@Z 12005bce f i PlatformUtils.obj
 0001:00004c1a       ??0NetAccessorException@xercesc_3_1@@QAE@QBD_KW4Codes@XMLExcepts@1@0000PAVMemoryManager@1@@Z 12005c1a f i PlatformUtils.obj
 0001:00004c66       ??1NetAccessorException@xercesc_3_1@@UAE@XZ 12005c66 f i PlatformUtils.obj
 0001:00004c71       ?duplicate@NetAccessorException@xercesc_3_1@@UBEPAVXMLException@2@XZ 12005c71 f i PlatformUtils.obj
 0001:00004cb5       ?getType@NetAccessorException@xercesc_3_1@@UBEPB_WXZ 12005cb5 f i PlatformUtils.obj
 0001:00004cbb       ??_ENetAccessorException@xercesc_3_1@@UAEPAXI@Z 12005cbb f i PlatformUtils.obj
 0001:00004d59       ?getId@WinSockNetAccessor@xercesc_3_1@@UBEPB_WXZ 12005d59 f i PlatformUtils.obj
 0001:00004d5f       ??_EXMLMsgLoader@xercesc_3_1@@UAEPAXI@Z 12005d5f f i PlatformUtils.obj
 0001:00004df9       ??1XMLMsgLoader@xercesc_3_1@@UAE@XZ 12005df9 f i PlatformUtils.obj
 0001:00004e00       ??0XMLMsgLoader@xercesc_3_1@@IAE@XZ 12005e00 f i PlatformUtils.obj
 0001:00004e09       ?adopt@TranscodeFromStr@xercesc_3_1@@QAEPA_WXZ 12005e09 f i PlatformUtils.obj
 0001:00004e09       ?adopt@TranscodeToStr@xercesc_3_1@@QAEPAEXZ 12005e09 f i PlatformUtils.obj
 0001:00004e09       ?release@?$Janitor@V?$BaseRefVectorOf@_W@xercesc_3_1@@@xercesc_3_1@@QAEPAV?$BaseRefVectorOf@_W@2@XZ 12005e09 f i ListDatatypeValidator.obj
 0001:00004e09       ?release@?$Janitor@VBinInputStream@xercesc_3_1@@@xercesc_3_1@@QAEPAVBinInputStream@2@XZ 12005e09 f i ReaderMgr.obj
 0001:00004e09       ?release@?$Janitor@VXMLDateTime@xercesc_3_1@@@xercesc_3_1@@QAEPAVXMLDateTime@2@XZ 12005e09 f i DateDatatypeValidator.obj
 0001:00004e09       ?release@?$JanitorMemFunCall@VAbstractDOMParser@xercesc_3_1@@@xercesc_3_1@@QAEPAVAbstractDOMParser@2@XZ 12005e09 f i AbstractDOMParser.obj
 0001:00004e09       ?release@?$JanitorMemFunCall@VBMPattern@xercesc_3_1@@@xercesc_3_1@@QAEPAVBMPattern@2@XZ 12005e09 f i BMPattern.obj
 0001:00004e09       ?release@?$JanitorMemFunCall@VDGXMLScanner@xercesc_3_1@@@xercesc_3_1@@QAEPAVDGXMLScanner@2@XZ 12005e09 f i DGXMLScanner.obj
 0001:00004e09       ?release@?$JanitorMemFunCall@VDOMLSParserImpl@xercesc_3_1@@@xercesc_3_1@@QAEPAVDOMLSParserImpl@2@XZ 12005e09 f i DOMLSParserImpl.obj
 0001:00004e09       ?release@?$JanitorMemFunCall@VDOMXPathExpressionImpl@xercesc_3_1@@@xercesc_3_1@@QAEPAVDOMXPathExpressionImpl@2@XZ 12005e09 f i DOMXPathExpressionImpl.obj
 0001:00004e09       ?release@?$JanitorMemFunCall@VFieldValueMap@xercesc_3_1@@@xercesc_3_1@@QAEPAVFieldValueMap@2@XZ 12005e09 f i FieldValueMap.obj
 0001:00004e09       ?release@?$JanitorMemFunCall@VIGXMLScanner@xercesc_3_1@@@xercesc_3_1@@QAEPAVIGXMLScanner@2@XZ 12005e09 f i IGXMLScanner.obj
 0001:00004e09       ?release@?$JanitorMemFunCall@VIdentityConstraint@xercesc_3_1@@@xercesc_3_1@@QAEPAVIdentityConstraint@2@XZ 12005e09 f i IdentityConstraint.obj
 0001:00004e09       ?release@?$JanitorMemFunCall@VIdentityConstraintHandler@xercesc_3_1@@@xercesc_3_1@@QAEPAVIdentityConstraintHandler@2@XZ 12005e09 f i IdentityConstraintHandler.obj
 0001:00004e09       ?release@?$JanitorMemFunCall@VQName@xercesc_3_1@@@xercesc_3_1@@QAEPAVQName@2@XZ 12005e09 f i QName.obj
 0001:00004e09       ?release@?$JanitorMemFunCall@VRangeTokenMap@xercesc_3_1@@@xercesc_3_1@@QAEPAVRangeTokenMap@2@XZ 12005e09 f i RangeTokenMap.obj
 0001:00004e09       ?release@?$JanitorMemFunCall@VReaderMgr@xercesc_3_1@@@xercesc_3_1@@QAEPAVReaderMgr@2@XZ 12005e09 f i DGXMLScanner.obj
 0001:00004e09       ?release@?$JanitorMemFunCall@VRegularExpression@xercesc_3_1@@@xercesc_3_1@@QAEPAVRegularExpression@2@XZ 12005e09 f i RegularExpression.obj
 0001:00004e09       ?release@?$JanitorMemFunCall@VSAX2XMLReaderImpl@xercesc_3_1@@@xercesc_3_1@@QAEPAVSAX2XMLReaderImpl@2@XZ 12005e09 f i SAX2XMLReaderImpl.obj
 0001:00004e09       ?release@?$JanitorMemFunCall@VSAXParser@xercesc_3_1@@@xercesc_3_1@@QAEPAVSAXParser@2@XZ 12005e09 f i SAXParser.obj
 0001:00004e09       ?release@?$JanitorMemFunCall@VSGXMLScanner@xercesc_3_1@@@xercesc_3_1@@QAEPAVSGXMLScanner@2@XZ 12005e09 f i SGXMLScanner.obj
 0001:00004e09       ?release@?$JanitorMemFunCall@VSchemaGrammar@xercesc_3_1@@@xercesc_3_1@@QAEPAVSchemaGrammar@2@XZ 12005e09 f i SchemaGrammar.obj
 0001:00004e09       ?release@?$JanitorMemFunCall@VTraverseSchema@xercesc_3_1@@@xercesc_3_1@@QAEPAVTraverseSchema@2@XZ 12005e09 f i TraverseSchema.obj
 0001:00004e09       ?release@?$JanitorMemFunCall@VUnionDatatypeValidator@xercesc_3_1@@@xercesc_3_1@@QAEPAVUnionDatatypeValidator@2@XZ 12005e09 f i UnionDatatypeValidator.obj
 0001:00004e09       ?release@?$JanitorMemFunCall@VValueStoreCache@xercesc_3_1@@@xercesc_3_1@@QAEPAVValueStoreCache@2@XZ 12005e09 f i ValueStoreCache.obj
 0001:00004e09       ?release@?$JanitorMemFunCall@VWFXMLScanner@xercesc_3_1@@@xercesc_3_1@@QAEPAVWFXMLScanner@2@XZ 12005e09 f i WFXMLScanner.obj
 0001:00004e09       ?release@?$JanitorMemFunCall@VXMLAttDef@xercesc_3_1@@@xercesc_3_1@@QAEPAVXMLAttDef@2@XZ 12005e09 f i XMLAttDef.obj
 0001:00004e09       ?release@?$JanitorMemFunCall@VXMLAttr@xercesc_3_1@@@xercesc_3_1@@QAEPAVXMLAttr@2@XZ 12005e09 f i XMLAttr.obj
 0001:00004e09       ?release@?$JanitorMemFunCall@VXMLBigDecimal@xercesc_3_1@@@xercesc_3_1@@QAEPAVXMLBigDecimal@2@XZ 12005e09 f i XMLBigDecimal.obj
 0001:00004e09       ?release@?$JanitorMemFunCall@VXMLEntityDecl@xercesc_3_1@@@xercesc_3_1@@QAEPAVXMLEntityDecl@2@XZ 12005e09 f i XMLEntityDecl.obj
 0001:00004e09       ?release@?$JanitorMemFunCall@VXMLGrammarPoolImpl@xercesc_3_1@@@xercesc_3_1@@QAEPAVXMLGrammarPoolImpl@2@XZ 12005e09 f i XMLGrammarPoolImpl.obj
 0001:00004e09       ?release@?$JanitorMemFunCall@VXMLNotationDecl@xercesc_3_1@@@xercesc_3_1@@QAEPAVXMLNotationDecl@2@XZ 12005e09 f i XMLNotationDecl.obj
 0001:00004e09       ?release@?$JanitorMemFunCall@VXMLScanner@xercesc_3_1@@@xercesc_3_1@@QAEPAVXMLScanner@2@XZ 12005e09 f i XMLScanner.obj
 0001:00004e09       ?release@?$JanitorMemFunCall@VXMLStringTokenizer@xercesc_3_1@@@xercesc_3_1@@QAEPAVXMLStringTokenizer@2@XZ 12005e09 f i XMLStringTokenizer.obj
 0001:00004e09       ?release@?$JanitorMemFunCall@VXMLURL@xercesc_3_1@@@xercesc_3_1@@QAEPAVXMLURL@2@XZ 12005e09 f i XMLURL.obj
 0001:00004e09       ?release@?$JanitorMemFunCall@VXMLUri@xercesc_3_1@@@xercesc_3_1@@QAEPAVXMLUri@2@XZ 12005e09 f i XMLUri.obj
 0001:00004e09       ?release@?$JanitorMemFunCall@VXPathMatcher@xercesc_3_1@@@xercesc_3_1@@QAEPAVXPathMatcher@2@XZ 12005e09 f i XPathMatcher.obj
 0001:00004e09       ?release@?$JanitorMemFunCall@VXPathMatcherStack@xercesc_3_1@@@xercesc_3_1@@QAEPAVXPathMatcherStack@2@XZ 12005e09 f i XPathMatcherStack.obj
 0001:00004e09       ?release@?$JanitorMemFunCall@VXercesDOMParser@xercesc_3_1@@@xercesc_3_1@@QAEPAVXercesDOMParser@2@XZ 12005e09 f i XercesDOMParser.obj
 0001:00004e09       ?release@?$JanitorMemFunCall@VXercesXPath@xercesc_3_1@@@xercesc_3_1@@QAEPAVXercesXPath@2@XZ 12005e09 f i XercesXPath.obj
 0001:00004e0f       ?Initialize@XMLPlatformUtils@xercesc_3_1@@SAXQBD0QAVPanicHandler@2@QAVMemoryManager@2@@Z 12005e0f f   PlatformUtils.obj
 0001:00004fd4       ?Initialize@XMLPlatformUtils@xercesc_3_1@@SAXKKKQBD0QAVPanicHandler@2@QAVMemoryManager@2@@Z 12005fd4 f   PlatformUtils.obj
 0001:0000500e       ?Terminate@XMLPlatformUtils@xercesc_3_1@@SAXXZ 1200600e f   PlatformUtils.obj
 0001:00005129       ?panic@XMLPlatformUtils@xercesc_3_1@@SAXW4PanicReasons@PanicHandler@2@@Z 12006129 f   PlatformUtils.obj
 0001:00005146       ?makeNetAccessor@XMLPlatformUtils@xercesc_3_1@@CAPAVXMLNetAccessor@2@XZ 12006146 f   PlatformUtils.obj
 0001:00005165       ?loadAMsgSet@XMLPlatformUtils@xercesc_3_1@@CAPAVXMLMsgLoader@2@QB_W@Z 12006165 f   PlatformUtils.obj
 0001:000051bd       ?makeTransService@XMLPlatformUtils@xercesc_3_1@@CAPAVXMLTransService@2@XZ 120061bd f   PlatformUtils.obj
 0001:000051f0       ?makeFileMgr@XMLPlatformUtils@xercesc_3_1@@SAPAVXMLFileMgr@2@QAVMemoryManager@2@@Z 120061f0 f   PlatformUtils.obj
 0001:00005260       ?openFile@XMLPlatformUtils@xercesc_3_1@@SAPAXQBDQAVMemoryManager@2@@Z 12006260 f   PlatformUtils.obj
 0001:000052a4       ?openFile@XMLPlatformUtils@xercesc_3_1@@SAPAXQB_WQAVMemoryManager@2@@Z 120062a4 f   PlatformUtils.obj
 0001:000052e8       ?openFileToWrite@XMLPlatformUtils@xercesc_3_1@@SAPAXQBDQAVMemoryManager@2@@Z 120062e8 f   PlatformUtils.obj
 0001:0000532c       ?openFileToWrite@XMLPlatformUtils@xercesc_3_1@@SAPAXQB_WQAVMemoryManager@2@@Z 1200632c f   PlatformUtils.obj
 0001:00005370       ?openStdInHandle@XMLPlatformUtils@xercesc_3_1@@SAPAXQAVMemoryManager@2@@Z 12006370 f   PlatformUtils.obj
 0001:000053af       ?closeFile@XMLPlatformUtils@xercesc_3_1@@SAXPAXQAVMemoryManager@2@@Z 120063af f   PlatformUtils.obj
 0001:000053f1       ?resetFile@XMLPlatformUtils@xercesc_3_1@@SAXPAXQAVMemoryManager@2@@Z 120063f1 f   PlatformUtils.obj
 0001:00005433       ?curFilePos@XMLPlatformUtils@xercesc_3_1@@SA_KPAXQAVMemoryManager@2@@Z 12006433 f   PlatformUtils.obj
 0001:00005475       ?fileSize@XMLPlatformUtils@xercesc_3_1@@SA_KPAXQAVMemoryManager@2@@Z 12006475 f   PlatformUtils.obj
 0001:000054b7       ?readFileBuffer@XMLPlatformUtils@xercesc_3_1@@SAKPAXKQAEQAVMemoryManager@2@@Z 120064b7 f   PlatformUtils.obj
 0001:000054ff       ?writeBufferToFile@XMLPlatformUtils@xercesc_3_1@@SAXQAXKQBEQAVMemoryManager@2@@Z 120064ff f   PlatformUtils.obj
 0001:00005547       ?getFullPath@XMLPlatformUtils@xercesc_3_1@@SAPA_WQB_WQAVMemoryManager@2@@Z 12006547 f   PlatformUtils.obj
 0001:00005589       ?getCurrentDirectory@XMLPlatformUtils@xercesc_3_1@@SAPA_WQAVMemoryManager@2@@Z 12006589 f   PlatformUtils.obj
 0001:000055c8       ?isRelative@XMLPlatformUtils@xercesc_3_1@@SA_NQB_WQAVMemoryManager@2@@Z 120065c8 f   PlatformUtils.obj
 0001:0000560a       ?isAnySlash@XMLPlatformUtils@xercesc_3_1@@SA_N_W@Z 1200660a f i PlatformUtils.obj
 0001:00005627       ?getCurrentMillis@XMLPlatformUtils@xercesc_3_1@@SAKXZ 12006627 f   PlatformUtils.obj
 0001:0000565b       ?makeMutexMgr@XMLPlatformUtils@xercesc_3_1@@SAPAVXMLMutexMgr@2@QAVMemoryManager@2@@Z 1200665b f   PlatformUtils.obj
 0001:0000567e       ?makeMutex@XMLPlatformUtils@xercesc_3_1@@SAPAXQAVMemoryManager@2@@Z 1200667e f   PlatformUtils.obj
 0001:000056a3       ?closeMutex@XMLPlatformUtils@xercesc_3_1@@SAXQAXQAVMemoryManager@2@@Z 120066a3 f   PlatformUtils.obj
 0001:000056cb       ?lockMutex@XMLPlatformUtils@xercesc_3_1@@SAXQAX@Z 120066cb f   PlatformUtils.obj
 0001:000056f0       ?unlockMutex@XMLPlatformUtils@xercesc_3_1@@SAXQAX@Z 120066f0 f   PlatformUtils.obj
 0001:00005715       ?loadMsgSet@XMLPlatformUtils@xercesc_3_1@@SAPAVXMLMsgLoader@2@QB_W@Z 12006715 f   PlatformUtils.obj
 0001:0000571e       ?recognizeNEL@XMLPlatformUtils@xercesc_3_1@@SAX_NQAVMemoryManager@2@@Z 1200671e f   PlatformUtils.obj
 0001:00005777       ?strictIANAEncoding@XMLPlatformUtils@xercesc_3_1@@SAX_N@Z 12006777 f   PlatformUtils.obj
 0001:00005797       ?isStrictIANAEncoding@XMLPlatformUtils@xercesc_3_1@@SA_NXZ 12006797 f   PlatformUtils.obj
 0001:000057aa       ?weavePaths@XMLPlatformUtils@xercesc_3_1@@SAPA_WQB_W0QAVMemoryManager@2@@Z 120067aa f   PlatformUtils.obj
 0001:0000591e       ?removeDotSlash@XMLPlatformUtils@xercesc_3_1@@SAXQA_WQAVMemoryManager@2@@Z 1200691e f   PlatformUtils.obj
 0001:000059ea       ?removeDotDotSlash@XMLPlatformUtils@xercesc_3_1@@SAXQA_WQAVMemoryManager@2@@Z 120069ea f   PlatformUtils.obj
 0001:00005b12       ?searchSlashDotDotSlash@XMLPlatformUtils@xercesc_3_1@@CAHQA_W@Z 12006b12 f   PlatformUtils.obj
 0001:00005b8b       ??0?$ArrayJanitor@_W@xercesc_3_1@@QAE@QA_WQAVMemoryManager@1@@Z 12006b8b f i PlatformUtils.obj
 0001:00005b8b       ??0EndOfEntityException@xercesc_3_1@@QAE@PAVXMLEntityDecl@1@K@Z 12006b8b f i DGXMLScanner.obj
 0001:00005b8b       ??0SubstitutionGroupComparator@xercesc_3_1@@QAE@QAVGrammarResolver@1@QAVXMLStringPool@1@@Z 12006b8b f i IGXMLScanner2.obj
 0001:00005b9f       ??_FQName@xercesc_3_1@@QAEXXZ 12006b9f f i QName.obj
 0001:00005bab       ??_EQName@xercesc_3_1@@UAEPAXI@Z 12006bab f i QName.obj
 0001:00005c41       ?setBlockSet@ComplexTypeInfo@xercesc_3_1@@QAEXH@Z 12006c41 f i XMLElementDecl.obj
 0001:00005c41       ?setChild@ChildOp@xercesc_3_1@@QAEXQBVOp@2@@Z 12006c41 f i Op.obj
 0001:00005c41       ?setId@XMLElementDecl@xercesc_3_1@@QAEXK@Z 12006c41 f i XMLDTDDescription.obj
 0001:00005c41       ?setId@XSObject@xercesc_3_1@@QAEXK@Z 12006c41 f i XSObject.obj
 0001:00005c41       ?setMax@ClosureToken@xercesc_3_1@@UAEXH@Z 12006c41 f i ClosureToken.obj
 0001:00005c41       ?setScanner@ValueStoreCache@xercesc_3_1@@QAEXQAVXMLScanner@2@@Z 12006c41 f i IGXMLScanner.obj
 0001:00005c41       ?setSchemaLocation@DOMConfigurationImpl@xercesc_3_1@@QAEXPB_W@Z 12006c41 f i DOMConfigurationImpl.obj
 0001:00005c41       ?setURI@QName@xercesc_3_1@@QAEXI@Z 12006c41 f i QName.obj
 0001:00005c4e       ?setPrefix@QName@xercesc_3_1@@QAEXPB_W@Z 12006c4e f i QName.obj
 0001:00005c6d       ?setLocalPart@QName@xercesc_3_1@@QAEXPB_W@Z 12006c6d f i QName.obj
 0001:00005c8c       ??0QName@xercesc_3_1@@QAE@QAVMemoryManager@1@@Z 12006c8c f   QName.obj
 0001:00005cb8       ??0QName@xercesc_3_1@@QAE@QB_W0IQAVMemoryManager@1@@Z 12006cb8 f   QName.obj
 0001:00005d2a       ??0QName@xercesc_3_1@@QAE@QB_WIQAVMemoryManager@1@@Z 12006d2a f   QName.obj
 0001:00005d99       ??1QName@xercesc_3_1@@UAE@XZ 12006d99 f   QName.obj
 0001:00005de2       ??0QName@xercesc_3_1@@QAE@ABV01@@Z 12006de2 f   QName.obj
 0001:00005eac       ?getRawName@QName@xercesc_3_1@@QAEPA_WXZ 12006eac f   QName.obj
 0001:00005eac       ?getRawName@QName@xercesc_3_1@@QBEPB_WXZ 12006eac f   QName.obj
 0001:00005f40       ?setName@QName@xercesc_3_1@@QAEXQB_W0I@Z 12006f40 f   QName.obj
 0001:00005f85       ?setName@QName@xercesc_3_1@@QAEXQB_WI@Z 12006f85 f   QName.obj
 0001:0000603b       ?setNPrefix@QName@xercesc_3_1@@QAEXPB_WK@Z 1200703b f   QName.obj
 0001:00006099       ?setNLocalPart@QName@xercesc_3_1@@QAEXPB_WK@Z 12007099 f   QName.obj
 0001:000060f7       ?setValues@QName@xercesc_3_1@@QAEXABV12@@Z 120070f7 f   QName.obj
 0001:00006135       ??8QName@xercesc_3_1@@QBE_NABV01@@Z 12007135 f   QName.obj
 0001:00006198       ?cleanUp@QName@xercesc_3_1@@QAEXXZ 12007198 f   QName.obj
 0001:000061c9       ?createObject@QName@xercesc_3_1@@SAPAVXSerializable@2@PAVMemoryManager@2@@Z 120071c9 f   QName.obj
 0001:000061f0       ?getProtoType@QName@xercesc_3_1@@UBEPAVXProtoType@2@XZ 120071f0 f   QName.obj
 0001:000061f6       ?serialize@QName@xercesc_3_1@@UAEXAAVXSerializeEngine@2@@Z 120071f6 f   QName.obj
 0001:00006286       ??1?$JanitorMemFunCall@VAbstractDOMParser@xercesc_3_1@@@xercesc_3_1@@QAE@XZ 12007286 f i AbstractDOMParser.obj
 0001:00006286       ??1?$JanitorMemFunCall@VDGXMLScanner@xercesc_3_1@@@xercesc_3_1@@QAE@XZ 12007286 f i DGXMLScanner.obj
 0001:00006286       ??1?$JanitorMemFunCall@VDOMLSParserImpl@xercesc_3_1@@@xercesc_3_1@@QAE@XZ 12007286 f i DOMLSParserImpl.obj
 0001:00006286       ??1?$JanitorMemFunCall@VDOMXPathExpressionImpl@xercesc_3_1@@@xercesc_3_1@@QAE@XZ 12007286 f i DOMXPathExpressionImpl.obj
 0001:00006286       ??1?$JanitorMemFunCall@VDOMXPathResultImpl@xercesc_3_1@@@xercesc_3_1@@QAE@XZ 12007286 f i DOMXPathExpressionImpl.obj
 0001:00006286       ??1?$JanitorMemFunCall@VIGXMLScanner@xercesc_3_1@@@xercesc_3_1@@QAE@XZ 12007286 f i IGXMLScanner.obj
 0001:00006286       ??1?$JanitorMemFunCall@VIdentityConstraint@xercesc_3_1@@@xercesc_3_1@@QAE@XZ 12007286 f i IdentityConstraint.obj
 0001:00006286       ??1?$JanitorMemFunCall@VIdentityConstraintHandler@xercesc_3_1@@@xercesc_3_1@@QAE@XZ 12007286 f i IdentityConstraintHandler.obj
 0001:00006286       ??1?$JanitorMemFunCall@VQName@xercesc_3_1@@@xercesc_3_1@@QAE@XZ 12007286 f i QName.obj
 0001:00006286       ??1?$JanitorMemFunCall@VReaderMgr@xercesc_3_1@@@xercesc_3_1@@QAE@XZ 12007286 f i DGXMLScanner.obj
 0001:00006286       ??1?$JanitorMemFunCall@VRegularExpression@xercesc_3_1@@@xercesc_3_1@@QAE@XZ 12007286 f i RegularExpression.obj
 0001:00006286       ??1?$JanitorMemFunCall@VSAX2XMLReaderImpl@xercesc_3_1@@@xercesc_3_1@@QAE@XZ 12007286 f i SAX2XMLReaderImpl.obj
 0001:00006286       ??1?$JanitorMemFunCall@VSAXParser@xercesc_3_1@@@xercesc_3_1@@QAE@XZ 12007286 f i SAXParser.obj
 0001:00006286       ??1?$JanitorMemFunCall@VSGXMLScanner@xercesc_3_1@@@xercesc_3_1@@QAE@XZ 12007286 f i SGXMLScanner.obj
 0001:00006286       ??1?$JanitorMemFunCall@VSchemaGrammar@xercesc_3_1@@@xercesc_3_1@@QAE@XZ 12007286 f i SchemaGrammar.obj
 0001:00006286       ??1?$JanitorMemFunCall@VUnionDatatypeValidator@xercesc_3_1@@@xercesc_3_1@@QAE@XZ 12007286 f i UnionDatatypeValidator.obj
 0001:00006286       ??1?$JanitorMemFunCall@VWFXMLScanner@xercesc_3_1@@@xercesc_3_1@@QAE@XZ 12007286 f i WFXMLScanner.obj
 0001:00006286       ??1?$JanitorMemFunCall@VXMLAttDef@xercesc_3_1@@@xercesc_3_1@@QAE@XZ 12007286 f i XMLAttDef.obj
 0001:00006286       ??1?$JanitorMemFunCall@VXMLBigDecimal@xercesc_3_1@@@xercesc_3_1@@QAE@XZ 12007286 f i XMLBigDecimal.obj
 0001:00006286       ??1?$JanitorMemFunCall@VXMLEntityDecl@xercesc_3_1@@@xercesc_3_1@@QAE@XZ 12007286 f i XMLEntityDecl.obj
 0001:00006286       ??1?$JanitorMemFunCall@VXMLGrammarPoolImpl@xercesc_3_1@@@xercesc_3_1@@QAE@XZ 12007286 f i XMLGrammarPoolImpl.obj
 0001:00006286       ??1?$JanitorMemFunCall@VXMLNotationDecl@xercesc_3_1@@@xercesc_3_1@@QAE@XZ 12007286 f i XMLNotationDecl.obj
 0001:00006286       ??1?$JanitorMemFunCall@VXMLScanner@xercesc_3_1@@@xercesc_3_1@@QAE@XZ 12007286 f i XMLScanner.obj
 0001:00006286       ??1?$JanitorMemFunCall@VXMLURL@xercesc_3_1@@@xercesc_3_1@@QAE@XZ 12007286 f i XMLURL.obj
 0001:00006286       ??1?$JanitorMemFunCall@VXMLUri@xercesc_3_1@@@xercesc_3_1@@QAE@XZ 12007286 f i XMLUri.obj
 0001:00006286       ??1?$JanitorMemFunCall@VXPathMatcher@xercesc_3_1@@@xercesc_3_1@@QAE@XZ 12007286 f i XPathMatcher.obj
 0001:00006286       ??1?$JanitorMemFunCall@VXercesDOMParser@xercesc_3_1@@@xercesc_3_1@@QAE@XZ 12007286 f i XercesDOMParser.obj
 0001:00006286       ??1?$JanitorMemFunCall@VXercesXPath@xercesc_3_1@@@xercesc_3_1@@QAE@XZ 12007286 f i XercesXPath.obj
 0001:000062d4       ??_FXMLStringPool@xercesc_3_1@@QAEXXZ 120072d4 f i StringPool.obj
 0001:000062e2       ??_EXMLStringPool@xercesc_3_1@@UAEPAXI@Z 120072e2 f i StringPool.obj
 0001:00006378       ?addOrFind@XMLStringPool@xercesc_3_1@@UAEIQB_W@Z 12007378 f i StringPool.obj
 0001:000063ab       ?getId@XMLStringPool@xercesc_3_1@@UBEIQB_W@Z 120073ab f i StringPool.obj
 0001:000063d2       ?exists@XMLStringPool@xercesc_3_1@@UBE_NQB_W@Z 120073d2 f i StringPool.obj
 0001:00006410       ?exists@XMLStringPool@xercesc_3_1@@UBE_NI@Z 12007410 f i StringPool.obj
 0001:00006429       ?getValueForId@XMLStringPool@xercesc_3_1@@UBEPB_WI@Z 12007429 f i StringPool.obj
 0001:00006470       ?getStringCount@XMLStringPool@xercesc_3_1@@UBEIXZ 12007470 f i StringPool.obj
 0001:00006475       ??0XMLStringPool@xercesc_3_1@@QAE@IQAVMemoryManager@1@@Z 12007475 f   StringPool.obj
 0001:00006506       ??1XMLStringPool@xercesc_3_1@@UAE@XZ 12007506 f   StringPool.obj
 0001:00006599       ?flushAll@XMLStringPool@xercesc_3_1@@UAEXXZ 12007599 f   StringPool.obj
 0001:000065db       ?addNewEntry@XMLStringPool@xercesc_3_1@@AAEIQB_W@Z 120075db f   StringPool.obj
 0001:000066ab       ?createObject@XMLStringPool@xercesc_3_1@@SAPAVXSerializable@2@PAVMemoryManager@2@@Z 120076ab f   StringPool.obj
 0001:000066df       ?getProtoType@XMLStringPool@xercesc_3_1@@UBEPAVXProtoType@2@XZ 120076df f   StringPool.obj
 0001:000066e5       ?serialize@XMLStringPool@xercesc_3_1@@UAEXAAVXSerializeEngine@2@@Z 120076e5 f   StringPool.obj
 0001:00006771       ??0XMLStringPool@xercesc_3_1@@QAE@QAVMemoryManager@1@@Z 12007771 f   StringPool.obj
 0001:00006801       ??0?$RefHashTableOf@UPoolElem@XMLStringPool@xercesc_3_1@@UStringHasher@3@@xercesc_3_1@@QAE@K_NQAVMemoryManager@1@@Z 12007801 f i StringPool.obj
 0001:00006801       ??0?$RefHashTableOf@_WUStringHasher@xercesc_3_1@@@xercesc_3_1@@QAE@K_NQAVMemoryManager@1@@Z 12007801 f i DOMLSSerializerImpl.obj
 0001:00006871       ??1?$RefHashTableOf@UPoolElem@XMLStringPool@xercesc_3_1@@UStringHasher@3@@xercesc_3_1@@QAE@XZ 12007871 f i StringPool.obj
 0001:000068bc       ?removeAll@?$RefHashTableOf@UPoolElem@XMLStringPool@xercesc_3_1@@UStringHasher@3@@xercesc_3_1@@QAEXXZ 120078bc f i StringPool.obj
 0001:0000691a       ?put@?$RefHashTableOf@UPoolElem@XMLStringPool@xercesc_3_1@@UStringHasher@3@@xercesc_3_1@@QAEXPAXQAUPoolElem@XMLStringPool@2@@Z 1200791a f i StringPool.obj
 0001:00006996       ?findBucketElem@?$RefHashTableOf@UPoolElem@XMLStringPool@xercesc_3_1@@UStringHasher@3@@xercesc_3_1@@AAEPAU?$RefHashTableBucketElem@UPoolElem@XMLStringPool@xercesc_3_1@@@2@QBXAAK@Z 12007996 f i StringPool.obj
 0001:00006996       ?findBucketElem@?$RefHashTableOf@V?$ValueVectorOf@PAVSchemaElementDecl@xercesc_3_1@@@xercesc_3_1@@UStringHasher@2@@xercesc_3_1@@AAEPAU?$RefHashTableBucketElem@V?$ValueVectorOf@PAVSchemaElementDecl@xercesc_3_1@@@xercesc_3_1@@@2@QBXAAK@Z 12007996 f i TraverseSchema.obj
 0001:00006996       ?findBucketElem@?$RefHashTableOf@VCPMapEntry@xercesc_3_1@@UStringHasher@2@@xercesc_3_1@@AAEPAU?$RefHashTableBucketElem@VCPMapEntry@xercesc_3_1@@@2@QBXAAK@Z 12007996 f i Win32TransService.obj
 0001:00006996       ?findBucketElem@?$RefHashTableOf@VComplexTypeInfo@xercesc_3_1@@UStringHasher@2@@xercesc_3_1@@AAEPAU?$RefHashTableBucketElem@VComplexTypeInfo@xercesc_3_1@@@2@QBXAAK@Z 12007996 f i XTemplateSerializer.obj
 0001:00006996       ?findBucketElem@?$RefHashTableOf@VDOMElement@xercesc_3_1@@UStringHasher@2@@xercesc_3_1@@AAEPAU?$RefHashTableBucketElem@VDOMElement@xercesc_3_1@@@2@QBXAAK@Z 12007996 f i SchemaInfo.obj
 0001:00006996       ?findBucketElem@?$RefHashTableOf@VDTDAttDef@xercesc_3_1@@UStringHasher@2@@xercesc_3_1@@AAEPAU?$RefHashTableBucketElem@VDTDAttDef@xercesc_3_1@@@2@QBXAAK@Z 12007996 f i XTemplateSerializer.obj
 0001:00006996       ?findBucketElem@?$RefHashTableOf@VDTDElementDecl@xercesc_3_1@@UStringHasher@2@@xercesc_3_1@@AAEPAU?$RefHashTableBucketElem@VDTDElementDecl@xercesc_3_1@@@2@QBXAAK@Z 12007996 f i XMLGrammarPoolImpl.obj
 0001:00006996       ?findBucketElem@?$RefHashTableOf@VDTDEntityDecl@xercesc_3_1@@UStringHasher@2@@xercesc_3_1@@AAEPAU?$RefHashTableBucketElem@VDTDEntityDecl@xercesc_3_1@@@2@QBXAAK@Z 12007996 f i XMLGrammarPoolImpl.obj
 0001:00006996       ?findBucketElem@?$RefHashTableOf@VDTDEntityDecl@xercesc_3_1@@UStringHasher@2@@xercesc_3_1@@ABEPBU?$RefHashTableBucketElem@VDTDEntityDecl@xercesc_3_1@@@2@QBXAAK@Z 12007996 f i XMLGrammarPoolImpl.obj
 0001:00006996       ?findBucketElem@?$RefHashTableOf@VDatatypeValidator@xercesc_3_1@@UStringHasher@2@@xercesc_3_1@@AAEPAU?$RefHashTableBucketElem@VDatatypeValidator@xercesc_3_1@@@2@QBXAAK@Z 12007996 f i XMLGrammarPoolImpl.obj
 0001:00006996       ?findBucketElem@?$RefHashTableOf@VENameMap@xercesc_3_1@@UStringHasher@2@@xercesc_3_1@@AAEPAU?$RefHashTableBucketElem@VENameMap@xercesc_3_1@@@2@QBXAAK@Z 12007996 f i TransService.obj
 0001:00006996       ?findBucketElem@?$RefHashTableOf@VGrammar@xercesc_3_1@@UStringHasher@2@@xercesc_3_1@@AAEPAU?$RefHashTableBucketElem@VGrammar@xercesc_3_1@@@2@QBXAAK@Z 12007996 f i XMLGrammarPoolImpl.obj
 0001:00006996       ?findBucketElem@?$RefHashTableOf@VKVStringPair@xercesc_3_1@@UStringHasher@2@@xercesc_3_1@@AAEPAU?$RefHashTableBucketElem@VKVStringPair@xercesc_3_1@@@2@QBXAAK@Z 12007996 f i XTemplateSerializer.obj
 0001:00006996       ?findBucketElem@?$RefHashTableOf@VRangeFactory@xercesc_3_1@@UStringHasher@2@@xercesc_3_1@@AAEPAU?$RefHashTableBucketElem@VRangeFactory@xercesc_3_1@@@2@QBXAAK@Z 12007996 f i RangeTokenMap.obj
 0001:00006996       ?findBucketElem@?$RefHashTableOf@VRangeTokenElemMap@xercesc_3_1@@UStringHasher@2@@xercesc_3_1@@AAEPAU?$RefHashTableBucketElem@VRangeTokenElemMap@xercesc_3_1@@@2@QBXAAK@Z 12007996 f i RangeTokenMap.obj
 0001:00006996       ?findBucketElem@?$RefHashTableOf@VXMLAttDef@xercesc_3_1@@UStringHasher@2@@xercesc_3_1@@AAEPAU?$RefHashTableBucketElem@VXMLAttDef@xercesc_3_1@@@2@QBXAAK@Z 12007996 f i IGXMLScanner2.obj
 0001:00006996       ?findBucketElem@?$RefHashTableOf@VXMLElementDecl@xercesc_3_1@@UStringHasher@2@@xercesc_3_1@@AAEPAU?$RefHashTableBucketElem@VXMLElementDecl@xercesc_3_1@@@2@QBXAAK@Z 12007996 f i WFXMLScanner.obj
 0001:00006996       ?findBucketElem@?$RefHashTableOf@VXMLNotationDecl@xercesc_3_1@@UStringHasher@2@@xercesc_3_1@@AAEPAU?$RefHashTableBucketElem@VXMLNotationDecl@xercesc_3_1@@@2@QBXAAK@Z 12007996 f i XMLGrammarPoolImpl.obj
 0001:00006996       ?findBucketElem@?$RefHashTableOf@VXMLRefInfo@xercesc_3_1@@UStringHasher@2@@xercesc_3_1@@AAEPAU?$RefHashTableBucketElem@VXMLRefInfo@xercesc_3_1@@@2@QBXAAK@Z 12007996 f i ValidationContextImpl.obj
 0001:00006996       ?findBucketElem@?$RefHashTableOf@VXSNamespaceItem@xercesc_3_1@@UStringHasher@2@@xercesc_3_1@@AAEPAU?$RefHashTableBucketElem@VXSNamespaceItem@xercesc_3_1@@@2@QBXAAK@Z 12007996 f i XSModel.obj
 0001:00006996       ?findBucketElem@?$RefHashTableOf@VXSObject@xercesc_3_1@@UStringHasher@2@@xercesc_3_1@@AAEPAU?$RefHashTableBucketElem@VXSObject@xercesc_3_1@@@2@QBXAAK@Z 12007996 f i XSModel.obj
 0001:00006996       ?findBucketElem@?$RefHashTableOf@VXercesAttGroupInfo@xercesc_3_1@@UStringHasher@2@@xercesc_3_1@@AAEPAU?$RefHashTableBucketElem@VXercesAttGroupInfo@xercesc_3_1@@@2@QBXAAK@Z 12007996 f i XTemplateSerializer.obj
 0001:00006996       ?findBucketElem@?$RefHashTableOf@VXercesGroupInfo@xercesc_3_1@@UStringHasher@2@@xercesc_3_1@@AAEPAU?$RefHashTableBucketElem@VXercesGroupInfo@xercesc_3_1@@@2@QBXAAK@Z 12007996 f i XTemplateSerializer.obj
 0001:00006996       ?findBucketElem@?$RefHashTableOf@_WUStringHasher@xercesc_3_1@@@xercesc_3_1@@AAEPAU?$RefHashTableBucketElem@_W@2@QBXAAK@Z 12007996 f i DOMLSSerializerImpl.obj
 0001:000069d9       ?rehash@?$RefHashTableOf@UPoolElem@XMLStringPool@xercesc_3_1@@UStringHasher@3@@xercesc_3_1@@AAEXXZ 120079d9 f i StringPool.obj
 0001:000069d9       ?rehash@?$RefHashTableOf@V?$ValueVectorOf@PAVSchemaElementDecl@xercesc_3_1@@@xercesc_3_1@@UStringHasher@2@@xercesc_3_1@@AAEXXZ 120079d9 f i TraverseSchema.obj
 0001:000069d9       ?rehash@?$RefHashTableOf@VCPMapEntry@xercesc_3_1@@UStringHasher@2@@xercesc_3_1@@AAEXXZ 120079d9 f i Win32TransService.obj
 0001:000069d9       ?rehash@?$RefHashTableOf@VComplexTypeInfo@xercesc_3_1@@UStringHasher@2@@xercesc_3_1@@AAEXXZ 120079d9 f i XTemplateSerializer.obj
 0001:000069d9       ?rehash@?$RefHashTableOf@VDOMElement@xercesc_3_1@@UStringHasher@2@@xercesc_3_1@@AAEXXZ 120079d9 f i SchemaInfo.obj
 0001:000069d9       ?rehash@?$RefHashTableOf@VDTDAttDef@xercesc_3_1@@UStringHasher@2@@xercesc_3_1@@AAEXXZ 120079d9 f i XTemplateSerializer.obj
 0001:000069d9       ?rehash@?$RefHashTableOf@VDTDElementDecl@xercesc_3_1@@UStringHasher@2@@xercesc_3_1@@AAEXXZ 120079d9 f i XMLGrammarPoolImpl.obj
 0001:000069d9       ?rehash@?$RefHashTableOf@VDTDEntityDecl@xercesc_3_1@@UStringHasher@2@@xercesc_3_1@@AAEXXZ 120079d9 f i XMLGrammarPoolImpl.obj
 0001:000069d9       ?rehash@?$RefHashTableOf@VDatatypeValidator@xercesc_3_1@@UStringHasher@2@@xercesc_3_1@@AAEXXZ 120079d9 f i XTemplateSerializer.obj
 0001:000069d9       ?rehash@?$RefHashTableOf@VENameMap@xercesc_3_1@@UStringHasher@2@@xercesc_3_1@@AAEXXZ 120079d9 f i TransService.obj
 0001:000069d9       ?rehash@?$RefHashTableOf@VGrammar@xercesc_3_1@@UStringHasher@2@@xercesc_3_1@@AAEXXZ 120079d9 f i XMLGrammarPoolImpl.obj
 0001:000069d9       ?rehash@?$RefHashTableOf@VKVStringPair@xercesc_3_1@@UStringHasher@2@@xercesc_3_1@@AAEXXZ 120079d9 f i XTemplateSerializer.obj
 0001:000069d9       ?rehash@?$RefHashTableOf@VRangeFactory@xercesc_3_1@@UStringHasher@2@@xercesc_3_1@@AAEXXZ 120079d9 f i RangeTokenMap.obj
 0001:000069d9       ?rehash@?$RefHashTableOf@VRangeTokenElemMap@xercesc_3_1@@UStringHasher@2@@xercesc_3_1@@AAEXXZ 120079d9 f i RangeTokenMap.obj
 0001:000069d9       ?rehash@?$RefHashTableOf@VXMLAttDef@xercesc_3_1@@UStringHasher@2@@xercesc_3_1@@AAEXXZ 120079d9 f i XTemplateSerializer.obj
 0001:000069d9       ?rehash@?$RefHashTableOf@VXMLElementDecl@xercesc_3_1@@UStringHasher@2@@xercesc_3_1@@AAEXXZ 120079d9 f i WFXMLScanner.obj
 0001:000069d9       ?rehash@?$RefHashTableOf@VXMLNotationDecl@xercesc_3_1@@UStringHasher@2@@xercesc_3_1@@AAEXXZ 120079d9 f i XMLGrammarPoolImpl.obj
 0001:000069d9       ?rehash@?$RefHashTableOf@VXMLRefInfo@xercesc_3_1@@UStringHasher@2@@xercesc_3_1@@AAEXXZ 120079d9 f i ValidationContextImpl.obj
 0001:000069d9       ?rehash@?$RefHashTableOf@VXSNamespaceItem@xercesc_3_1@@UStringHasher@2@@xercesc_3_1@@AAEXXZ 120079d9 f i XSModel.obj
 0001:000069d9       ?rehash@?$RefHashTableOf@VXSObject@xercesc_3_1@@UStringHasher@2@@xercesc_3_1@@AAEXXZ 120079d9 f i XSModel.obj
 0001:000069d9       ?rehash@?$RefHashTableOf@VXercesAttGroupInfo@xercesc_3_1@@UStringHasher@2@@xercesc_3_1@@AAEXXZ 120079d9 f i XTemplateSerializer.obj
 0001:000069d9       ?rehash@?$RefHashTableOf@VXercesGroupInfo@xercesc_3_1@@UStringHasher@2@@xercesc_3_1@@AAEXXZ 120079d9 f i XTemplateSerializer.obj
 0001:000069d9       ?rehash@?$RefHashTableOf@_WUStringHasher@xercesc_3_1@@@xercesc_3_1@@AAEXXZ 120079d9 f i DOMLSSerializerImpl.obj
 0001:00006a88       ??_EXMLSynchronizedStringPool@xercesc_3_1@@UAEPAXI@Z 12007a88 f i SynchronizedStringPool.obj
 0001:00006b1e       ??0XMLSynchronizedStringPool@xercesc_3_1@@QAE@PBVXMLStringPool@1@IQAVMemoryManager@1@@Z 12007b1e f   SynchronizedStringPool.obj
 0001:00006b5f       ??1XMLSynchronizedStringPool@xercesc_3_1@@UAE@XZ 12007b5f f   SynchronizedStringPool.obj
 0001:00006b78       ?addOrFind@XMLSynchronizedStringPool@xercesc_3_1@@UAEIQB_W@Z 12007b78 f   SynchronizedStringPool.obj
 0001:00006bd6       ?exists@XMLSynchronizedStringPool@xercesc_3_1@@UBE_NQB_W@Z 12007bd6 f   SynchronizedStringPool.obj
 0001:00006c28       ?exists@XMLSynchronizedStringPool@xercesc_3_1@@UBE_NI@Z 12007c28 f   SynchronizedStringPool.obj
 0001:00006c83       ?flushAll@XMLSynchronizedStringPool@xercesc_3_1@@UAEXXZ 12007c83 f   SynchronizedStringPool.obj
 0001:00006c88       ?getId@XMLSynchronizedStringPool@xercesc_3_1@@UBEIQB_W@Z 12007c88 f   SynchronizedStringPool.obj
 0001:00006ce0       ?getValueForId@XMLSynchronizedStringPool@xercesc_3_1@@UBEPB_WI@Z 12007ce0 f   SynchronizedStringPool.obj
 0001:00006d48       ?getStringCount@XMLSynchronizedStringPool@xercesc_3_1@@UBEIXZ 12007d48 f   SynchronizedStringPool.obj
 0001:00006d87       ??_EXMLTransService@xercesc_3_1@@UAEPAXI@Z 12007d87 f i TransService.obj
 0001:00006e21       ??_EXMLTranscoder@xercesc_3_1@@UAEPAXI@Z 12007e21 f i TransService.obj
 0001:00006eb9       ??_EXMLLCPTranscoder@xercesc_3_1@@UAEPAXI@Z 12007eb9 f i TransService.obj
 0001:00006f53       ?checkTrailingBytes@XMLUTF8Transcoder@xercesc_3_1@@ABEXEII@Z 12007f53 f i TransService.obj
 0001:00006fb8       ??1ENameMap@xercesc_3_1@@UAE@XZ 12007fb8 f i TransService.obj
 0001:00007002       ??0ENameMap@xercesc_3_1@@IAE@QB_W@Z 12008002 f i TransService.obj
 0001:00007028       ??_EENameMap@xercesc_3_1@@UAEPAXI@Z 12008028 f i * CIL library *:* CIL module *
 0001:00007028       ??_GENameMap@xercesc_3_1@@UAEPAXI@Z 12008028 f i TransService.obj
 0001:00007058       ?initializeTransService@XMLInitializer@xercesc_3_1@@KAXXZ 12008058 f   TransService.obj
 0001:000070bc       ?terminateTransService@XMLInitializer@xercesc_3_1@@KAXXZ 120080bc f   TransService.obj
 0001:000070f5       ??0XMLTransService@xercesc_3_1@@IAE@XZ 120080f5 f   TransService.obj
 0001:000070fe       ??1XMLTransService@xercesc_3_1@@UAE@XZ 120080fe f   TransService.obj
 0001:00007105       ?addEncoding@XMLTransService@xercesc_3_1@@SAXQB_WQAVENameMap@2@@Z 12008105 f   TransService.obj
 0001:00007115       ?makeNewTranscoderFor@XMLTransService@xercesc_3_1@@QAEPAVXMLTranscoder@2@QBDAAW4Codes@12@KQAVMemoryManager@2@@Z 12008115 f   TransService.obj
 0001:0000715e       ?makeNewTranscoderFor@XMLTransService@xercesc_3_1@@QAEPAVXMLTranscoder@2@QB_WAAW4Codes@12@KQAVMemoryManager@2@@Z 1200815e f   TransService.obj
 0001:00007255       ?makeNewTranscoderFor@XMLTransService@xercesc_3_1@@QAEPAVXMLTranscoder@2@W4Encodings@XMLRecognizer@2@AAW4Codes@12@KQAVMemoryManager@2@@Z 12008255 f   TransService.obj
 0001:000072c9       ?initTransService@XMLTransService@xercesc_3_1@@MAEXXZ 120082c9 f   TransService.obj
 0001:00008020       ?strictIANAEncoding@XMLTransService@xercesc_3_1@@AAEX_N@Z 12009020 f   TransService.obj
 0001:0000802f       ?isStrictIANAEncoding@XMLTransService@xercesc_3_1@@AAE_NXZ 1200902f f   TransService.obj
 0001:00008035       ??1XMLTranscoder@xercesc_3_1@@UAE@XZ 12009035 f   TransService.obj
 0001:0000807c       ??0XMLTranscoder@xercesc_3_1@@IAE@QB_WKQAVMemoryManager@1@@Z 1200907c f   TransService.obj
 0001:000080ad       ??0XMLLCPTranscoder@xercesc_3_1@@IAE@XZ 120090ad f   TransService.obj
 0001:000080b6       ??1Win32LCPTranscoder@xercesc_3_1@@UAE@XZ 120090b6 f   Win32TransService.obj
 0001:000080b6       ??1XMLLCPTranscoder@xercesc_3_1@@UAE@XZ 120090b6 f   TransService.obj
 0001:000080bd       ??0TranscodeToStr@xercesc_3_1@@QAE@PB_WPBDPAVMemoryManager@1@@Z 120090bd f   TransService.obj
 0001:0000811e       ??0TranscodeToStr@xercesc_3_1@@QAE@PB_WKPBDPAVMemoryManager@1@@Z 1200911e f   TransService.obj
 0001:00008178       ??0TranscodeToStr@xercesc_3_1@@QAE@PB_WPAVXMLTranscoder@1@PAVMemoryManager@1@@Z 12009178 f   TransService.obj
 0001:000081a9       ??0TranscodeToStr@xercesc_3_1@@QAE@PB_WKPAVXMLTranscoder@1@PAVMemoryManager@1@@Z 120091a9 f   TransService.obj
 0001:000081d1       ??1TranscodeFromStr@xercesc_3_1@@QAE@XZ 120091d1 f   TransService.obj
 0001:000081d1       ??1TranscodeToStr@xercesc_3_1@@QAE@XZ 120091d1 f   TransService.obj
 0001:00008214       ?transcode@TranscodeToStr@xercesc_3_1@@AAEXPB_WKPAVXMLTranscoder@2@@Z 12009214 f   TransService.obj
 0001:0000839e       ??0TranscodeFromStr@xercesc_3_1@@QAE@PBEKPBDPAVMemoryManager@1@@Z 1200939e f   TransService.obj
 0001:000083f8       ??0TranscodeFromStr@xercesc_3_1@@QAE@PBEKPAVXMLTranscoder@1@PAVMemoryManager@1@@Z 120093f8 f   TransService.obj
 0001:00008420       ?transcode@TranscodeFromStr@xercesc_3_1@@AAEXPBEKPAVXMLTranscoder@2@@Z 12009420 f   TransService.obj
 0001:000085d9       ??0?$RefHashTableOf@VENameMap@xercesc_3_1@@UStringHasher@2@@xercesc_3_1@@QAE@KQAVMemoryManager@1@@Z 120095d9 f i TransService.obj
 0001:00008626       ??1?$RefHashTableOf@VComplexTypeInfo@xercesc_3_1@@UStringHasher@2@@xercesc_3_1@@QAE@XZ 12009626 f i XSModel.obj
 0001:00008626       ??1?$RefHashTableOf@VDOMElement@xercesc_3_1@@UStringHasher@2@@xercesc_3_1@@QAE@XZ 12009626 f i IGXMLScanner.obj
 0001:00008626       ??1?$RefHashTableOf@VDTDAttDef@xercesc_3_1@@UStringHasher@2@@xercesc_3_1@@QAE@XZ 12009626 f i XTemplateSerializer.obj
 0001:00008626       ??1?$RefHashTableOf@VENameMap@xercesc_3_1@@UStringHasher@2@@xercesc_3_1@@QAE@XZ 12009626 f i TransService.obj
 0001:00008626       ??1?$RefHashTableOf@VKVStringPair@xercesc_3_1@@UStringHasher@2@@xercesc_3_1@@QAE@XZ 12009626 f i XSObjectFactory.obj
 0001:00008626       ??1?$RefHashTableOf@VRangeFactory@xercesc_3_1@@UStringHasher@2@@xercesc_3_1@@QAE@XZ 12009626 f i RangeTokenMap.obj
 0001:00008626       ??1?$RefHashTableOf@VXMLAttDef@xercesc_3_1@@UStringHasher@2@@xercesc_3_1@@QAE@XZ 12009626 f i XSModel.obj
 0001:00008626       ??1?$RefHashTableOf@VXSObject@xercesc_3_1@@UPtrHasher@2@@xercesc_3_1@@QAE@XZ 12009626 f i XSObjectFactory.obj
 0001:00008626       ??1?$RefHashTableOf@VXSObject@xercesc_3_1@@UStringHasher@2@@xercesc_3_1@@QAE@XZ 12009626 f i XSNamespaceItem.obj
 0001:00008626       ??1?$RefHashTableOf@VXercesAttGroupInfo@xercesc_3_1@@UStringHasher@2@@xercesc_3_1@@QAE@XZ 12009626 f i XSModel.obj
 0001:00008626       ??1?$RefHashTableOf@VXercesGroupInfo@xercesc_3_1@@UStringHasher@2@@xercesc_3_1@@QAE@XZ 12009626 f i XSModel.obj
 0001:000086c2       ?put@?$RefHashTableOf@VENameMap@xercesc_3_1@@UStringHasher@2@@xercesc_3_1@@QAEXPAXQAVENameMap@2@@Z 120096c2 f i TransService.obj
 0001:00008745       ??0?$RefVectorOf@VENameMap@xercesc_3_1@@@xercesc_3_1@@QAE@K_NQAVMemoryManager@1@@Z 12009745 f i TransService.obj
 0001:00008799       ??1?$RefVectorOf@VENameMap@xercesc_3_1@@@xercesc_3_1@@UAE@XZ 12009799 f i TransService.obj
 0001:0000880d       ?setElementAt@?$BaseRefVectorOf@VContentSpecNode@xercesc_3_1@@@xercesc_3_1@@UAEXQAVContentSpecNode@2@K@Z 1200980d f i XTemplateSerializer.obj
 0001:0000880d       ?setElementAt@?$BaseRefVectorOf@VDOMDocumentImpl@xercesc_3_1@@@xercesc_3_1@@UAEXQAVDOMDocumentImpl@2@K@Z 1200980d f i AbstractDOMParser.obj
 0001:0000880d       ?setElementAt@?$BaseRefVectorOf@VDOMImplementation@xercesc_3_1@@@xercesc_3_1@@UAEXQAVDOMImplementation@2@K@Z 1200980d f i DOMImplementationListImpl.obj
 0001:0000880d       ?setElementAt@?$BaseRefVectorOf@VDOMImplementationSource@xercesc_3_1@@@xercesc_3_1@@UAEXQAVDOMImplementationSource@2@K@Z 1200980d f i DOMImplementationRegistry.obj
 0001:0000880d       ?setElementAt@?$BaseRefVectorOf@VDOMNode@xercesc_3_1@@@xercesc_3_1@@UAEXQAVDOMNode@2@K@Z 1200980d f i DOMDocumentImpl.obj
 0001:0000880d       ?setElementAt@?$BaseRefVectorOf@VDOMNodeIteratorImpl@xercesc_3_1@@@xercesc_3_1@@UAEXQAVDOMNodeIteratorImpl@2@K@Z 1200980d f i DOMDocumentImpl.obj
 0001:0000880d       ?setElementAt@?$BaseRefVectorOf@VDOMRangeImpl@xercesc_3_1@@@xercesc_3_1@@UAEXQAVDOMRangeImpl@2@K@Z 1200980d f i DOMDocumentImpl.obj
 0001:0000880d       ?setElementAt@?$BaseRefVectorOf@VDatatypeValidator@xercesc_3_1@@@xercesc_3_1@@UAEXQAVDatatypeValidator@2@K@Z 1200980d f i XTemplateSerializer.obj
 0001:0000880d       ?setElementAt@?$BaseRefVectorOf@VENameMap@xercesc_3_1@@@xercesc_3_1@@UAEXQAVENameMap@2@K@Z 1200980d f i TransService.obj
 0001:0000880d       ?setElementAt@?$BaseRefVectorOf@VIC_Field@xercesc_3_1@@@xercesc_3_1@@UAEXQAVIC_Field@2@K@Z 1200980d f i XMLElementDecl.obj
 0001:0000880d       ?setElementAt@?$BaseRefVectorOf@VIdentityConstraint@xercesc_3_1@@@xercesc_3_1@@UAEXQAVIdentityConstraint@2@K@Z 1200980d f i XMLElementDecl.obj
 0001:0000880d       ?setElementAt@?$BaseRefVectorOf@VKVStringPair@xercesc_3_1@@@xercesc_3_1@@UAEXQAVKVStringPair@2@K@Z 1200980d f i IGXMLScanner.obj
 0001:0000880d       ?setElementAt@?$BaseRefVectorOf@VMatch@xercesc_3_1@@@xercesc_3_1@@UAEXQAVMatch@2@K@Z 1200980d f i RegularExpression.obj
 0001:0000880d       ?setElementAt@?$BaseRefVectorOf@VOp@xercesc_3_1@@@xercesc_3_1@@UAEXQAVOp@2@K@Z 1200980d f i Op.obj
 0001:0000880d       ?setElementAt@?$BaseRefVectorOf@VSchemaAttDef@xercesc_3_1@@@xercesc_3_1@@UAEXQAVSchemaAttDef@2@K@Z 1200980d f i XMLGrammarPoolImpl.obj
 0001:0000880d       ?setElementAt@?$BaseRefVectorOf@VSchemaElementDecl@xercesc_3_1@@@xercesc_3_1@@UAEXQAVSchemaElementDecl@2@K@Z 1200980d f i XMLElementDecl.obj
 0001:0000880d       ?setElementAt@?$BaseRefVectorOf@VToken@xercesc_3_1@@@xercesc_3_1@@UAEXQAVToken@2@K@Z 1200980d f i TokenFactory.obj
 0001:0000880d       ?setElementAt@?$BaseRefVectorOf@VXMLElementDecl@xercesc_3_1@@@xercesc_3_1@@UAEXQAVXMLElementDecl@2@K@Z 1200980d f i WFXMLScanner.obj
 0001:0000880d       ?setElementAt@?$BaseRefVectorOf@VXMLEntityDecl@xercesc_3_1@@@xercesc_3_1@@UAEXQAVXMLEntityDecl@2@K@Z 1200980d f i ReaderMgr.obj
 0001:0000880d       ?setElementAt@?$BaseRefVectorOf@VXMLNumber@xercesc_3_1@@@xercesc_3_1@@UAEXQAVXMLNumber@2@K@Z 1200980d f i XTemplateSerializer.obj
 0001:0000880d       ?setElementAt@?$BaseRefVectorOf@VXPathMatcher@xercesc_3_1@@@xercesc_3_1@@UAEXQAVXPathMatcher@2@K@Z 1200980d f i XPathMatcherStack.obj
 0001:0000880d       ?setElementAt@?$BaseRefVectorOf@VXSAnnotation@xercesc_3_1@@@xercesc_3_1@@UAEXQAVXSAnnotation@2@K@Z 1200980d f i XSComplexTypeDefinition.obj
 0001:0000880d       ?setElementAt@?$BaseRefVectorOf@VXSAttributeUse@xercesc_3_1@@@xercesc_3_1@@UAEXQAVXSAttributeUse@2@K@Z 1200980d f i XSObjectFactory.obj
 0001:0000880d       ?setElementAt@?$BaseRefVectorOf@VXSFacet@xercesc_3_1@@@xercesc_3_1@@UAEXQAVXSFacet@2@K@Z 1200980d f i XSObjectFactory.obj
 0001:0000880d       ?setElementAt@?$BaseRefVectorOf@VXSIDCDefinition@xercesc_3_1@@@xercesc_3_1@@UAEXQAVXSIDCDefinition@2@K@Z 1200980d f i XSObjectFactory.obj
 0001:0000880d       ?setElementAt@?$BaseRefVectorOf@VXSMultiValueFacet@xercesc_3_1@@@xercesc_3_1@@UAEXQAVXSMultiValueFacet@2@K@Z 1200980d f i XSObjectFactory.obj
 0001:0000880d       ?setElementAt@?$BaseRefVectorOf@VXSObject@xercesc_3_1@@@xercesc_3_1@@UAEXQAVXSObject@2@K@Z 1200980d f i XSModel.obj
 0001:0000880d       ?setElementAt@?$BaseRefVectorOf@VXSParticle@xercesc_3_1@@@xercesc_3_1@@UAEXQAVXSParticle@2@K@Z 1200980d f i XSObjectFactory.obj
 0001:0000880d       ?setElementAt@?$BaseRefVectorOf@VXSSimpleTypeDefinition@xercesc_3_1@@@xercesc_3_1@@UAEXQAVXSSimpleTypeDefinition@2@K@Z 1200980d f i XSObjectFactory.obj
 0001:0000880d       ?setElementAt@?$BaseRefVectorOf@VXercesLocationPath@xercesc_3_1@@@xercesc_3_1@@UAEXQAVXercesLocationPath@2@K@Z 1200980d f i XTemplateSerializer.obj
 0001:0000880d       ?setElementAt@?$BaseRefVectorOf@VXercesStep@xercesc_3_1@@@xercesc_3_1@@UAEXQAVXercesStep@2@K@Z 1200980d f i XTemplateSerializer.obj
 0001:00008869       ?removeAllElements@?$BaseRefVectorOf@VContentSpecNode@xercesc_3_1@@@xercesc_3_1@@UAEXXZ 12009869 f i XTemplateSerializer.obj
 0001:00008869       ?removeAllElements@?$BaseRefVectorOf@VDOMDocumentImpl@xercesc_3_1@@@xercesc_3_1@@UAEXXZ 12009869 f i AbstractDOMParser.obj
 0001:00008869       ?removeAllElements@?$BaseRefVectorOf@VDOMImplementation@xercesc_3_1@@@xercesc_3_1@@UAEXXZ 12009869 f i DOMImplementationListImpl.obj
 0001:00008869       ?removeAllElements@?$BaseRefVectorOf@VDOMImplementationSource@xercesc_3_1@@@xercesc_3_1@@UAEXXZ 12009869 f i DOMImplementationRegistry.obj
 0001:00008869       ?removeAllElements@?$BaseRefVectorOf@VDOMNode@xercesc_3_1@@@xercesc_3_1@@UAEXXZ 12009869 f i DOMDocumentImpl.obj
 0001:00008869       ?removeAllElements@?$BaseRefVectorOf@VDOMNodeIteratorImpl@xercesc_3_1@@@xercesc_3_1@@UAEXXZ 12009869 f i DOMDocumentImpl.obj
 0001:00008869       ?removeAllElements@?$BaseRefVectorOf@VDOMRangeImpl@xercesc_3_1@@@xercesc_3_1@@UAEXXZ 12009869 f i DOMDocumentImpl.obj
 0001:00008869       ?removeAllElements@?$BaseRefVectorOf@VDatatypeValidator@xercesc_3_1@@@xercesc_3_1@@UAEXXZ 12009869 f i XTemplateSerializer.obj
 0001:00008869       ?removeAllElements@?$BaseRefVectorOf@VENameMap@xercesc_3_1@@@xercesc_3_1@@UAEXXZ 12009869 f i TransService.obj
 0001:00008869       ?removeAllElements@?$BaseRefVectorOf@VIC_Field@xercesc_3_1@@@xercesc_3_1@@UAEXXZ 12009869 f i XMLElementDecl.obj
 0001:00008869       ?removeAllElements@?$BaseRefVectorOf@VIdentityConstraint@xercesc_3_1@@@xercesc_3_1@@UAEXXZ 12009869 f i XMLElementDecl.obj
 0001:00008869       ?removeAllElements@?$BaseRefVectorOf@VKVStringPair@xercesc_3_1@@@xercesc_3_1@@UAEXXZ 12009869 f i IGXMLScanner.obj
 0001:00008869       ?removeAllElements@?$BaseRefVectorOf@VMatch@xercesc_3_1@@@xercesc_3_1@@UAEXXZ 12009869 f i RegularExpression.obj
 0001:00008869       ?removeAllElements@?$BaseRefVectorOf@VOp@xercesc_3_1@@@xercesc_3_1@@UAEXXZ 12009869 f i Op.obj
 0001:00008869       ?removeAllElements@?$BaseRefVectorOf@VSchemaAttDef@xercesc_3_1@@@xercesc_3_1@@UAEXXZ 12009869 f i XMLGrammarPoolImpl.obj
 0001:00008869       ?removeAllElements@?$BaseRefVectorOf@VSchemaElementDecl@xercesc_3_1@@@xercesc_3_1@@UAEXXZ 12009869 f i XMLElementDecl.obj
 0001:00008869       ?removeAllElements@?$BaseRefVectorOf@VToken@xercesc_3_1@@@xercesc_3_1@@UAEXXZ 12009869 f i TokenFactory.obj
 0001:00008869       ?removeAllElements@?$BaseRefVectorOf@VXMLElementDecl@xercesc_3_1@@@xercesc_3_1@@UAEXXZ 12009869 f i WFXMLScanner.obj
 0001:00008869       ?removeAllElements@?$BaseRefVectorOf@VXMLEntityDecl@xercesc_3_1@@@xercesc_3_1@@UAEXXZ 12009869 f i ReaderMgr.obj
 0001:00008869       ?removeAllElements@?$BaseRefVectorOf@VXMLNumber@xercesc_3_1@@@xercesc_3_1@@UAEXXZ 12009869 f i XTemplateSerializer.obj
 0001:00008869       ?removeAllElements@?$BaseRefVectorOf@VXPathMatcher@xercesc_3_1@@@xercesc_3_1@@UAEXXZ 12009869 f i XPathMatcherStack.obj
 0001:00008869       ?removeAllElements@?$BaseRefVectorOf@VXSAnnotation@xercesc_3_1@@@xercesc_3_1@@UAEXXZ 12009869 f i XSComplexTypeDefinition.obj
 0001:00008869       ?removeAllElements@?$BaseRefVectorOf@VXSAttributeUse@xercesc_3_1@@@xercesc_3_1@@UAEXXZ 12009869 f i XSObjectFactory.obj
 0001:00008869       ?removeAllElements@?$BaseRefVectorOf@VXSFacet@xercesc_3_1@@@xercesc_3_1@@UAEXXZ 12009869 f i XSObjectFactory.obj
 0001:00008869       ?removeAllElements@?$BaseRefVectorOf@VXSIDCDefinition@xercesc_3_1@@@xercesc_3_1@@UAEXXZ 12009869 f i XSObjectFactory.obj
 0001:00008869       ?removeAllElements@?$BaseRefVectorOf@VXSMultiValueFacet@xercesc_3_1@@@xercesc_3_1@@UAEXXZ 12009869 f i XSObjectFactory.obj
 0001:00008869       ?removeAllElements@?$BaseRefVectorOf@VXSObject@xercesc_3_1@@@xercesc_3_1@@UAEXXZ 12009869 f i XSModel.obj
 0001:00008869       ?removeAllElements@?$BaseRefVectorOf@VXSParticle@xercesc_3_1@@@xercesc_3_1@@UAEXXZ 12009869 f i XSObjectFactory.obj
 0001:00008869       ?removeAllElements@?$BaseRefVectorOf@VXSSimpleTypeDefinition@xercesc_3_1@@@xercesc_3_1@@UAEXXZ 12009869 f i XSObjectFactory.obj
 0001:00008869       ?removeAllElements@?$BaseRefVectorOf@VXercesLocationPath@xercesc_3_1@@@xercesc_3_1@@UAEXXZ 12009869 f i XTemplateSerializer.obj
 0001:00008869       ?removeAllElements@?$BaseRefVectorOf@VXercesStep@xercesc_3_1@@@xercesc_3_1@@UAEXXZ 12009869 f i XTemplateSerializer.obj
 0001:0000889e       ?removeElementAt@?$BaseRefVectorOf@VContentSpecNode@xercesc_3_1@@@xercesc_3_1@@UAEXK@Z 1200989e f i XTemplateSerializer.obj
 0001:0000889e       ?removeElementAt@?$BaseRefVectorOf@VDOMDocumentImpl@xercesc_3_1@@@xercesc_3_1@@UAEXK@Z 1200989e f i AbstractDOMParser.obj
 0001:0000889e       ?removeElementAt@?$BaseRefVectorOf@VDOMImplementation@xercesc_3_1@@@xercesc_3_1@@UAEXK@Z 1200989e f i DOMImplementationListImpl.obj
 0001:0000889e       ?removeElementAt@?$BaseRefVectorOf@VDOMImplementationSource@xercesc_3_1@@@xercesc_3_1@@UAEXK@Z 1200989e f i DOMImplementationRegistry.obj
 0001:0000889e       ?removeElementAt@?$BaseRefVectorOf@VDOMNode@xercesc_3_1@@@xercesc_3_1@@UAEXK@Z 1200989e f i DOMDocumentImpl.obj
 0001:0000889e       ?removeElementAt@?$BaseRefVectorOf@VDOMNodeIteratorImpl@xercesc_3_1@@@xercesc_3_1@@UAEXK@Z 1200989e f i DOMDocumentImpl.obj
 0001:0000889e       ?removeElementAt@?$BaseRefVectorOf@VDOMRangeImpl@xercesc_3_1@@@xercesc_3_1@@UAEXK@Z 1200989e f i DOMDocumentImpl.obj
 0001:0000889e       ?removeElementAt@?$BaseRefVectorOf@VDatatypeValidator@xercesc_3_1@@@xercesc_3_1@@UAEXK@Z 1200989e f i XTemplateSerializer.obj
 0001:0000889e       ?removeElementAt@?$BaseRefVectorOf@VENameMap@xercesc_3_1@@@xercesc_3_1@@UAEXK@Z 1200989e f i TransService.obj
 0001:0000889e       ?removeElementAt@?$BaseRefVectorOf@VIC_Field@xercesc_3_1@@@xercesc_3_1@@UAEXK@Z 1200989e f i XMLElementDecl.obj
 0001:0000889e       ?removeElementAt@?$BaseRefVectorOf@VIdentityConstraint@xercesc_3_1@@@xercesc_3_1@@UAEXK@Z 1200989e f i XMLElementDecl.obj
 0001:0000889e       ?removeElementAt@?$BaseRefVectorOf@VKVStringPair@xercesc_3_1@@@xercesc_3_1@@UAEXK@Z 1200989e f i IGXMLScanner.obj
 0001:0000889e       ?removeElementAt@?$BaseRefVectorOf@VMatch@xercesc_3_1@@@xercesc_3_1@@UAEXK@Z 1200989e f i RegularExpression.obj
 0001:0000889e       ?removeElementAt@?$BaseRefVectorOf@VOp@xercesc_3_1@@@xercesc_3_1@@UAEXK@Z 1200989e f i Op.obj
 0001:0000889e       ?removeElementAt@?$BaseRefVectorOf@VSchemaAttDef@xercesc_3_1@@@xercesc_3_1@@UAEXK@Z 1200989e f i XMLGrammarPoolImpl.obj
 0001:0000889e       ?removeElementAt@?$BaseRefVectorOf@VSchemaElementDecl@xercesc_3_1@@@xercesc_3_1@@UAEXK@Z 1200989e f i XMLElementDecl.obj
 0001:0000889e       ?removeElementAt@?$BaseRefVectorOf@VToken@xercesc_3_1@@@xercesc_3_1@@UAEXK@Z 1200989e f i TokenFactory.obj
 0001:0000889e       ?removeElementAt@?$BaseRefVectorOf@VXMLElementDecl@xercesc_3_1@@@xercesc_3_1@@UAEXK@Z 1200989e f i WFXMLScanner.obj
 0001:0000889e       ?removeElementAt@?$BaseRefVectorOf@VXMLEntityDecl@xercesc_3_1@@@xercesc_3_1@@UAEXK@Z 1200989e f i ReaderMgr.obj
 0001:0000889e       ?removeElementAt@?$BaseRefVectorOf@VXMLNumber@xercesc_3_1@@@xercesc_3_1@@UAEXK@Z 1200989e f i XTemplateSerializer.obj
 0001:0000889e       ?removeElementAt@?$BaseRefVectorOf@VXPathMatcher@xercesc_3_1@@@xercesc_3_1@@UAEXK@Z 1200989e f i XPathMatcherStack.obj
 0001:0000889e       ?removeElementAt@?$BaseRefVectorOf@VXSAnnotation@xercesc_3_1@@@xercesc_3_1@@UAEXK@Z 1200989e f i XSComplexTypeDefinition.obj
 0001:0000889e       ?removeElementAt@?$BaseRefVectorOf@VXSAttributeUse@xercesc_3_1@@@xercesc_3_1@@UAEXK@Z 1200989e f i XSObjectFactory.obj
 0001:0000889e       ?removeElementAt@?$BaseRefVectorOf@VXSFacet@xercesc_3_1@@@xercesc_3_1@@UAEXK@Z 1200989e f i XSObjectFactory.obj
 0001:0000889e       ?removeElementAt@?$BaseRefVectorOf@VXSIDCDefinition@xercesc_3_1@@@xercesc_3_1@@UAEXK@Z 1200989e f i XSObjectFactory.obj
 0001:0000889e       ?removeElementAt@?$BaseRefVectorOf@VXSMultiValueFacet@xercesc_3_1@@@xercesc_3_1@@UAEXK@Z 1200989e f i XSObjectFactory.obj
 0001:0000889e       ?removeElementAt@?$BaseRefVectorOf@VXSObject@xercesc_3_1@@@xercesc_3_1@@UAEXK@Z 1200989e f i XSModel.obj
 0001:0000889e       ?removeElementAt@?$BaseRefVectorOf@VXSParticle@xercesc_3_1@@@xercesc_3_1@@UAEXK@Z 1200989e f i XSObjectFactory.obj
 0001:0000889e       ?removeElementAt@?$BaseRefVectorOf@VXSSimpleTypeDefinition@xercesc_3_1@@@xercesc_3_1@@UAEXK@Z 1200989e f i XSObjectFactory.obj
 0001:0000889e       ?removeElementAt@?$BaseRefVectorOf@VXercesLocationPath@xercesc_3_1@@@xercesc_3_1@@UAEXK@Z 1200989e f i XTemplateSerializer.obj
 0001:0000889e       ?removeElementAt@?$BaseRefVectorOf@VXercesStep@xercesc_3_1@@@xercesc_3_1@@UAEXK@Z 1200989e f i XTemplateSerializer.obj
 0001:00008929       ?removeLastElement@?$BaseRefVectorOf@VContentSpecNode@xercesc_3_1@@@xercesc_3_1@@UAEXXZ 12009929 f i XTemplateSerializer.obj
 0001:00008929       ?removeLastElement@?$BaseRefVectorOf@VDOMDocumentImpl@xercesc_3_1@@@xercesc_3_1@@UAEXXZ 12009929 f i AbstractDOMParser.obj
 0001:00008929       ?removeLastElement@?$BaseRefVectorOf@VDOMImplementation@xercesc_3_1@@@xercesc_3_1@@UAEXXZ 12009929 f i DOMImplementationListImpl.obj
 0001:00008929       ?removeLastElement@?$BaseRefVectorOf@VDOMImplementationSource@xercesc_3_1@@@xercesc_3_1@@UAEXXZ 12009929 f i DOMImplementationRegistry.obj
 0001:00008929       ?removeLastElement@?$BaseRefVectorOf@VDOMNode@xercesc_3_1@@@xercesc_3_1@@UAEXXZ 12009929 f i DOMDocumentImpl.obj
 0001:00008929       ?removeLastElement@?$BaseRefVectorOf@VDOMNodeIteratorImpl@xercesc_3_1@@@xercesc_3_1@@UAEXXZ 12009929 f i DOMDocumentImpl.obj
 0001:00008929       ?removeLastElement@?$BaseRefVectorOf@VDOMRangeImpl@xercesc_3_1@@@xercesc_3_1@@UAEXXZ 12009929 f i DOMDocumentImpl.obj
 0001:00008929       ?removeLastElement@?$BaseRefVectorOf@VDatatypeValidator@xercesc_3_1@@@xercesc_3_1@@UAEXXZ 12009929 f i XTemplateSerializer.obj
 0001:00008929       ?removeLastElement@?$BaseRefVectorOf@VENameMap@xercesc_3_1@@@xercesc_3_1@@UAEXXZ 12009929 f i TransService.obj
 0001:00008929       ?removeLastElement@?$BaseRefVectorOf@VIC_Field@xercesc_3_1@@@xercesc_3_1@@UAEXXZ 12009929 f i XMLElementDecl.obj
 0001:00008929       ?removeLastElement@?$BaseRefVectorOf@VIdentityConstraint@xercesc_3_1@@@xercesc_3_1@@UAEXXZ 12009929 f i XMLElementDecl.obj
 0001:00008929       ?removeLastElement@?$BaseRefVectorOf@VKVStringPair@xercesc_3_1@@@xercesc_3_1@@UAEXXZ 12009929 f i IGXMLScanner.obj
 0001:00008929       ?removeLastElement@?$BaseRefVectorOf@VMatch@xercesc_3_1@@@xercesc_3_1@@UAEXXZ 12009929 f i RegularExpression.obj
 0001:00008929       ?removeLastElement@?$BaseRefVectorOf@VOp@xercesc_3_1@@@xercesc_3_1@@UAEXXZ 12009929 f i Op.obj
 0001:00008929       ?removeLastElement@?$BaseRefVectorOf@VSchemaAttDef@xercesc_3_1@@@xercesc_3_1@@UAEXXZ 12009929 f i XMLGrammarPoolImpl.obj
 0001:00008929       ?removeLastElement@?$BaseRefVectorOf@VSchemaElementDecl@xercesc_3_1@@@xercesc_3_1@@UAEXXZ 12009929 f i XMLElementDecl.obj
 0001:00008929       ?removeLastElement@?$BaseRefVectorOf@VToken@xercesc_3_1@@@xercesc_3_1@@UAEXXZ 12009929 f i TokenFactory.obj
 0001:00008929       ?removeLastElement@?$BaseRefVectorOf@VXMLElementDecl@xercesc_3_1@@@xercesc_3_1@@UAEXXZ 12009929 f i WFXMLScanner.obj
 0001:00008929       ?removeLastElement@?$BaseRefVectorOf@VXMLEntityDecl@xercesc_3_1@@@xercesc_3_1@@UAEXXZ 12009929 f i ReaderMgr.obj
 0001:00008929       ?removeLastElement@?$BaseRefVectorOf@VXMLNumber@xercesc_3_1@@@xercesc_3_1@@UAEXXZ 12009929 f i XTemplateSerializer.obj
 0001:00008929       ?removeLastElement@?$BaseRefVectorOf@VXPathMatcher@xercesc_3_1@@@xercesc_3_1@@UAEXXZ 12009929 f i XPathMatcherStack.obj
 0001:00008929       ?removeLastElement@?$BaseRefVectorOf@VXSAnnotation@xercesc_3_1@@@xercesc_3_1@@UAEXXZ 12009929 f i XSComplexTypeDefinition.obj
 0001:00008929       ?removeLastElement@?$BaseRefVectorOf@VXSAttributeUse@xercesc_3_1@@@xercesc_3_1@@UAEXXZ 12009929 f i XSObjectFactory.obj
 0001:00008929       ?removeLastElement@?$BaseRefVectorOf@VXSFacet@xercesc_3_1@@@xercesc_3_1@@UAEXXZ 12009929 f i XSObjectFactory.obj
 0001:00008929       ?removeLastElement@?$BaseRefVectorOf@VXSIDCDefinition@xercesc_3_1@@@xercesc_3_1@@UAEXXZ 12009929 f i XSObjectFactory.obj
 0001:00008929       ?removeLastElement@?$BaseRefVectorOf@VXSMultiValueFacet@xercesc_3_1@@@xercesc_3_1@@UAEXXZ 12009929 f i XSObjectFactory.obj
 0001:00008929       ?removeLastElement@?$BaseRefVectorOf@VXSObject@xercesc_3_1@@@xercesc_3_1@@UAEXXZ 12009929 f i XSModel.obj
 0001:00008929       ?removeLastElement@?$BaseRefVectorOf@VXSParticle@xercesc_3_1@@@xercesc_3_1@@UAEXXZ 12009929 f i XSObjectFactory.obj
 0001:00008929       ?removeLastElement@?$BaseRefVectorOf@VXSSimpleTypeDefinition@xercesc_3_1@@@xercesc_3_1@@UAEXXZ 12009929 f i XSObjectFactory.obj
 0001:00008929       ?removeLastElement@?$BaseRefVectorOf@VXercesLocationPath@xercesc_3_1@@@xercesc_3_1@@UAEXXZ 12009929 f i XTemplateSerializer.obj
 0001:00008929       ?removeLastElement@?$BaseRefVectorOf@VXercesStep@xercesc_3_1@@@xercesc_3_1@@UAEXXZ 12009929 f i XTemplateSerializer.obj
 0001:0000894b       ?cleanup@?$BaseRefVectorOf@VContentSpecNode@xercesc_3_1@@@xercesc_3_1@@UAEXXZ 1200994b f i XTemplateSerializer.obj
 0001:0000894b       ?cleanup@?$BaseRefVectorOf@VDOMDocumentImpl@xercesc_3_1@@@xercesc_3_1@@UAEXXZ 1200994b f i AbstractDOMParser.obj
 0001:0000894b       ?cleanup@?$BaseRefVectorOf@VDOMImplementation@xercesc_3_1@@@xercesc_3_1@@UAEXXZ 1200994b f i DOMImplementationListImpl.obj
 0001:0000894b       ?cleanup@?$BaseRefVectorOf@VDOMImplementationSource@xercesc_3_1@@@xercesc_3_1@@UAEXXZ 1200994b f i DOMImplementationRegistry.obj
 0001:0000894b       ?cleanup@?$BaseRefVectorOf@VDOMNode@xercesc_3_1@@@xercesc_3_1@@UAEXXZ 1200994b f i DOMDocumentImpl.obj
 0001:0000894b       ?cleanup@?$BaseRefVectorOf@VDOMNodeIteratorImpl@xercesc_3_1@@@xercesc_3_1@@UAEXXZ 1200994b f i DOMDocumentImpl.obj
 0001:0000894b       ?cleanup@?$BaseRefVectorOf@VDOMRangeImpl@xercesc_3_1@@@xercesc_3_1@@UAEXXZ 1200994b f i DOMDocumentImpl.obj
 0001:0000894b       ?cleanup@?$BaseRefVectorOf@VDatatypeValidator@xercesc_3_1@@@xercesc_3_1@@UAEXXZ 1200994b f i XTemplateSerializer.obj
 0001:0000894b       ?cleanup@?$BaseRefVectorOf@VENameMap@xercesc_3_1@@@xercesc_3_1@@UAEXXZ 1200994b f i TransService.obj
 0001:0000894b       ?cleanup@?$BaseRefVectorOf@VIC_Field@xercesc_3_1@@@xercesc_3_1@@UAEXXZ 1200994b f i XMLElementDecl.obj
 0001:0000894b       ?cleanup@?$BaseRefVectorOf@VIdentityConstraint@xercesc_3_1@@@xercesc_3_1@@UAEXXZ 1200994b f i XMLElementDecl.obj
 0001:0000894b       ?cleanup@?$BaseRefVectorOf@VKVStringPair@xercesc_3_1@@@xercesc_3_1@@UAEXXZ 1200994b f i IGXMLScanner.obj
 0001:0000894b       ?cleanup@?$BaseRefVectorOf@VMatch@xercesc_3_1@@@xercesc_3_1@@UAEXXZ 1200994b f i RegularExpression.obj
 0001:0000894b       ?cleanup@?$BaseRefVectorOf@VOp@xercesc_3_1@@@xercesc_3_1@@UAEXXZ 1200994b f i Op.obj
 0001:0000894b       ?cleanup@?$BaseRefVectorOf@VSchemaAttDef@xercesc_3_1@@@xercesc_3_1@@UAEXXZ 1200994b f i XMLGrammarPoolImpl.obj
 0001:0000894b       ?cleanup@?$BaseRefVectorOf@VSchemaElementDecl@xercesc_3_1@@@xercesc_3_1@@UAEXXZ 1200994b f i XMLElementDecl.obj
 0001:0000894b       ?cleanup@?$BaseRefVectorOf@VToken@xercesc_3_1@@@xercesc_3_1@@UAEXXZ 1200994b f i TokenFactory.obj
 0001:0000894b       ?cleanup@?$BaseRefVectorOf@VXMLElementDecl@xercesc_3_1@@@xercesc_3_1@@UAEXXZ 1200994b f i WFXMLScanner.obj
 0001:0000894b       ?cleanup@?$BaseRefVectorOf@VXMLEntityDecl@xercesc_3_1@@@xercesc_3_1@@UAEXXZ 1200994b f i ReaderMgr.obj
 0001:0000894b       ?cleanup@?$BaseRefVectorOf@VXMLNumber@xercesc_3_1@@@xercesc_3_1@@UAEXXZ 1200994b f i XTemplateSerializer.obj
 0001:0000894b       ?cleanup@?$BaseRefVectorOf@VXPathMatcher@xercesc_3_1@@@xercesc_3_1@@UAEXXZ 1200994b f i XPathMatcherStack.obj
 0001:0000894b       ?cleanup@?$BaseRefVectorOf@VXSAnnotation@xercesc_3_1@@@xercesc_3_1@@UAEXXZ 1200994b f i XSComplexTypeDefinition.obj
 0001:0000894b       ?cleanup@?$BaseRefVectorOf@VXSAttributeUse@xercesc_3_1@@@xercesc_3_1@@UAEXXZ 1200994b f i XSObjectFactory.obj
 0001:0000894b       ?cleanup@?$BaseRefVectorOf@VXSFacet@xercesc_3_1@@@xercesc_3_1@@UAEXXZ 1200994b f i XSObjectFactory.obj
 0001:0000894b       ?cleanup@?$BaseRefVectorOf@VXSIDCDefinition@xercesc_3_1@@@xercesc_3_1@@UAEXXZ 1200994b f i XSObjectFactory.obj
 0001:0000894b       ?cleanup@?$BaseRefVectorOf@VXSMultiValueFacet@xercesc_3_1@@@xercesc_3_1@@UAEXXZ 1200994b f i XSObjectFactory.obj
 0001:0000894b       ?cleanup@?$BaseRefVectorOf@VXSObject@xercesc_3_1@@@xercesc_3_1@@UAEXXZ 1200994b f i XSModel.obj
 0001:0000894b       ?cleanup@?$BaseRefVectorOf@VXSParticle@xercesc_3_1@@@xercesc_3_1@@UAEXXZ 1200994b f i XSObjectFactory.obj
 0001:0000894b       ?cleanup@?$BaseRefVectorOf@VXSSimpleTypeDefinition@xercesc_3_1@@@xercesc_3_1@@UAEXXZ 1200994b f i XSObjectFactory.obj
 0001:0000894b       ?cleanup@?$BaseRefVectorOf@VXercesLocationPath@xercesc_3_1@@@xercesc_3_1@@UAEXXZ 1200994b f i XTemplateSerializer.obj
 0001:0000894b       ?cleanup@?$BaseRefVectorOf@VXercesStep@xercesc_3_1@@@xercesc_3_1@@UAEXXZ 1200994b f i XTemplateSerializer.obj
 0001:00008980       ?elementAt@?$BaseRefVectorOf@VENameMap@xercesc_3_1@@@xercesc_3_1@@QAEPAVENameMap@2@K@Z 12009980 f i TransService.obj
 0001:000089c5       ?reset@?$ArrayJanitor@E@xercesc_3_1@@QAEXPAEQAVMemoryManager@2@@Z 120099c5 f i TransService.obj
 0001:000089c5       ?reset@?$ArrayJanitor@_W@xercesc_3_1@@QAEXPA_WQAVMemoryManager@2@@Z 120099c5 f i TransService.obj
 0001:000089f6       ?makeNew@?$ENameMapFor@VXMLChTranscoder@xercesc_3_1@@@xercesc_3_1@@UBEPAVXMLTranscoder@2@KQAVMemoryManager@2@@Z 120099f6 f i TransService.obj
 0001:00008a41       ?makeNew@?$ENameMapFor@VXMLASCIITranscoder@xercesc_3_1@@@xercesc_3_1@@UBEPAVXMLTranscoder@2@KQAVMemoryManager@2@@Z 12009a41 f i TransService.obj
 0001:00008a8c       ?makeNew@?$ENameMapFor@VXMLUTF8Transcoder@xercesc_3_1@@@xercesc_3_1@@UBEPAVXMLTranscoder@2@KQAVMemoryManager@2@@Z 12009a8c f i TransService.obj
 0001:00008ad7       ?makeNew@?$ENameMapFor@VXML88591Transcoder@xercesc_3_1@@@xercesc_3_1@@UBEPAVXMLTranscoder@2@KQAVMemoryManager@2@@Z 12009ad7 f i TransService.obj
 0001:00008b22       ??0?$EEndianNameMapFor@VXMLUTF16Transcoder@xercesc_3_1@@@xercesc_3_1@@QAE@QB_W_N@Z 12009b22 f i TransService.obj
 0001:00008b47       ?makeNew@?$EEndianNameMapFor@VXMLUTF16Transcoder@xercesc_3_1@@@xercesc_3_1@@UBEPAVXMLTranscoder@2@KQAVMemoryManager@2@@Z 12009b47 f i TransService.obj
 0001:00008b8c       ??0?$EEndianNameMapFor@VXMLUCS4Transcoder@xercesc_3_1@@@xercesc_3_1@@QAE@QB_W_N@Z 12009b8c f i TransService.obj
 0001:00008bb1       ?makeNew@?$EEndianNameMapFor@VXMLUCS4Transcoder@xercesc_3_1@@@xercesc_3_1@@UBEPAVXMLTranscoder@2@KQAVMemoryManager@2@@Z 12009bb1 f i TransService.obj
 0001:00008bf6       ?makeNew@?$ENameMapFor@VXMLEBCDICTranscoder@xercesc_3_1@@@xercesc_3_1@@UBEPAVXMLTranscoder@2@KQAVMemoryManager@2@@Z 12009bf6 f i TransService.obj
 0001:00008c50       ?makeNew@?$ENameMapFor@VXMLIBM1047Transcoder@xercesc_3_1@@@xercesc_3_1@@UBEPAVXMLTranscoder@2@KQAVMemoryManager@2@@Z 12009c50 f i TransService.obj
 0001:00008caa       ?makeNew@?$ENameMapFor@VXMLIBM1140Transcoder@xercesc_3_1@@@xercesc_3_1@@UBEPAVXMLTranscoder@2@KQAVMemoryManager@2@@Z 12009caa f i TransService.obj
 0001:00008d04       ?makeNew@?$ENameMapFor@VXMLWin1252Transcoder@xercesc_3_1@@@xercesc_3_1@@UBEPAVXMLTranscoder@2@KQAVMemoryManager@2@@Z 12009d04 f i TransService.obj
 0001:00008d5e       ??1?$Janitor@V?$BaseRefVectorOf@_W@xercesc_3_1@@@xercesc_3_1@@QAE@XZ 12009d5e f i SGXMLScanner.obj
 0001:00008d5e       ??1?$Janitor@V?$RefArrayVectorOf@_W@xercesc_3_1@@@xercesc_3_1@@QAE@XZ 12009d5e f i DatatypeValidatorFactory.obj
 0001:00008d5e       ??1?$Janitor@V?$RefVectorOf@VDatatypeValidator@xercesc_3_1@@@xercesc_3_1@@@xercesc_3_1@@QAE@XZ 12009d5e f i TraverseSchema.obj
 0001:00008d5e       ??1?$Janitor@V?$RefVectorOf@VMatch@xercesc_3_1@@@xercesc_3_1@@@xercesc_3_1@@QAE@XZ 12009d5e f i RegularExpression.obj
 0001:00008d5e       ??1?$Janitor@V?$RefVectorOf@VXercesStep@xercesc_3_1@@@xercesc_3_1@@@xercesc_3_1@@QAE@XZ 12009d5e f i XercesXPath.obj
 0001:00008d5e       ??1?$Janitor@VBinInputStream@xercesc_3_1@@@xercesc_3_1@@QAE@XZ 12009d5e f i ReaderMgr.obj
 0001:00008d5e       ??1?$Janitor@VDTDElementDecl@xercesc_3_1@@@xercesc_3_1@@QAE@XZ 12009d5e f i DGXMLScanner.obj
 0001:00008d5e       ??1?$Janitor@VDTDEntityDecl@xercesc_3_1@@@xercesc_3_1@@QAE@XZ 12009d5e f i DGXMLScanner.obj
 0001:00008d5e       ??1?$Janitor@VIC_Key@xercesc_3_1@@@xercesc_3_1@@QAE@XZ 12009d5e f i TraverseSchema.obj
 0001:00008d5e       ??1?$Janitor@VIC_KeyRef@xercesc_3_1@@@xercesc_3_1@@QAE@XZ 12009d5e f i TraverseSchema.obj
 0001:00008d5e       ??1?$Janitor@VIC_Unique@xercesc_3_1@@@xercesc_3_1@@QAE@XZ 12009d5e f i TraverseSchema.obj
 0001:00008d5e       ??1?$Janitor@VMemBufInputSource@xercesc_3_1@@@xercesc_3_1@@QAE@XZ 12009d5e f i TraverseSchema.obj
 0001:00008d5e       ??1?$Janitor@VRegxParser@xercesc_3_1@@@xercesc_3_1@@QAE@XZ 12009d5e f i RegularExpression.obj
 0001:00008d5e       ??1?$Janitor@VSchemaAttDef@xercesc_3_1@@@xercesc_3_1@@QAE@XZ 12009d5e f i TraverseSchema.obj
 0001:00008d5e       ??1?$Janitor@VSchemaElementDecl@xercesc_3_1@@@xercesc_3_1@@QAE@XZ 12009d5e f i TraverseSchema.obj
 0001:00008d5e       ??1?$Janitor@VXMLDateTime@xercesc_3_1@@@xercesc_3_1@@QAE@XZ 12009d5e f i DateDatatypeValidator.obj
 0001:00008d5e       ??1?$Janitor@VXMLFormatTarget@xercesc_3_1@@@xercesc_3_1@@QAE@XZ 12009d5e f i DOMLSSerializerImpl.obj
 0001:00008d5e       ??1?$Janitor@VXMLGrammarDescription@xercesc_3_1@@@xercesc_3_1@@QAE@XZ 12009d5e f i GrammarResolver.obj
 0001:00008d5e       ??1?$Janitor@VXMLSchemaDescription@xercesc_3_1@@@xercesc_3_1@@QAE@XZ 12009d5e f i TraverseSchema.obj
 0001:00008d5e       ??1?$Janitor@VXMLTranscoder@xercesc_3_1@@@xercesc_3_1@@QAE@XZ 12009d5e f i TransService.obj
 0001:00008d5e       ??1?$Janitor@VXSAXMLScanner@xercesc_3_1@@@xercesc_3_1@@QAE@XZ 12009d5e f i TraverseSchema.obj
 0001:00008d5e       ??1?$Janitor@VXercesAttGroupInfo@xercesc_3_1@@@xercesc_3_1@@QAE@XZ 12009d5e f i TraverseSchema.obj
 0001:00008d5e       ??1?$Janitor@VXercesGroupInfo@xercesc_3_1@@@xercesc_3_1@@QAE@XZ 12009d5e f i TraverseSchema.obj
 0001:00008d5e       ??1OpFactory@xercesc_3_1@@QAE@XZ 12009d5e f i OpFactory.obj
 0001:00008d5e       ??1TokenFactory@xercesc_3_1@@QAE@XZ 12009d5e f i TokenFactory.obj
 0001:00008d72       ??_E?$RefVectorOf@VENameMap@xercesc_3_1@@@xercesc_3_1@@UAEPAXI@Z 12009d72 f i * CIL library *:* CIL module *
 0001:00008d72       ??_G?$RefVectorOf@VENameMap@xercesc_3_1@@@xercesc_3_1@@UAEPAXI@Z 12009d72 f i TransService.obj
 0001:00008da2       ??_E?$BaseRefVectorOf@VENameMap@xercesc_3_1@@@xercesc_3_1@@UAEPAXI@Z 12009da2 f i * CIL library *:* CIL module *
 0001:00008da2       ??_G?$BaseRefVectorOf@VENameMap@xercesc_3_1@@@xercesc_3_1@@UAEPAXI@Z 12009da2 f i TransService.obj
 0001:00008dd3       ??_E?$ENameMapFor@VXMLChTranscoder@xercesc_3_1@@@xercesc_3_1@@UAEPAXI@Z 12009dd3 f i * CIL library *:* CIL module *
 0001:00008dd3       ??_G?$ENameMapFor@VXMLChTranscoder@xercesc_3_1@@@xercesc_3_1@@UAEPAXI@Z 12009dd3 f i TransService.obj
 0001:00008e09       ??_E?$ENameMapFor@VXMLASCIITranscoder@xercesc_3_1@@@xercesc_3_1@@UAEPAXI@Z 12009e09 f i * CIL library *:* CIL module *
 0001:00008e09       ??_G?$ENameMapFor@VXMLASCIITranscoder@xercesc_3_1@@@xercesc_3_1@@UAEPAXI@Z 12009e09 f i TransService.obj
 0001:00008e3f       ??_E?$ENameMapFor@VXMLUTF8Transcoder@xercesc_3_1@@@xercesc_3_1@@UAEPAXI@Z 12009e3f f i * CIL library *:* CIL module *
 0001:00008e3f       ??_G?$ENameMapFor@VXMLUTF8Transcoder@xercesc_3_1@@@xercesc_3_1@@UAEPAXI@Z 12009e3f f i TransService.obj
 0001:00008e75       ??_E?$ENameMapFor@VXML88591Transcoder@xercesc_3_1@@@xercesc_3_1@@UAEPAXI@Z 12009e75 f i * CIL library *:* CIL module *
 0001:00008e75       ??_G?$ENameMapFor@VXML88591Transcoder@xercesc_3_1@@@xercesc_3_1@@UAEPAXI@Z 12009e75 f i TransService.obj
 0001:00008eab       ??_E?$EEndianNameMapFor@VXMLUTF16Transcoder@xercesc_3_1@@@xercesc_3_1@@UAEPAXI@Z 12009eab f i * CIL library *:* CIL module *
 0001:00008eab       ??_G?$EEndianNameMapFor@VXMLUTF16Transcoder@xercesc_3_1@@@xercesc_3_1@@UAEPAXI@Z 12009eab f i TransService.obj
 0001:00008ee1       ??_E?$EEndianNameMapFor@VXMLUCS4Transcoder@xercesc_3_1@@@xercesc_3_1@@UAEPAXI@Z 12009ee1 f i * CIL library *:* CIL module *
 0001:00008ee1       ??_G?$EEndianNameMapFor@VXMLUCS4Transcoder@xercesc_3_1@@@xercesc_3_1@@UAEPAXI@Z 12009ee1 f i TransService.obj
 0001:00008f17       ??_E?$ENameMapFor@VXMLEBCDICTranscoder@xercesc_3_1@@@xercesc_3_1@@UAEPAXI@Z 12009f17 f i * CIL library *:* CIL module *
 0001:00008f17       ??_G?$ENameMapFor@VXMLEBCDICTranscoder@xercesc_3_1@@@xercesc_3_1@@UAEPAXI@Z 12009f17 f i TransService.obj
 0001:00008f4d       ??_E?$ENameMapFor@VXMLIBM1047Transcoder@xercesc_3_1@@@xercesc_3_1@@UAEPAXI@Z 12009f4d f i * CIL library *:* CIL module *
 0001:00008f4d       ??_G?$ENameMapFor@VXMLIBM1047Transcoder@xercesc_3_1@@@xercesc_3_1@@UAEPAXI@Z 12009f4d f i TransService.obj
 0001:00008f83       ??_E?$ENameMapFor@VXMLIBM1140Transcoder@xercesc_3_1@@@xercesc_3_1@@UAEPAXI@Z 12009f83 f i * CIL library *:* CIL module *
 0001:00008f83       ??_G?$ENameMapFor@VXMLIBM1140Transcoder@xercesc_3_1@@@xercesc_3_1@@UAEPAXI@Z 12009f83 f i TransService.obj
 0001:00008fb9       ??_E?$ENameMapFor@VXMLWin1252Transcoder@xercesc_3_1@@@xercesc_3_1@@UAEPAXI@Z 12009fb9 f i * CIL library *:* CIL module *
 0001:00008fb9       ??_G?$ENameMapFor@VXMLWin1252Transcoder@xercesc_3_1@@@xercesc_3_1@@UAEPAXI@Z 12009fb9 f i TransService.obj
 0001:00008fef       ?ensureExtraCapacity@?$BaseRefVectorOf@V?$RefHashTableOf@VValueStore@xercesc_3_1@@UPtrHasher@2@@xercesc_3_1@@@xercesc_3_1@@QAEXK@Z 12009fef f i ValueStoreCache.obj
 0001:00008fef       ?ensureExtraCapacity@?$BaseRefVectorOf@V?$RefHashTableOf@_WUStringHasher@xercesc_3_1@@@xercesc_3_1@@@xercesc_3_1@@QAEXK@Z 12009fef f i DOMLSSerializerImpl.obj
 0001:00008fef       ?ensureExtraCapacity@?$BaseRefVectorOf@V?$ValueStackOf@K@xercesc_3_1@@@xercesc_3_1@@QAEXK@Z 12009fef f i XPathMatcher.obj
 0001:00008fef       ?ensureExtraCapacity@?$BaseRefVectorOf@VContentSpecNode@xercesc_3_1@@@xercesc_3_1@@QAEXK@Z 12009fef f i XTemplateSerializer.obj
 0001:00008fef       ?ensureExtraCapacity@?$BaseRefVectorOf@VDOMBuffer@xercesc_3_1@@@xercesc_3_1@@QAEXK@Z 12009fef f i DOMDocumentImpl.obj
 0001:00008fef       ?ensureExtraCapacity@?$BaseRefVectorOf@VDOMDocumentImpl@xercesc_3_1@@@xercesc_3_1@@QAEXK@Z 12009fef f i AbstractDOMParser.obj
 0001:00008fef       ?ensureExtraCapacity@?$BaseRefVectorOf@VDOMImplementation@xercesc_3_1@@@xercesc_3_1@@QAEXK@Z 12009fef f i DOMImplementationListImpl.obj
 0001:00008fef       ?ensureExtraCapacity@?$BaseRefVectorOf@VDOMImplementationSource@xercesc_3_1@@@xercesc_3_1@@QAEXK@Z 12009fef f i DOMImplementationRegistry.obj
 0001:00008fef       ?ensureExtraCapacity@?$BaseRefVectorOf@VDOMNode@xercesc_3_1@@@xercesc_3_1@@QAEXK@Z 12009fef f i DOMDocumentImpl.obj
 0001:00008fef       ?ensureExtraCapacity@?$BaseRefVectorOf@VDOMNodeIteratorImpl@xercesc_3_1@@@xercesc_3_1@@QAEXK@Z 12009fef f i DOMDocumentImpl.obj
 0001:00008fef       ?ensureExtraCapacity@?$BaseRefVectorOf@VDOMRangeImpl@xercesc_3_1@@@xercesc_3_1@@QAEXK@Z 12009fef f i DOMDocumentImpl.obj
 0001:00008fef       ?ensureExtraCapacity@?$BaseRefVectorOf@VDatatypeValidator@xercesc_3_1@@@xercesc_3_1@@QAEXK@Z 12009fef f i XTemplateSerializer.obj
 0001:00008fef       ?ensureExtraCapacity@?$BaseRefVectorOf@VENameMap@xercesc_3_1@@@xercesc_3_1@@QAEXK@Z 12009fef f i TransService.obj
 0001:00008fef       ?ensureExtraCapacity@?$BaseRefVectorOf@VIC_Field@xercesc_3_1@@@xercesc_3_1@@QAEXK@Z 12009fef f i XMLElementDecl.obj
 0001:00008fef       ?ensureExtraCapacity@?$BaseRefVectorOf@VIdentityConstraint@xercesc_3_1@@@xercesc_3_1@@QAEXK@Z 12009fef f i XMLElementDecl.obj
 0001:00008fef       ?ensureExtraCapacity@?$BaseRefVectorOf@VKVStringPair@xercesc_3_1@@@xercesc_3_1@@QAEXK@Z 12009fef f i IGXMLScanner.obj
 0001:00008fef       ?ensureExtraCapacity@?$BaseRefVectorOf@VMatch@xercesc_3_1@@@xercesc_3_1@@QAEXK@Z 12009fef f i RegularExpression.obj
 0001:00008fef       ?ensureExtraCapacity@?$BaseRefVectorOf@VOp@xercesc_3_1@@@xercesc_3_1@@QAEXK@Z 12009fef f i Op.obj
 0001:00008fef       ?ensureExtraCapacity@?$BaseRefVectorOf@VPSVIAttributeStorage@xercesc_3_1@@@xercesc_3_1@@QAEXK@Z 12009fef f i PSVIAttributeList.obj
 0001:00008fef       ?ensureExtraCapacity@?$BaseRefVectorOf@VReferencePosition@RegxParser@xercesc_3_1@@@xercesc_3_1@@QAEXK@Z 12009fef f i RegxParser.obj
 0001:00008fef       ?ensureExtraCapacity@?$BaseRefVectorOf@VSchemaAttDef@xercesc_3_1@@@xercesc_3_1@@QAEXK@Z 12009fef f i XMLGrammarPoolImpl.obj
 0001:00008fef       ?ensureExtraCapacity@?$BaseRefVectorOf@VSchemaElementDecl@xercesc_3_1@@@xercesc_3_1@@QAEXK@Z 12009fef f i XMLElementDecl.obj
 0001:00008fef       ?ensureExtraCapacity@?$BaseRefVectorOf@VSchemaInfo@xercesc_3_1@@@xercesc_3_1@@QAEXK@Z 12009fef f i IGXMLScanner.obj
 0001:00008fef       ?ensureExtraCapacity@?$BaseRefVectorOf@VScope@InScopeNamespaces@DOMNormalizer@xercesc_3_1@@@xercesc_3_1@@QAEXK@Z 12009fef f i DOMNormalizer.obj
 0001:00008fef       ?ensureExtraCapacity@?$BaseRefVectorOf@VToken@xercesc_3_1@@@xercesc_3_1@@QAEXK@Z 12009fef f i TokenFactory.obj
 0001:00008fef       ?ensureExtraCapacity@?$BaseRefVectorOf@VValueStore@xercesc_3_1@@@xercesc_3_1@@QAEXK@Z 12009fef f i ValueStoreCache.obj
 0001:00008fef       ?ensureExtraCapacity@?$BaseRefVectorOf@VXMLAttr@xercesc_3_1@@@xercesc_3_1@@QAEXK@Z 12009fef f i DGXMLScanner.obj
 0001:00008fef       ?ensureExtraCapacity@?$BaseRefVectorOf@VXMLElementDecl@xercesc_3_1@@@xercesc_3_1@@QAEXK@Z 12009fef f i WFXMLScanner.obj
 0001:00008fef       ?ensureExtraCapacity@?$BaseRefVectorOf@VXMLEntityDecl@xercesc_3_1@@@xercesc_3_1@@QAEXK@Z 12009fef f i ReaderMgr.obj
 0001:00008fef       ?ensureExtraCapacity@?$BaseRefVectorOf@VXMLNumber@xercesc_3_1@@@xercesc_3_1@@QAEXK@Z 12009fef f i XTemplateSerializer.obj
 0001:00008fef       ?ensureExtraCapacity@?$BaseRefVectorOf@VXMLReader@xercesc_3_1@@@xercesc_3_1@@QAEXK@Z 12009fef f i ReaderMgr.obj
 0001:00008fef       ?ensureExtraCapacity@?$BaseRefVectorOf@VXPathMatcher@xercesc_3_1@@@xercesc_3_1@@QAEXK@Z 12009fef f i IGXMLScanner.obj
 0001:00008fef       ?ensureExtraCapacity@?$BaseRefVectorOf@VXSAnnotation@xercesc_3_1@@@xercesc_3_1@@QAEXK@Z 12009fef f i XSComplexTypeDefinition.obj
 0001:00008fef       ?ensureExtraCapacity@?$BaseRefVectorOf@VXSAttributeUse@xercesc_3_1@@@xercesc_3_1@@QAEXK@Z 12009fef f i XSObjectFactory.obj
 0001:00008fef       ?ensureExtraCapacity@?$BaseRefVectorOf@VXSFacet@xercesc_3_1@@@xercesc_3_1@@QAEXK@Z 12009fef f i XSObjectFactory.obj
 0001:00008fef       ?ensureExtraCapacity@?$BaseRefVectorOf@VXSIDCDefinition@xercesc_3_1@@@xercesc_3_1@@QAEXK@Z 12009fef f i XSObjectFactory.obj
 0001:00008fef       ?ensureExtraCapacity@?$BaseRefVectorOf@VXSMultiValueFacet@xercesc_3_1@@@xercesc_3_1@@QAEXK@Z 12009fef f i XSObjectFactory.obj
 0001:00008fef       ?ensureExtraCapacity@?$BaseRefVectorOf@VXSNamespaceItem@xercesc_3_1@@@xercesc_3_1@@QAEXK@Z 12009fef f i XSModel.obj
 0001:00008fef       ?ensureExtraCapacity@?$BaseRefVectorOf@VXSObject@xercesc_3_1@@@xercesc_3_1@@QAEXK@Z 12009fef f i XSModel.obj
 0001:00008fef       ?ensureExtraCapacity@?$BaseRefVectorOf@VXSParticle@xercesc_3_1@@@xercesc_3_1@@QAEXK@Z 12009fef f i XSObjectFactory.obj
 0001:00008fef       ?ensureExtraCapacity@?$BaseRefVectorOf@VXSSimpleTypeDefinition@xercesc_3_1@@@xercesc_3_1@@QAEXK@Z 12009fef f i XSObjectFactory.obj
 0001:00008fef       ?ensureExtraCapacity@?$BaseRefVectorOf@VXercesLocationPath@xercesc_3_1@@@xercesc_3_1@@QAEXK@Z 12009fef f i XTemplateSerializer.obj
 0001:00008fef       ?ensureExtraCapacity@?$BaseRefVectorOf@VXercesStep@xercesc_3_1@@@xercesc_3_1@@QAEXK@Z 12009fef f i XMLGrammarPoolImpl.obj
 0001:00008fef       ?ensureExtraCapacity@?$BaseRefVectorOf@_W@xercesc_3_1@@QAEXK@Z 12009fef f i XMLString.obj
 0001:0000906b       ??2XMemory@xercesc_3_1@@SAPAXI@Z 1200a06b f   XMemory.obj
 0001:0000908d       ??2XMemory@xercesc_3_1@@SAPAXIPBDH@Z 1200a08d f   XMemory.obj
 0001:0000909b       ??3XMemory@xercesc_3_1@@SAXPAXPBDH@Z 1200a09b f   XMemory.obj
 0001:000090a9       ??2XMemory@xercesc_3_1@@SAPAXIPAVMemoryManager@1@@Z 1200a0a9 f   XMemory.obj
 0001:000090c6       ??2XMemory@xercesc_3_1@@SAPAXIPAX@Z 1200a0c6 f   XMemory.obj
 0001:000090ce       ??3XMemory@xercesc_3_1@@SAXPAX@Z 1200a0ce f   XMemory.obj
 0001:000090ce       ??3XMemory@xercesc_3_1@@SAXPAXPAVMemoryManager@1@@Z 1200a0ce f   XMemory.obj
 0001:00009114       ??_EXML256TableTranscoder@xercesc_3_1@@UAEPAXI@Z 1200a114 f i XML256TableTranscoder.obj
 0001:00009114       ??_EXMLEBCDICTranscoder@xercesc_3_1@@UAEPAXI@Z 1200a114 f i XMLEBCDICTranscoder.obj
 0001:00009114       ??_EXMLIBM1047Transcoder@xercesc_3_1@@UAEPAXI@Z 1200a114 f i XMLIBM1047Transcoder.obj
 0001:00009114       ??_EXMLIBM1140Transcoder@xercesc_3_1@@UAEPAXI@Z 1200a114 f i XMLIBM1140Transcoder.obj
 0001:00009114       ??_EXMLWin1252Transcoder@xercesc_3_1@@UAEPAXI@Z 1200a114 f i XMLWin1252Transcoder.obj
 0001:000091b0       ??1XML256TableTranscoder@xercesc_3_1@@UAE@XZ 1200a1b0 f   XML256TableTranscoder.obj
 0001:000091b0       ??1XMLEBCDICTranscoder@xercesc_3_1@@UAE@XZ 1200a1b0 f   XMLEBCDICTranscoder.obj
 0001:000091b0       ??1XMLIBM1047Transcoder@xercesc_3_1@@UAE@XZ 1200a1b0 f   XMLIBM1047Transcoder.obj
 0001:000091b0       ??1XMLIBM1140Transcoder@xercesc_3_1@@UAE@XZ 1200a1b0 f   XMLIBM1140Transcoder.obj
 0001:000091b0       ??1XMLWin1252Transcoder@xercesc_3_1@@UAE@XZ 1200a1b0 f   XMLWin1252Transcoder.obj
 0001:000091bb       ?transcodeFrom@XML256TableTranscoder@xercesc_3_1@@UAEKQBEKQA_WKAAKQAE@Z 1200a1bb f   XML256TableTranscoder.obj
 0001:0000921d       ?transcodeTo@XML256TableTranscoder@xercesc_3_1@@UAEKQB_WKQAEKAAKW4UnRepOpts@XMLTranscoder@2@@Z 1200a21d f   XML256TableTranscoder.obj
 0001:0000930d       ?canTranscodeTo@XML256TableTranscoder@xercesc_3_1@@UAE_NI@Z 1200a30d f   XML256TableTranscoder.obj
 0001:00009321       ??0XML256TableTranscoder@xercesc_3_1@@IAE@QB_WK0QBUTransRec@XMLTransService@1@KQAVMemoryManager@1@@Z 1200a321 f   XML256TableTranscoder.obj
 0001:00009358       ?xlatOneTo@XML256TableTranscoder@xercesc_3_1@@IBEE_W@Z 1200a358 f   XML256TableTranscoder.obj
 0001:000093a6       ??_EXML88591Transcoder@xercesc_3_1@@UAEPAXI@Z 1200a3a6 f i XML88591Transcoder.obj
 0001:00009444       ??0XML88591Transcoder@xercesc_3_1@@QAE@QB_WKQAVMemoryManager@1@@Z 1200a444 f   XML88591Transcoder.obj
 0001:00009469       ??1XML88591Transcoder@xercesc_3_1@@UAE@XZ 1200a469 f   XML88591Transcoder.obj
 0001:00009474       ?transcodeFrom@XML88591Transcoder@xercesc_3_1@@UAEKQBEKQA_WKAAKQAE@Z 1200a474 f   XML88591Transcoder.obj
 0001:000094b8       ?transcodeTo@XML88591Transcoder@xercesc_3_1@@UAEKQB_WKQAEKAAKW4UnRepOpts@XMLTranscoder@2@@Z 1200a4b8 f   XML88591Transcoder.obj
 0001:0000959d       ?canTranscodeTo@XML88591Transcoder@xercesc_3_1@@UAE_NI@Z 1200a59d f   XML88591Transcoder.obj
 0001:000095ae       ??_FXMLAbstractDoubleFloat@xercesc_3_1@@QAEXXZ 1200a5ae f i XMLAbstractDoubleFloat.obj
 0001:000095ba       ??_EXMLAbstractDoubleFloat@xercesc_3_1@@UAEPAXI@Z 1200a5ba f i XMLAbstractDoubleFloat.obj
 0001:00009650       ?isSpecialValue@XMLAbstractDoubleFloat@xercesc_3_1@@ABE_NXZ 1200a650 f i XMLAbstractDoubleFloat.obj
 0001:00009658       ?getCreateEntityReferenceNodes@AbstractDOMParser@xercesc_3_1@@QBE_NXZ 1200a658 f i XSAnnotation.obj
 0001:00009658       ?getExpandEntityReferences@DOMNodeIteratorImpl@xercesc_3_1@@UAE_NXZ 1200a658 f i DOMNodeIteratorImpl.obj
 0001:00009658       ?getExpandEntityReferences@DOMTreeWalkerImpl@xercesc_3_1@@UAE_NXZ 1200a658 f i DOMTreeWalkerImpl.obj
 0001:00009658       ?getIssueFatalErrorIfNotFound@InputSource@xercesc_3_1@@UBE_NXZ 1200a658 f i LocalFileInputSource.obj
 0001:00009658       ?getRequired@XSAttributeUse@xercesc_3_1@@QBE_NXZ 1200a658 f i XSAttributeGroupDefinition.obj
 0001:00009658       ?isDataConverted@XMLAbstractDoubleFloat@xercesc_3_1@@QBE_NXZ 1200a658 f i XMLAbstractDoubleFloat.obj
 0001:00009658       ?isExternal@XMLElementDecl@xercesc_3_1@@QBE_NXZ 1200a658 f i XMLDTDDescription.obj
 0001:0000965c       ?getIncludeIgnorableWhitespace@AbstractDOMParser@xercesc_3_1@@QBE_NXZ 1200a65c f i XSAnnotation.obj
 0001:0000965c       ?isDataOverflowed@XMLAbstractDoubleFloat@xercesc_3_1@@QBE_NXZ 1200a65c f i XMLAbstractDoubleFloat.obj
 0001:0000965c       ?isValidatorFromUser@XMLScanner@xercesc_3_1@@QAE_NXZ 1200a65c f i XMLValidator.obj
 0001:00009660       ?getValue@XMLAbstractDoubleFloat@xercesc_3_1@@QBENXZ 1200a660 f i XMLAbstractDoubleFloat.obj
 0001:00009664       ??_FXMLBigDecimal@xercesc_3_1@@QAEXXZ 1200a664 f i XMLAbstractDoubleFloat.obj
 0001:00009670       ??0NumberFormatException@xercesc_3_1@@QAE@QBD_KW4Codes@XMLExcepts@1@PAVMemoryManager@1@@Z 1200a670 f i XMLAbstractDoubleFloat.obj
 0001:000096b0       ??0NumberFormatException@xercesc_3_1@@QAE@ABV01@@Z 1200a6b0 f i XMLAbstractDoubleFloat.obj
 0001:000096cf       ??0NumberFormatException@xercesc_3_1@@QAE@QBD_KW4Codes@XMLExcepts@1@QB_W333PAVMemoryManager@1@@Z 1200a6cf f i XMLAbstractDoubleFloat.obj
 0001:0000971b       ??0NumberFormatException@xercesc_3_1@@QAE@QBD_KW4Codes@XMLExcepts@1@0000PAVMemoryManager@1@@Z 1200a71b f i XMLAbstractDoubleFloat.obj
 0001:00009767       ??1NumberFormatException@xercesc_3_1@@UAE@XZ 1200a767 f i XMLAbstractDoubleFloat.obj
 0001:00009772       ?duplicate@NumberFormatException@xercesc_3_1@@UBEPAVXMLException@2@XZ 1200a772 f i XMLAbstractDoubleFloat.obj
 0001:000097b6       ?getType@NumberFormatException@xercesc_3_1@@UBEPB_WXZ 1200a7b6 f i XMLAbstractDoubleFloat.obj
 0001:000097bc       ??_ENumberFormatException@xercesc_3_1@@UAEPAXI@Z 1200a7bc f i XMLAbstractDoubleFloat.obj
 0001:0000985a       ??0XMLAbstractDoubleFloat@xercesc_3_1@@IAE@QAVMemoryManager@1@@Z 1200a85a f   XMLAbstractDoubleFloat.obj
 0001:0000988d       ??1XMLAbstractDoubleFloat@xercesc_3_1@@UAE@XZ 1200a88d f   XMLAbstractDoubleFloat.obj
 0001:000098e7       ?init@XMLAbstractDoubleFloat@xercesc_3_1@@IAEXQB_W@Z 1200a8e7 f   XMLAbstractDoubleFloat.obj
 0001:00009ad3       ?getFormattedString@XMLAbstractDoubleFloat@xercesc_3_1@@UBEPB_WXZ 1200aad3 f   XMLAbstractDoubleFloat.obj
 0001:00009af1       ?formatString@XMLAbstractDoubleFloat@xercesc_3_1@@AAEXXZ 1200aaf1 f   XMLAbstractDoubleFloat.obj
 0001:00009bdf       ?compareValues@XMLAbstractDoubleFloat@xercesc_3_1@@KAHQBV12@0QAVMemoryManager@2@@Z 1200abdf f   XMLAbstractDoubleFloat.obj
 0001:00009c5f       ?compareSpecial@XMLAbstractDoubleFloat@xercesc_3_1@@CAHQBV12@QAVMemoryManager@2@@Z 1200ac5f f   XMLAbstractDoubleFloat.obj
 0001:00009cfc       ?normalizeZero@XMLAbstractDoubleFloat@xercesc_3_1@@AAEXQA_W@Z 1200acfc f   XMLAbstractDoubleFloat.obj
 0001:00009eb3       ?normalizeDecimalPoint@XMLAbstractDoubleFloat@xercesc_3_1@@SAXQAD@Z 1200aeb3 f   XMLAbstractDoubleFloat.obj
 0001:00009edc       ?convert@XMLAbstractDoubleFloat@xercesc_3_1@@IAEXQAD@Z 1200aedc f   XMLAbstractDoubleFloat.obj
 0001:00009f9c       ?getCanonicalRepresentation@XMLAbstractDoubleFloat@xercesc_3_1@@SAPA_WQB_WQAVMemoryManager@2@@Z 1200af9c f   XMLAbstractDoubleFloat.obj
 0001:0000a21c       ?getProtoType@XMLAbstractDoubleFloat@xercesc_3_1@@UBEPAVXProtoType@2@XZ 1200b21c f   XMLAbstractDoubleFloat.obj
 0001:0000a222       ?serialize@XMLAbstractDoubleFloat@xercesc_3_1@@UAEXAAVXSerializeEngine@2@@Z 1200b222 f   XMLAbstractDoubleFloat.obj
 0001:0000a2ef       ??_EXMLASCIITranscoder@xercesc_3_1@@UAEPAXI@Z 1200b2ef f i XMLASCIITranscoder.obj
 0001:0000a38d       ??0XMLASCIITranscoder@xercesc_3_1@@QAE@QB_WKQAVMemoryManager@1@@Z 1200b38d f   XMLASCIITranscoder.obj
 0001:0000a3b2       ??1XMLASCIITranscoder@xercesc_3_1@@UAE@XZ 1200b3b2 f   XMLASCIITranscoder.obj
 0001:0000a3bd       ?transcodeFrom@XMLASCIITranscoder@xercesc_3_1@@UAEKQBEKQA_WKAAKQAE@Z 1200b3bd f   XMLASCIITranscoder.obj
 0001:0000a4a0       ?transcodeTo@XMLASCIITranscoder@xercesc_3_1@@UAEKQB_WKQAEKAAKW4UnRepOpts@XMLTranscoder@2@@Z 1200b4a0 f   XMLASCIITranscoder.obj
 0001:0000a58a       ?canTranscodeTo@XMLASCIITranscoder@xercesc_3_1@@UAE_NI@Z 1200b58a f   XMLASCIITranscoder.obj
 0001:0000a59b       ??_EXMLBigDecimal@xercesc_3_1@@UAEPAXI@Z 1200b59b f i XMLBigDecimal.obj
 0001:0000a633       ?getTotalDigit@XMLBigInteger@xercesc_3_1@@QBEIXZ 1200b633 f i XMLBigDecimal.obj
 0001:0000a643       ??8XMLBigInteger@xercesc_3_1@@QBE_NABV01@@Z 1200b643 f i XMLBigDecimal.obj
 0001:0000a65f       ?setCategoryId@RangeTokenElemMap@xercesc_3_1@@QAEXI@Z 1200b65f f i ASCIIRangeFactory.obj
 0001:0000a65f       ?setEscapeFlags@XMLFormatter@xercesc_3_1@@QAEXW4EscapeFlags@12@@Z 1200b65f f i LocalFileFormatTarget.obj
 0001:0000a65f       ?setSign@XMLBigInteger@xercesc_3_1@@AAEXH@Z 1200b65f f i XMLBigDecimal.obj
 0001:0000a65f       ?setValueStoreCache@FieldActivator@xercesc_3_1@@QAEXQAVValueStoreCache@2@@Z 1200b65f f i FieldActivator.obj
 0001:0000a66b       ??0XMLBigDecimal@xercesc_3_1@@QAE@QB_WQAVMemoryManager@1@@Z 1200b66b f   XMLBigDecimal.obj
 0001:0000a756       ??1XMLBigDecimal@xercesc_3_1@@UAE@XZ 1200b756 f   XMLBigDecimal.obj
 0001:0000a79f       ?cleanUp@XMLBigDecimal@xercesc_3_1@@AAEXXZ 1200b79f f   XMLBigDecimal.obj
 0001:0000a7b0       ?setDecimalValue@XMLBigDecimal@xercesc_3_1@@QAEXQB_W@Z 1200b7b0 f   XMLBigDecimal.obj
 0001:0000a84c       ?getCanonicalRepresentation@XMLBigDecimal@xercesc_3_1@@SAPA_WQB_WQAVMemoryManager@2@@Z 1200b84c f   XMLBigDecimal.obj
 0001:0000a9a7       ?parseDecimal@XMLBigDecimal@xercesc_3_1@@SAXQB_WQA_WAAH22QAVMemoryManager@2@@Z 1200b9a7 f   XMLBigDecimal.obj
 0001:0000aba9       ?parseDecimal@XMLBigDecimal@xercesc_3_1@@SAXQB_WQAVMemoryManager@2@@Z 1200bba9 f   XMLBigDecimal.obj
 0001:0000ad25       ?compareValues@XMLBigDecimal@xercesc_3_1@@SAHQBV12@0QAVMemoryManager@2@@Z 1200bd25 f   XMLBigDecimal.obj
 0001:0000ad6d       ?toCompare@XMLBigDecimal@xercesc_3_1@@QBEHABV12@@Z 1200bd6d f   XMLBigDecimal.obj
 0001:0000add8       ?createObject@XMLBigDecimal@xercesc_3_1@@SAPAVXSerializable@2@PAVMemoryManager@2@@Z 1200bdd8 f   XMLBigDecimal.obj
 0001:0000adff       ?getProtoType@XMLBigDecimal@xercesc_3_1@@UBEPAVXProtoType@2@XZ 1200bdff f   XMLBigDecimal.obj
 0001:0000ae05       ??0XMLBigDecimal@xercesc_3_1@@QAE@QAVMemoryManager@1@@Z 1200be05 f   XMLBigDecimal.obj
 0001:0000ae2e       ?serialize@XMLBigDecimal@xercesc_3_1@@UAEXAAVXSerializeEngine@2@@Z 1200be2e f   XMLBigDecimal.obj
 0001:0000af8d       ?getCanonicalRepresentation@XMLBigInteger@xercesc_3_1@@SAPA_WQB_WQAVMemoryManager@2@_N@Z 1200bf8d f   XMLBigInteger.obj
 0001:0000b046       ?parseBigInteger@XMLBigInteger@xercesc_3_1@@SAXQB_WQA_WAAHQAVMemoryManager@2@@Z 1200c046 f   XMLBigInteger.obj
 0001:0000b1d6       ??0XMLBigInteger@xercesc_3_1@@QAE@QB_WQAVMemoryManager@1@@Z 1200c1d6 f   XMLBigInteger.obj
 0001:0000b28c       ??1XMLBigInteger@xercesc_3_1@@QAE@XZ 1200c28c f   XMLBigInteger.obj
 0001:0000b2e0       ??0XMLBigInteger@xercesc_3_1@@QAE@ABV01@@Z 1200c2e0 f   XMLBigInteger.obj
 0001:0000b321       ?compareValues@XMLBigInteger@xercesc_3_1@@SAHQBV12@0QAVMemoryManager@2@@Z 1200c321 f   XMLBigInteger.obj
 0001:0000b3c9       ?compareValues@XMLBigInteger@xercesc_3_1@@SAHQB_WABH01QAVMemoryManager@2@@Z 1200c3c9 f   XMLBigInteger.obj
 0001:0000b46f       ?multiply@XMLBigInteger@xercesc_3_1@@QAEXI@Z 1200c46f f   XMLBigInteger.obj
 0001:0000b4f2       ?divide@XMLBigInteger@xercesc_3_1@@QAEXI@Z 1200c4f2 f   XMLBigInteger.obj
 0001:0000b547       ?intValue@XMLBigInteger@xercesc_3_1@@QBEHXZ 1200c547 f   XMLBigInteger.obj
 0001:0000b569       ?isAllSpaces@XMLChar1_0@xercesc_3_1@@SA_NQB_WK@Z 1200c569 f   XMLChar.obj
 0001:0000b596       ?containsWhiteSpace@XMLChar1_0@xercesc_3_1@@SA_NQB_WK@Z 1200c596 f   XMLChar.obj
 0001:0000b5c3       ?isValidNCName@XMLChar1_0@xercesc_3_1@@SA_NQB_WK@Z 1200c5c3 f   XMLChar.obj
 0001:0000b603       ?isValidNmtoken@XMLChar1_0@xercesc_3_1@@SA_NQB_WK@Z 1200c603 f   XMLChar.obj
 0001:0000b631       ?isValidName@XMLChar1_0@xercesc_3_1@@SA_NQB_WK@Z 1200c631 f   XMLChar.obj
 0001:0000b66c       ?isValidName@XMLChar1_0@xercesc_3_1@@SA_NQB_W@Z 1200c66c f   XMLChar.obj
 0001:0000b6aa       ?isValidQName@XMLChar1_0@xercesc_3_1@@SA_NQB_WK@Z 1200c6aa f   XMLChar.obj
 0001:0000b71b       ?isPublicIdChar@XMLChar1_0@xercesc_3_1@@SA_N_W0@Z 1200c71b f   XMLChar.obj
 0001:0000b71b       ?isPublicIdChar@XMLChar1_1@xercesc_3_1@@SA_N_W0@Z 1200c71b f   XMLChar.obj
 0001:0000b782       ?enableNELWS@XMLChar1_0@xercesc_3_1@@SAXXZ 1200c782 f   XMLChar.obj
 0001:0000b7a2       ?isAllSpaces@XMLChar1_1@xercesc_3_1@@SA_NQB_WK@Z 1200c7a2 f   XMLChar.obj
 0001:0000b7cf       ?containsWhiteSpace@XMLChar1_1@xercesc_3_1@@SA_NQB_WK@Z 1200c7cf f   XMLChar.obj
 0001:0000b7fc       ?isValidNCName@XMLChar1_1@xercesc_3_1@@SA_NQB_WK@Z 1200c7fc f   XMLChar.obj
 0001:0000b8ac       ?isValidNmtoken@XMLChar1_1@xercesc_3_1@@SA_NQB_WK@Z 1200c8ac f   XMLChar.obj
 0001:0000b91c       ?isValidName@XMLChar1_1@xercesc_3_1@@SA_NQB_WK@Z 1200c91c f   XMLChar.obj
 0001:0000b9c7       ?isValidName@XMLChar1_1@xercesc_3_1@@SA_NQB_W@Z 1200c9c7 f   XMLChar.obj
 0001:0000ba72       ?isValidQName@XMLChar1_1@xercesc_3_1@@SA_NQB_WK@Z 1200ca72 f   XMLChar.obj
 0001:0000bac6       ??_EXMLChTranscoder@xercesc_3_1@@UAEPAXI@Z 1200cac6 f i XMLChTranscoder.obj
 0001:0000bb64       ??0XMLChTranscoder@xercesc_3_1@@QAE@QB_WKQAVMemoryManager@1@@Z 1200cb64 f   XMLChTranscoder.obj
 0001:0000bb89       ??1XMLChTranscoder@xercesc_3_1@@UAE@XZ 1200cb89 f   XMLChTranscoder.obj
 0001:0000bb94       ?transcodeFrom@XMLChTranscoder@xercesc_3_1@@UAEKQBEKQA_WKAAKQAE@Z 1200cb94 f   XMLChTranscoder.obj
 0001:0000bbd2       ?transcodeTo@XMLChTranscoder@xercesc_3_1@@UAEKQB_WKQAEKAAKW4UnRepOpts@XMLTranscoder@2@@Z 1200cbd2 f   XMLChTranscoder.obj
 0001:0000bc04       ?canTranscodeTo@XMLChTranscoder@xercesc_3_1@@UAE_NI@Z 1200cc04 f   XMLChTranscoder.obj
 0001:0000bc04       ?canTranscodeTo@XMLUCS4Transcoder@xercesc_3_1@@UAE_NI@Z 1200cc04 f   XMLUCS4Transcoder.obj
 0001:0000bc04       ?canTranscodeTo@XMLUTF16Transcoder@xercesc_3_1@@UAE_NI@Z 1200cc04 f   XMLUTF16Transcoder.obj
 0001:0000bc04       ?isPrefixUnknown@ValidationContext@xercesc_3_1@@UAE_NPA_W@Z 1200cc04 f   XMLAttr.obj
 0001:0000bc04       ?isSubstitutableBy@AnySimpleTypeDatatypeValidator@xercesc_3_1@@UAE_NQBVDatatypeValidator@2@@Z 1200cc04 f   AnySimpleTypeDatatypeValidator.obj
 0001:0000bc09       ??0SchemaDateTimeException@xercesc_3_1@@QAE@QBD_KW4Codes@XMLExcepts@1@PAVMemoryManager@1@@Z 1200cc09 f i XMLDateTime.obj
 0001:0000bc49       ??0SchemaDateTimeException@xercesc_3_1@@QAE@ABV01@@Z 1200cc49 f i XMLDateTime.obj
 0001:0000bc68       ??0SchemaDateTimeException@xercesc_3_1@@QAE@QBD_KW4Codes@XMLExcepts@1@QB_W333PAVMemoryManager@1@@Z 1200cc68 f i XMLDateTime.obj
 0001:0000bcb4       ??0SchemaDateTimeException@xercesc_3_1@@QAE@QBD_KW4Codes@XMLExcepts@1@0000PAVMemoryManager@1@@Z 1200ccb4 f i XMLDateTime.obj
 0001:0000bd00       ??1SchemaDateTimeException@xercesc_3_1@@UAE@XZ 1200cd00 f i XMLDateTime.obj
 0001:0000bd0b       ?duplicate@SchemaDateTimeException@xercesc_3_1@@UBEPAVXMLException@2@XZ 1200cd0b f i XMLDateTime.obj
 0001:0000bd4f       ?getType@SchemaDateTimeException@xercesc_3_1@@UBEPB_WXZ 1200cd4f f i XMLDateTime.obj
 0001:0000bd55       ??_ESchemaDateTimeException@xercesc_3_1@@UAEPAXI@Z 1200cd55 f i XMLDateTime.obj
 0001:0000bdf3       ??_FXMLDateTime@xercesc_3_1@@QAEXXZ 1200cdf3 f i XMLDateTime.obj
 0001:0000bdff       ??_EXMLDateTime@xercesc_3_1@@UAEPAXI@Z 1200cdff f i XMLDateTime.obj
 0001:0000be95       ?setBuffer@XMLDateTime@xercesc_3_1@@QAEXQB_W@Z 1200ce95 f i XMLDateTime.obj
 0001:0000bf1e       ?reset@XMLDateTime@xercesc_3_1@@AAEXXZ 1200cf1e f i XMLDateTime.obj
 0001:0000bf50       ?copy@XMLDateTime@xercesc_3_1@@AAEXABV12@@Z 1200cf50 f i XMLDateTime.obj
 0001:0000bfe8       ?initParser@XMLDateTime@xercesc_3_1@@AAE_NXZ 1200cfe8 f i XMLDateTime.obj
 0001:0000bfff       ?isNormalized@XMLDateTime@xercesc_3_1@@ABE_NXZ 1200cfff f i XMLDateTime.obj
 0001:0000c007       ?getRetVal@XMLDateTime@xercesc_3_1@@CAHHH@Z 1200d007 f i XMLDateTime.obj
 0001:0000c0a1       ?compare@XMLDateTime@xercesc_3_1@@SAHQBV12@0_N@Z 1200d0a1 f   XMLDateTime.obj
 0001:0000c225       ?addDuration@XMLDateTime@xercesc_3_1@@CAXPAV12@QBV12@H@Z 1200d225 f   XMLDateTime.obj
 0001:0000c37f       ?compareResult@XMLDateTime@xercesc_3_1@@CAHHH_N@Z 1200d37f f   XMLDateTime.obj
 0001:0000c3af       ?compare@XMLDateTime@xercesc_3_1@@SAHQBV12@0@Z 1200d3af f   XMLDateTime.obj
 0001:0000c418       ?compareResult@XMLDateTime@xercesc_3_1@@CAHQBV12@0_NH@Z 1200d418 f   XMLDateTime.obj
 0001:0000c483       ?compareOrder@XMLDateTime@xercesc_3_1@@SAHQBV12@0@Z 1200d483 f   XMLDateTime.obj
 0001:0000c51d       ??1XMLDateTime@xercesc_3_1@@UAE@XZ 1200d51d f   XMLDateTime.obj
 0001:0000c572       ??0XMLDateTime@xercesc_3_1@@QAE@QAVMemoryManager@1@@Z 1200d572 f   XMLDateTime.obj
 0001:0000c5a9       ??0XMLDateTime@xercesc_3_1@@QAE@QB_WQAVMemoryManager@1@@Z 1200d5a9 f   XMLDateTime.obj
 0001:0000c5f4       ??0XMLDateTime@xercesc_3_1@@QAE@ABV01@@Z 1200d5f4 f   XMLDateTime.obj
 0001:0000c62f       ??4XMLDateTime@xercesc_3_1@@QAEAAV01@ABV01@@Z 1200d62f f   XMLDateTime.obj
 0001:0000c649       ?getAnnotations@XSNamespaceItem@xercesc_3_1@@QAEPAV?$RefVectorOf@VXSAnnotation@xercesc_3_1@@@2@XZ 1200d649 f   XSAttributeDeclaration.obj
 0001:0000c649       ?getAnnotations@XSNamespaceItem@xercesc_3_1@@QBEPBV?$RefVectorOf@VXSAnnotation@xercesc_3_1@@@2@XZ 1200d649 f   XSAttributeDeclaration.obj
 0001:0000c649       ?getAnnotations@XSSimpleTypeDefinition@xercesc_3_1@@QAEPAV?$RefVectorOf@VXSAnnotation@xercesc_3_1@@@2@XZ 1200d649 f   XMLAttr.obj
 0001:0000c649       ?getContentSpec@ComplexTypeInfo@xercesc_3_1@@QBEPAVContentSpecNode@2@XZ 1200d649 f   XMLElementDecl.obj
 0001:0000c649       ?getEnumString@UnionDatatypeValidator@xercesc_3_1@@UBEPBV?$RefArrayVectorOf@_W@2@XZ 1200d649 f   UnionDatatypeValidator.obj
 0001:0000c649       ?getEnumeration@UnionDatatypeValidator@xercesc_3_1@@ABEPAV?$RefArrayVectorOf@_W@2@XZ 1200d649 f   XMLElementDecl.obj
 0001:0000c649       ?getErrorHandler@SAXParser@xercesc_3_1@@QAEPAVErrorHandler@2@XZ 1200d649 f   SAX2XMLReaderImpl.obj
 0001:0000c649       ?getErrorHandler@SAXParser@xercesc_3_1@@QBEPBVErrorHandler@2@XZ 1200d649 f   SAX2XMLReaderImpl.obj
 0001:0000c649       ?getMaxLength@AbstractStringValidator@xercesc_3_1@@QBEKXZ 1200d649 f   XMLGrammarPoolImpl.obj
 0001:0000c649       ?getRawData@XMLDateTime@xercesc_3_1@@UBEPA_WXZ 1200d649 f   XMLDateTime.obj
 0001:0000c649       ?getSubstitutionGroupElem@SchemaElementDecl@xercesc_3_1@@QBEPAV12@XZ 1200d649 f   XMLElementDecl.obj
 0001:0000c64d       ?getFormattedString@XMLDateTime@xercesc_3_1@@UBEPB_WXZ 1200d64d f   XMLDateTime.obj
 0001:0000c652       ?parseDateTime@XMLDateTime@xercesc_3_1@@QAEXXZ 1200d652 f   XMLDateTime.obj
 0001:0000c70c       ?parseDate@XMLDateTime@xercesc_3_1@@QAEXXZ 1200d70c f   XMLDateTime.obj
 0001:0000c781       ?parseTime@XMLDateTime@xercesc_3_1@@QAEXXZ 1200d781 f   XMLDateTime.obj
 0001:0000c808       ?parseDay@XMLDateTime@xercesc_3_1@@QAEXXZ 1200d808 f   XMLDateTime.obj
 0001:0000c944       ?parseMonth@XMLDateTime@xercesc_3_1@@QAEXXZ 1200d944 f   XMLDateTime.obj
 0001:0000ca90       ?parseYear@XMLDateTime@xercesc_3_1@@QAEXXZ 1200da90 f   XMLDateTime.obj
 0001:0000cb42       ?parseMonthDay@XMLDateTime@xercesc_3_1@@QAEXXZ 1200db42 f   XMLDateTime.obj
 0001:0000cc7e       ?parseYearMonth@XMLDateTime@xercesc_3_1@@QAEXXZ 1200dc7e f   XMLDateTime.obj
 0001:0000ccfa       ?parseDuration@XMLDateTime@xercesc_3_1@@QAEXXZ 1200dcfa f   XMLDateTime.obj
 0001:0000d0f6       ?getDate@XMLDateTime@xercesc_3_1@@AAEXXZ 1200e0f6 f   XMLDateTime.obj
 0001:0000d1a3       ?getTime@XMLDateTime@xercesc_3_1@@AAEXXZ 1200e1a3 f   XMLDateTime.obj
 0001:0000d35a       ?getYearMonth@XMLDateTime@xercesc_3_1@@AAEXXZ 1200e35a f   XMLDateTime.obj
 0001:0000d45d       ?parseTimeZone@XMLDateTime@xercesc_3_1@@AAEXXZ 1200e45d f   XMLDateTime.obj
 0001:0000d4d1       ?getTimeZone@XMLDateTime@xercesc_3_1@@AAEXK@Z 1200e4d1 f   XMLDateTime.obj
 0001:0000d58e       ?normalize@XMLDateTime@xercesc_3_1@@AAEXXZ 1200e58e f   XMLDateTime.obj
 0001:0000d6af       ?validateDateTime@XMLDateTime@xercesc_3_1@@ABEXXZ 1200e6af f   XMLDateTime.obj
 0001:0000d922       ?indexOf@XMLDateTime@xercesc_3_1@@ABEHKK_W@Z 1200e922 f   XMLDateTime.obj
 0001:0000d950       ?findUTCSign@XMLDateTime@xercesc_3_1@@AAEHK@Z 1200e950 f   XMLDateTime.obj
 0001:0000d998       ?parseInt@XMLDateTime@xercesc_3_1@@ABEHKK@Z 1200e998 f   XMLDateTime.obj
 0001:0000da04       ?parseMiliSecond@XMLDateTime@xercesc_3_1@@ABENKK@Z 1200ea04 f   XMLDateTime.obj
 0001:0000daa9       ?parseIntYear@XMLDateTime@xercesc_3_1@@ABEHK@Z 1200eaa9 f   XMLDateTime.obj
 0001:0000db6d       ?getDateTimeCanonicalRepresentation@XMLDateTime@xercesc_3_1@@QBEPA_WQAVMemoryManager@2@@Z 1200eb6d f   XMLDateTime.obj
 0001:0000dd03       ?getDateCanonicalRepresentation@XMLDateTime@xercesc_3_1@@QBEPA_WQAVMemoryManager@2@@Z 1200ed03 f   XMLDateTime.obj
 0001:0000dfb9       ?getTimeCanonicalRepresentation@XMLDateTime@xercesc_3_1@@QBEPA_WQAVMemoryManager@2@@Z 1200efb9 f   XMLDateTime.obj
 0001:0000e09c       ?fillString@XMLDateTime@xercesc_3_1@@ABEXAAPA_WHK@Z 1200f09c f   XMLDateTime.obj
 0001:0000e113       ?fillYearString@XMLDateTime@xercesc_3_1@@ABEHAAPA_WH@Z 1200f113 f   XMLDateTime.obj
 0001:0000e1b1       ?searchMiliSeconds@XMLDateTime@xercesc_3_1@@ABEXAAPA_W0@Z 1200f1b1 f   XMLDateTime.obj
 0001:0000e215       ?createObject@XMLDateTime@xercesc_3_1@@SAPAVXSerializable@2@PAVMemoryManager@2@@Z 1200f215 f   XMLDateTime.obj
 0001:0000e23c       ?getProtoType@XMLDateTime@xercesc_3_1@@UBEPAVXProtoType@2@XZ 1200f23c f   XMLDateTime.obj
 0001:0000e242       ?serialize@XMLDateTime@xercesc_3_1@@UAEXAAVXSerializeEngine@2@@Z 1200f242 f   XMLDateTime.obj
 0001:0000e313       ??_FXMLDouble@xercesc_3_1@@QAEXXZ 1200f313 f i XMLDouble.obj
 0001:0000e31f       ??_EXMLDouble@xercesc_3_1@@UAEPAXI@Z 1200f31f f i XMLDouble.obj
 0001:0000e3bb       ?compareValues@XMLDouble@xercesc_3_1@@SAHQBV12@0@Z 1200f3bb f i XMLDouble.obj
 0001:0000e3bb       ?compareValues@XMLFloat@xercesc_3_1@@SAHQBV12@0@Z 1200f3bb f i XMLFloat.obj
 0001:0000e3d2       ??0XMLDouble@xercesc_3_1@@QAE@QB_WQAVMemoryManager@1@@Z 1200f3d2 f   XMLDouble.obj
 0001:0000e409       ??1XMLDouble@xercesc_3_1@@UAE@XZ 1200f409 f   XMLDouble.obj
 0001:0000e414       ?checkBoundary@XMLDouble@xercesc_3_1@@MAEXQAD@Z 1200f414 f   XMLDouble.obj
 0001:0000e41d       ?createObject@XMLDouble@xercesc_3_1@@SAPAVXSerializable@2@PAVMemoryManager@2@@Z 1200f41d f   XMLDouble.obj
 0001:0000e444       ?getProtoType@XMLDouble@xercesc_3_1@@UBEPAVXProtoType@2@XZ 1200f444 f   XMLDouble.obj
 0001:0000e44a       ??0XMLDouble@xercesc_3_1@@QAE@QAVMemoryManager@1@@Z 1200f44a f   XMLDouble.obj
 0001:0000e465       ?serialize@XMLDouble@xercesc_3_1@@UAEXAAVXSerializeEngine@2@@Z 1200f465 f   XMLDouble.obj
 0001:0000e465       ?serialize@XMLFloat@xercesc_3_1@@UAEXAAVXSerializeEngine@2@@Z 1200f465 f   XMLFloat.obj
 0001:0000e46e       ?xlatThisOne@XMLEBCDICTranscoder@xercesc_3_1@@SA_WE@Z 1200f46e f   XMLEBCDICTranscoder.obj
 0001:0000e47f       ??0XMLEBCDICTranscoder@xercesc_3_1@@QAE@QB_WKQAVMemoryManager@1@@Z 1200f47f f   XMLEBCDICTranscoder.obj
 0001:0000e4b3       ??_EXMLException@xercesc_3_1@@UAEPAXI@Z 1200f4b3 f i XMLException.obj
 0001:0000e54b       ?initializeXMLException@XMLInitializer@xercesc_3_1@@CAXXZ 1200f54b f   XMLException.obj
 0001:0000e568       ?terminateXMLException@XMLInitializer@xercesc_3_1@@CAXXZ 1200f568 f   XMLException.obj
 0001:0000e580       ??1XMLException@xercesc_3_1@@UAE@XZ 1200f580 f   XMLException.obj
 0001:0000e5d4       ?setPosition@XMLException@xercesc_3_1@@QAEXQBD_K@Z 1200f5d4 f   XMLException.obj
 0001:0000e606       ??0XMLException@xercesc_3_1@@QAE@XZ 1200f606 f   XMLException.obj
 0001:0000e632       ??0XMLException@xercesc_3_1@@QAE@QBD_KQAVMemoryManager@1@@Z 1200f632 f   XMLException.obj
 0001:0000e682       ??0XMLException@xercesc_3_1@@QAE@ABV01@@Z 1200f682 f   XMLException.obj
 0001:0000e6da       ??4XMLException@xercesc_3_1@@QAEAAV01@ABV01@@Z 1200f6da f   XMLException.obj
 0001:0000e750       ?loadExceptText@XMLException@xercesc_3_1@@IAEXW4Codes@XMLExcepts@2@@Z 1200f750 f   XMLException.obj
 0001:0000e7b3       ?loadExceptText@XMLException@xercesc_3_1@@IAEXW4Codes@XMLExcepts@2@QB_W111@Z 1200f7b3 f   XMLException.obj
 0001:0000e84d       ?loadExceptText@XMLException@xercesc_3_1@@IAEXW4Codes@XMLExcepts@2@QBD111@Z 1200f84d f   XMLException.obj
 0001:0000e8e7       ??_FXMLFloat@xercesc_3_1@@QAEXXZ 1200f8e7 f i XMLFloat.obj
 0001:0000e8f3       ??_EXMLFloat@xercesc_3_1@@UAEPAXI@Z 1200f8f3 f i XMLFloat.obj
 0001:0000e98f       ??0XMLFloat@xercesc_3_1@@QAE@QB_WQAVMemoryManager@1@@Z 1200f98f f   XMLFloat.obj
 0001:0000e9c6       ??1XMLFloat@xercesc_3_1@@UAE@XZ 1200f9c6 f   XMLFloat.obj
 0001:0000e9d1       ?checkBoundary@XMLFloat@xercesc_3_1@@MAEXQAD@Z 1200f9d1 f   XMLFloat.obj
 0001:0000eb1c       ?createObject@XMLFloat@xercesc_3_1@@SAPAVXSerializable@2@PAVMemoryManager@2@@Z 1200fb1c f   XMLFloat.obj
 0001:0000eb43       ?getProtoType@XMLFloat@xercesc_3_1@@UBEPAVXProtoType@2@XZ 1200fb43 f   XMLFloat.obj
 0001:0000eb49       ??0XMLFloat@xercesc_3_1@@QAE@QAVMemoryManager@1@@Z 1200fb49 f   XMLFloat.obj
 0001:0000eb64       ?xlatThisOne@XMLIBM1047Transcoder@xercesc_3_1@@SA_WE@Z 1200fb64 f   XMLIBM1047Transcoder.obj
 0001:0000eb75       ??0XMLIBM1047Transcoder@xercesc_3_1@@QAE@QB_WKQAVMemoryManager@1@@Z 1200fb75 f   XMLIBM1047Transcoder.obj
 0001:0000eba9       ?xlatThisOne@XMLIBM1140Transcoder@xercesc_3_1@@SA_WE@Z 1200fba9 f   XMLIBM1140Transcoder.obj
 0001:0000ebba       ??0XMLIBM1140Transcoder@xercesc_3_1@@QAE@QB_WKQAVMemoryManager@1@@Z 1200fbba f   XMLIBM1140Transcoder.obj
 0001:0000ebee       ?initializeStaticData@XMLInitializer@xercesc_3_1@@KAXXZ 1200fbee f   XMLInitializer.obj
 0001:0000ec73       ?terminateStaticData@XMLInitializer@xercesc_3_1@@KAXXZ 1200fc73 f   XMLInitializer.obj
 0001:0000ecca       ?setLocale@XMLMsgLoader@xercesc_3_1@@SAXQBD@Z 1200fcca f   XMLMsgLoader.obj
 0001:0000ed28       ?getLocale@XMLMsgLoader@xercesc_3_1@@SAPBDXZ 1200fd28 f   XMLMsgLoader.obj
 0001:0000ed2e       ?setNLSHome@XMLMsgLoader@xercesc_3_1@@SAXQBD@Z 1200fd2e f   XMLMsgLoader.obj
 0001:0000ed6b       ?getNLSHome@XMLMsgLoader@xercesc_3_1@@SAPBDXZ 1200fd6b f   XMLMsgLoader.obj
 0001:0000ed71       ??_EGrammar@xercesc_3_1@@UAEPAXI@Z 1200fd71 f i XMLDTDDescription.obj
 0001:0000ed71       ??_EXMLNumber@xercesc_3_1@@UAEPAXI@Z 1200fd71 f i XMLNumber.obj
 0001:0000ee0b       ??0XMLNumber@xercesc_3_1@@IAE@XZ 1200fe0b f   XMLNumber.obj
 0001:0000ee14       ??0XMLNumber@xercesc_3_1@@IAE@ABV01@@Z 1200fe14 f   XMLNumber.obj
 0001:0000ee1f       ?getProtoType@XMLNumber@xercesc_3_1@@UBEPAVXProtoType@2@XZ 1200fe1f f   XMLNumber.obj
 0001:0000ee25       ?loadNumber@XMLNumber@xercesc_3_1@@SAPAV12@W4NumberType@12@AAVXSerializeEngine@2@@Z 1200fe25 f   XMLNumber.obj
 0001:0000ee6a       ??_FXMLUri@xercesc_3_1@@QAEXXZ 1200fe6a f i XMLString.obj
 0001:0000ee76       ?getUriText@XMLUri@xercesc_3_1@@QBEPB_WXZ 1200fe76 f i XMLString.obj
 0001:0000ee89       ?isReservedOrUnreservedCharacter@XMLUri@xercesc_3_1@@CA_N_W@Z 1200fe89 f i XMLString.obj
 0001:0000eeb5       ?isReservedCharacter@XMLUri@xercesc_3_1@@CA_N_W@Z 1200feb5 f i XMLString.obj
 0001:0000eecf       ?isPathCharacter@XMLUri@xercesc_3_1@@CA_N_W@Z 1200fecf f i XMLString.obj
 0001:0000eee9       ?isUnreservedCharacter@XMLUri@xercesc_3_1@@CA_N_W@Z 1200fee9 f i XMLString.obj
 0001:0000ef15       ?sizeToText@XMLString@xercesc_3_1@@SAXKQADKIQAVMemoryManager@2@@Z 1200ff15 f   XMLString.obj
 0001:0000f061       ?binToText@XMLString@xercesc_3_1@@SAXKQADKIQAVMemoryManager@2@@Z 12010061 f   XMLString.obj
 0001:0000f1b0       ?binToText@XMLString@xercesc_3_1@@SAXIQADKIQAVMemoryManager@2@@Z 120101b0 f   XMLString.obj
 0001:0000f1b5       ?binToText@XMLString@xercesc_3_1@@SAXJQADKIQAVMemoryManager@2@@Z 120101b5 f   XMLString.obj
 0001:0000f1e1       ?binToText@XMLString@xercesc_3_1@@SAXHQADKIQAVMemoryManager@2@@Z 120101e1 f   XMLString.obj
 0001:0000f1e6       ?catString@XMLString@xercesc_3_1@@SAXQADQBD@Z 120101e6 f   XMLString.obj
 0001:0000f1ec       ?compareIString@XMLString@xercesc_3_1@@SAHQBD0@Z 120101ec f   XMLString.obj
 0001:0000f1f6       ?compareNString@XMLString@xercesc_3_1@@SAHQBD0K@Z 120101f6 f   XMLString.obj
 0001:0000f20a       ?compareNIString@XMLString@xercesc_3_1@@SAHQBD0K@Z 1201020a f   XMLString.obj
 0001:0000f21e       ?compareString@XMLString@xercesc_3_1@@SAHQBD0@Z 1201021e f   XMLString.obj
 0001:0000f228       ?copyString@XMLString@xercesc_3_1@@SAXQADQBD@Z 12010228 f   XMLString.obj
 0001:0000f22e       ?cut@XMLString@xercesc_3_1@@SAXQA_WK@Z 1201022e f   XMLString.obj
 0001:0000f253       ?hash@XMLString@xercesc_3_1@@SAKQBDK@Z 12010253 f   XMLString.obj
 0001:0000f280       ?indexOf@XMLString@xercesc_3_1@@SAHQBDD@Z 12010280 f   XMLString.obj
 0001:0000f2aa       ?indexOf@XMLString@xercesc_3_1@@SAHQBDDKQAVMemoryManager@2@@Z 120102aa f   XMLString.obj
 0001:0000f307       ?lastIndexOf@XMLString@xercesc_3_1@@SAHQBDD@Z 12010307 f   XMLString.obj
 0001:0000f32e       ?lastIndexOf@XMLString@xercesc_3_1@@SAHQBDDKQAVMemoryManager@2@@Z 1201032e f   XMLString.obj
 0001:0000f38b       ?replaceTokens@XMLString@xercesc_3_1@@SAKQA_WKQB_W111QAVMemoryManager@2@@Z 1201038b f   XMLString.obj
 0001:0000f483       ?replicate@XMLString@xercesc_3_1@@SAPADQBDQAVMemoryManager@2@@Z 12010483 f   XMLString.obj
 0001:0000f4be       ?startsWith@XMLString@xercesc_3_1@@SA_NQBD0@Z 120104be f   XMLString.obj
 0001:0000f4e2       ?startsWithI@XMLString@xercesc_3_1@@SA_NQBD0@Z 120104e2 f   XMLString.obj
 0001:0000f506       ?stringLen@XMLString@xercesc_3_1@@SAKQBD@Z 12010506 f   XMLString.obj
 0001:0000f510       ?transcode@XMLString@xercesc_3_1@@SAPADQB_WQAVMemoryManager@2@@Z 12010510 f   XMLString.obj
 0001:0000f526       ?transcode@XMLString@xercesc_3_1@@SA_NQB_WQADKQAVMemoryManager@2@@Z 12010526 f   XMLString.obj
 0001:0000f542       ?transcode@XMLString@xercesc_3_1@@SAPA_WQBDQAVMemoryManager@2@@Z 12010542 f   XMLString.obj
 0001:0000f558       ?transcode@XMLString@xercesc_3_1@@SA_NQBDQA_WKQAVMemoryManager@2@@Z 12010558 f   XMLString.obj
 0001:0000f574       ?trim@XMLString@xercesc_3_1@@SAXQAD@Z 12010574 f   XMLString.obj
 0001:0000f5e7       ?subString@XMLString@xercesc_3_1@@SAXQADQBDKKQAVMemoryManager@2@@Z 120105e7 f   XMLString.obj
 0001:0000f689       ?isValidNOTATION@XMLString@xercesc_3_1@@SA_NQB_WQAVMemoryManager@2@@Z 12010689 f   XMLString.obj
 0001:0000f74a       ?isValidEncName@XMLString@xercesc_3_1@@SA_NQB_W@Z 1201074a f   XMLString.obj
 0001:0000f7b3       ?isAlpha@XMLString@xercesc_3_1@@SA_N_W@Z 120107b3 f   XMLString.obj
 0001:0000f7d9       ?isDigit@XMLString@xercesc_3_1@@SA_N_W@Z 120107d9 f   XMLString.obj
 0001:0000f7ef       ?isAlphaNum@XMLString@xercesc_3_1@@SA_N_W@Z 120107ef f   XMLString.obj
 0001:0000f813       ?isHex@XMLString@xercesc_3_1@@SA_N_W@Z 12010813 f   XMLString.obj
 0001:0000f842       ?sizeToText@XMLString@xercesc_3_1@@SAXKQA_WKIQAVMemoryManager@2@@Z 12010842 f   XMLString.obj
 0001:0000f9b8       ?binToText@XMLString@xercesc_3_1@@SAXKQA_WKIQAVMemoryManager@2@@Z 120109b8 f   XMLString.obj
 0001:0000fb2e       ?binToText@XMLString@xercesc_3_1@@SAXIQA_WKIQAVMemoryManager@2@@Z 12010b2e f   XMLString.obj
 0001:0000fb33       ?binToText@XMLString@xercesc_3_1@@SAXJQA_WKIQAVMemoryManager@2@@Z 12010b33 f   XMLString.obj
 0001:0000fb66       ?binToText@XMLString@xercesc_3_1@@SAXHQA_WKIQAVMemoryManager@2@@Z 12010b66 f   XMLString.obj
 0001:0000fb84       ?catString@XMLString@xercesc_3_1@@SAXQA_WQB_W@Z 12010b84 f   XMLString.obj
 0001:0000fbbe       ?compareIString@XMLString@xercesc_3_1@@SAHQB_W0@Z 12010bbe f   XMLString.obj
 0001:0000fbd4       ?compareIStringASCII@XMLString@xercesc_3_1@@SAHQB_W0@Z 12010bd4 f   XMLString.obj
 0001:0000fc5b       ?compareNString@XMLString@xercesc_3_1@@SAHQB_W0K@Z 12010c5b f   XMLString.obj
 0001:0000fc9b       ?compareNIString@XMLString@xercesc_3_1@@SAHQB_W0K@Z 12010c9b f   XMLString.obj
 0001:0000fcb4       ?compareString@XMLString@xercesc_3_1@@SAHQB_W0@Z 12010cb4 f   XMLString.obj
 0001:0000fd1e       ?regionMatches@XMLString@xercesc_3_1@@SA_NQB_WH0HK@Z 12010d1e f   XMLString.obj
 0001:0000fd67       ?regionIMatches@XMLString@xercesc_3_1@@SA_NQB_WH0HK@Z 12010d67 f   XMLString.obj
 0001:0000fdb0       ?copyString@XMLString@xercesc_3_1@@SAXQA_WQB_W@Z 12010db0 f   XMLString.obj
 0001:0000fddd       ?copyNString@XMLString@xercesc_3_1@@SA_NQA_WQB_WK@Z 12010ddd f   XMLString.obj
 0001:0000fe2c       ?findAny@XMLString@xercesc_3_1@@SAPA_WQA_WQB_W@Z 12010e2c f   XMLString.obj
 0001:0000fe2c       ?findAny@XMLString@xercesc_3_1@@SAPB_WQB_W0@Z 12010e2c f   XMLString.obj
 0001:0000fe79       ?patternMatch@XMLString@xercesc_3_1@@SAHQB_W0@Z 12010e79 f   XMLString.obj
 0001:0000ff19       ?indexOf@XMLString@xercesc_3_1@@SAHQB_W_W@Z 12010f19 f   XMLString.obj
 0001:0000ff52       ?indexOf@XMLString@xercesc_3_1@@SAHQB_W_WKQAVMemoryManager@2@@Z 12010f52 f   XMLString.obj
 0001:0000ffc1       ?lastIndexOf@XMLString@xercesc_3_1@@SAH_WQB_WK@Z 12010fc1 f   XMLString.obj
 0001:0000ffed       ?lastIndexOf@XMLString@xercesc_3_1@@SAHQB_W_WKQAVMemoryManager@2@@Z 12010fed f   XMLString.obj
 0001:00010051       ?makeUName@XMLString@xercesc_3_1@@SAPA_WQB_W0@Z 12011051 f   XMLString.obj
 0001:000100de       ?textToBin@XMLString@xercesc_3_1@@SA_NQB_WAAIQAVMemoryManager@2@@Z 120110de f   XMLString.obj
 0001:000101a2       ?parseInt@XMLString@xercesc_3_1@@SAHQB_WQAVMemoryManager@2@@Z 120111a2 f   XMLString.obj
 0001:000102b8       ?trim@XMLString@xercesc_3_1@@SAXQA_W@Z 120112b8 f   XMLString.obj
 0001:0001033b       ?upperCase@XMLString@xercesc_3_1@@SAXQA_W@Z 1201133b f   XMLString.obj
 0001:0001034e       ?upperCaseASCII@XMLString@xercesc_3_1@@SAXQA_W@Z 1201134e f   XMLString.obj
 0001:00010380       ?lowerCase@XMLString@xercesc_3_1@@SAXQA_W@Z 12011380 f   XMLString.obj
 0001:00010393       ?lowerCaseASCII@XMLString@xercesc_3_1@@SAXQA_W@Z 12011393 f   XMLString.obj
 0001:000103c5       ?subString@XMLString@xercesc_3_1@@SAXQA_WQB_WKKQAVMemoryManager@2@@Z 120113c5 f   XMLString.obj
 0001:000103eb       ?subString@XMLString@xercesc_3_1@@SAXQA_WQB_WKKKQAVMemoryManager@2@@Z 120113eb f   XMLString.obj
 0001:00010488       ?tokenizeString@XMLString@xercesc_3_1@@SAPAV?$BaseRefVectorOf@_W@2@QB_WQAVMemoryManager@2@@Z 12011488 f   XMLString.obj
 0001:0001057a       ?isInList@XMLString@xercesc_3_1@@SA_NQB_W0@Z 1201157a f   XMLString.obj
 0001:0001060f       ?isWSReplaced@XMLString@xercesc_3_1@@SA_NQB_W@Z 1201160f f   XMLString.obj
 0001:0001064a       ?replaceWS@XMLString@xercesc_3_1@@SAXPA_WQAVMemoryManager@2@@Z 1201164a f   XMLString.obj
 0001:00010685       ?isWSCollapsed@XMLString@xercesc_3_1@@SA_NQB_W@Z 12011685 f   XMLString.obj
 0001:000106e4       ?collapseWS@XMLString@xercesc_3_1@@SAXPA_WQAVMemoryManager@2@@Z 120116e4 f   XMLString.obj
 0001:000107b4       ?removeWS@XMLString@xercesc_3_1@@SAXPA_WQAVMemoryManager@2@@Z 120117b4 f   XMLString.obj
 0001:000107fe       ?removeChar@XMLString@xercesc_3_1@@SAXQB_WAB_WAAVXMLBuffer@2@@Z 120117fe f   XMLString.obj
 0001:00010839       ?fixURI@XMLString@xercesc_3_1@@SAXQB_WQA_W@Z 12011839 f   XMLString.obj
 0001:00010971       ?release@XMLString@xercesc_3_1@@SAXPAPADQAVMemoryManager@2@@Z 12011971 f   XMLString.obj
 0001:00010971       ?release@XMLString@xercesc_3_1@@SAXPAPA_WQAVMemoryManager@2@@Z 12011971 f   XMLString.obj
 0001:00010988       ?initString@XMLString@xercesc_3_1@@CAXQAVXMLLCPTranscoder@2@QAVMemoryManager@2@@Z 12011988 f   XMLString.obj
 0001:0001099d       ?termString@XMLString@xercesc_3_1@@CAXXZ 1201199d f   XMLString.obj
 0001:000109bc       ?addElement@?$BaseRefVectorOf@V?$RefHashTableOf@_WUStringHasher@xercesc_3_1@@@xercesc_3_1@@@xercesc_3_1@@QAEXQAV?$RefHashTableOf@_WUStringHasher@xercesc_3_1@@@2@@Z 120119bc f i DOMLSSerializerImpl.obj
 0001:000109bc       ?addElement@?$BaseRefVectorOf@VDOMNode@xercesc_3_1@@@xercesc_3_1@@QAEXQAVDOMNode@2@@Z 120119bc f i DOMDocumentImpl.obj
 0001:000109bc       ?addElement@?$BaseRefVectorOf@VDatatypeValidator@xercesc_3_1@@@xercesc_3_1@@QAEXQAVDatatypeValidator@2@@Z 120119bc f i XTemplateSerializer.obj
 0001:000109bc       ?addElement@?$BaseRefVectorOf@VOp@xercesc_3_1@@@xercesc_3_1@@QAEXQAVOp@2@@Z 120119bc f i Op.obj
 0001:000109bc       ?addElement@?$BaseRefVectorOf@VSchemaAttDef@xercesc_3_1@@@xercesc_3_1@@QAEXQAVSchemaAttDef@2@@Z 120119bc f i XMLGrammarPoolImpl.obj
 0001:000109bc       ?addElement@?$BaseRefVectorOf@VSchemaElementDecl@xercesc_3_1@@@xercesc_3_1@@QAEXQAVSchemaElementDecl@2@@Z 120119bc f i XMLElementDecl.obj
 0001:000109bc       ?addElement@?$BaseRefVectorOf@VSchemaInfo@xercesc_3_1@@@xercesc_3_1@@QAEXQAVSchemaInfo@2@@Z 120119bc f i IGXMLScanner.obj
 0001:000109bc       ?addElement@?$BaseRefVectorOf@VToken@xercesc_3_1@@@xercesc_3_1@@QAEXQAVToken@2@@Z 120119bc f i TokenFactory.obj
 0001:000109bc       ?addElement@?$BaseRefVectorOf@VXMLAttr@xercesc_3_1@@@xercesc_3_1@@QAEXQAVXMLAttr@2@@Z 120119bc f i DGXMLScanner.obj
 0001:000109bc       ?addElement@?$BaseRefVectorOf@VXSAnnotation@xercesc_3_1@@@xercesc_3_1@@QAEXQAVXSAnnotation@2@@Z 120119bc f i XSComplexTypeDefinition.obj
 0001:000109bc       ?addElement@?$BaseRefVectorOf@VXSFacet@xercesc_3_1@@@xercesc_3_1@@QAEXQAVXSFacet@2@@Z 120119bc f i XSObjectFactory.obj
 0001:000109bc       ?addElement@?$BaseRefVectorOf@VXSMultiValueFacet@xercesc_3_1@@@xercesc_3_1@@QAEXQAVXSMultiValueFacet@2@@Z 120119bc f i XSObjectFactory.obj
 0001:000109bc       ?addElement@?$BaseRefVectorOf@VXSNamespaceItem@xercesc_3_1@@@xercesc_3_1@@QAEXQAVXSNamespaceItem@2@@Z 120119bc f i XSModel.obj
 0001:000109bc       ?addElement@?$BaseRefVectorOf@VXSObject@xercesc_3_1@@@xercesc_3_1@@QAEXQAVXSObject@2@@Z 120119bc f i XSModel.obj
 0001:000109bc       ?addElement@?$BaseRefVectorOf@VXSParticle@xercesc_3_1@@@xercesc_3_1@@QAEXQAVXSParticle@2@@Z 120119bc f i XSObjectFactory.obj
 0001:000109bc       ?addElement@?$BaseRefVectorOf@VXercesLocationPath@xercesc_3_1@@@xercesc_3_1@@QAEXQAVXercesLocationPath@2@@Z 120119bc f i XTemplateSerializer.obj
 0001:000109bc       ?addElement@?$BaseRefVectorOf@VXercesStep@xercesc_3_1@@@xercesc_3_1@@QAEXQAVXercesStep@2@@Z 120119bc f i XMLGrammarPoolImpl.obj
 0001:000109bc       ?addElement@?$BaseRefVectorOf@_W@xercesc_3_1@@QAEXQA_W@Z 120119bc f i XMLString.obj
 0001:000109de       ?setElementAt@?$BaseRefVectorOf@_W@xercesc_3_1@@UAEXQA_WK@Z 120119de f i XMLString.obj
 0001:00010a38       ?removeAllElements@?$BaseRefVectorOf@_W@xercesc_3_1@@UAEXXZ 12011a38 f i XMLString.obj
 0001:00010a70       ?removeElementAt@?$BaseRefVectorOf@_W@xercesc_3_1@@UAEXK@Z 12011a70 f i XMLString.obj
 0001:00010b05       ?removeLastElement@?$BaseRefVectorOf@_W@xercesc_3_1@@UAEXXZ 12011b05 f i XMLString.obj
 0001:00010b26       ?cleanup@?$BaseRefVectorOf@_W@xercesc_3_1@@UAEXXZ 12011b26 f i XMLString.obj
 0001:00010b5a       ??1?$RefArrayVectorOf@_W@xercesc_3_1@@UAE@XZ 12011b5a f i XMLString.obj
 0001:00010bcc       ?setElementAt@?$RefArrayVectorOf@_W@xercesc_3_1@@UAEXQA_WK@Z 12011bcc f i XMLString.obj
 0001:00010c25       ?removeAllElements@?$RefArrayVectorOf@_W@xercesc_3_1@@UAEXXZ 12011c25 f i XMLString.obj
 0001:00010c5c       ?removeElementAt@?$RefArrayVectorOf@_W@xercesc_3_1@@UAEXK@Z 12011c5c f i XMLString.obj
 0001:00010ced       ?removeLastElement@?$RefArrayVectorOf@_W@xercesc_3_1@@UAEXXZ 12011ced f i XMLString.obj
 0001:00010d13       ?cleanup@?$RefArrayVectorOf@_W@xercesc_3_1@@UAEXXZ 12011d13 f i XMLString.obj
 0001:00010d46       ??_E?$BaseRefVectorOf@_W@xercesc_3_1@@UAEPAXI@Z 12011d46 f i * CIL library *:* CIL module *
 0001:00010d46       ??_G?$BaseRefVectorOf@_W@xercesc_3_1@@UAEPAXI@Z 12011d46 f i XMLString.obj
 0001:00010d77       ??_E?$RefArrayVectorOf@_W@xercesc_3_1@@UAEPAXI@Z 12011d77 f i * CIL library *:* CIL module *
 0001:00010d77       ??_G?$RefArrayVectorOf@_W@xercesc_3_1@@UAEPAXI@Z 12011d77 f i XMLString.obj
 0001:00010da7       ??0?$BaseRefVectorOf@_W@xercesc_3_1@@QAE@K_NQAVMemoryManager@1@@Z 12011da7 f i XMLString.obj
 0001:00010e35       ?isDelimeter@XMLStringTokenizer@xercesc_3_1@@AAE_N_W@Z 12011e35 f i XMLStringTokenizer.obj
 0001:00010e4f       ?countTokens@XMLStringTokenizer@xercesc_3_1@@QAEIXZ 12011e4f f i XMLStringTokenizer.obj
 0001:00010eb0       ??0XMLStringTokenizer@xercesc_3_1@@QAE@QB_WQAVMemoryManager@1@@Z 12011eb0 f   XMLStringTokenizer.obj
 0001:00010f53       ??0XMLStringTokenizer@xercesc_3_1@@QAE@QB_W0QAVMemoryManager@1@@Z 12011f53 f   XMLStringTokenizer.obj
 0001:00010ffb       ??1XMLStringTokenizer@xercesc_3_1@@QAE@XZ 12011ffb f   XMLStringTokenizer.obj
 0001:00011034       ?cleanUp@XMLStringTokenizer@xercesc_3_1@@AAEXXZ 12012034 f   XMLStringTokenizer.obj
 0001:00011065       ?nextToken@XMLStringTokenizer@xercesc_3_1@@QAEPA_WXZ 12012065 f   XMLStringTokenizer.obj
 0001:0001110a       ?hasMoreTokens@XMLStringTokenizer@xercesc_3_1@@QAE_NXZ 1201210a f   XMLStringTokenizer.obj
 0001:00011115       ??1?$JanitorMemFunCall@VBMPattern@xercesc_3_1@@@xercesc_3_1@@QAE@XZ 12012115 f i BMPattern.obj
 0001:00011115       ??1?$JanitorMemFunCall@VDOMXPathExpression@xercesc_3_1@@@xercesc_3_1@@QAE@XZ 12012115 f i DOMDocumentImpl.obj
 0001:00011115       ??1?$JanitorMemFunCall@VFieldValueMap@xercesc_3_1@@@xercesc_3_1@@QAE@XZ 12012115 f i FieldValueMap.obj
 0001:00011115       ??1?$JanitorMemFunCall@VRangeTokenMap@xercesc_3_1@@@xercesc_3_1@@QAE@XZ 12012115 f i RangeTokenMap.obj
 0001:00011115       ??1?$JanitorMemFunCall@VTraverseSchema@xercesc_3_1@@@xercesc_3_1@@QAE@XZ 12012115 f i TraverseSchema.obj
 0001:00011115       ??1?$JanitorMemFunCall@VValueStoreCache@xercesc_3_1@@@xercesc_3_1@@QAE@XZ 12012115 f i ValueStoreCache.obj
 0001:00011115       ??1?$JanitorMemFunCall@VXMLAttr@xercesc_3_1@@@xercesc_3_1@@QAE@XZ 12012115 f i XMLAttr.obj
 0001:00011115       ??1?$JanitorMemFunCall@VXMLStringTokenizer@xercesc_3_1@@@xercesc_3_1@@QAE@XZ 12012115 f i XMLStringTokenizer.obj
 0001:00011115       ??1?$JanitorMemFunCall@VXPathMatcherStack@xercesc_3_1@@@xercesc_3_1@@QAE@XZ 12012115 f i XPathMatcherStack.obj
 0001:0001115f       ??_EXMLUCS4Transcoder@xercesc_3_1@@UAEPAXI@Z 1201215f f i XMLUCS4Transcoder.obj
 0001:000111fb       ??0XMLUCS4Transcoder@xercesc_3_1@@QAE@QB_WK_NQAVMemoryManager@1@@Z 120121fb f   XMLUCS4Transcoder.obj
 0001:00011226       ??1XMLUCS4Transcoder@xercesc_3_1@@UAE@XZ 12012226 f   XMLUCS4Transcoder.obj
 0001:00011231       ?transcodeFrom@XMLUCS4Transcoder@xercesc_3_1@@UAEKQBEKQA_WKAAKQAE@Z 12012231 f   XMLUCS4Transcoder.obj
 0001:000112d9       ?transcodeTo@XMLUCS4Transcoder@xercesc_3_1@@UAEKQB_WKQAEKAAKW4UnRepOpts@XMLTranscoder@2@@Z 120122d9 f   XMLUCS4Transcoder.obj
 0001:000113b2       ??_EXMLUri@xercesc_3_1@@UAEPAXI@Z 120123b2 f i XMLUri.obj
 0001:00011448       ??0XMLUri@xercesc_3_1@@QAE@QB_WQAVMemoryManager@1@@Z 12012448 f   XMLUri.obj
 0001:000114bc       ??0XMLUri@xercesc_3_1@@QAE@QBV01@QB_WQAVMemoryManager@1@@Z 120124bc f   XMLUri.obj
 0001:00011534       ??0XMLUri@xercesc_3_1@@QAE@ABV01@@Z 12012534 f   XMLUri.obj
 0001:000115aa       ??4XMLUri@xercesc_3_1@@QAEAAV01@ABV01@@Z 120125aa f   XMLUri.obj
 0001:000115f9       ??1XMLUri@xercesc_3_1@@UAE@XZ 120125f9 f   XMLUri.obj
 0001:00011642       ?cleanUp@XMLUri@xercesc_3_1@@AAEXXZ 12012642 f   XMLUri.obj
 0001:000116d4       ?initialize@XMLUri@xercesc_3_1@@AAEXABV12@@Z 120126d4 f   XMLUri.obj
 0001:00011753       ?initialize@XMLUri@xercesc_3_1@@AAEXQBV12@QB_W@Z 12012753 f   XMLUri.obj
 0001:00011e29       ?initializeAuthority@XMLUri@xercesc_3_1@@AAEXQB_W@Z 12012e29 f   XMLUri.obj
 0001:00012059       ?initializeScheme@XMLUri@xercesc_3_1@@AAEXQB_W@Z 12013059 f   XMLUri.obj
 0001:00012102       ?initializePath@XMLUri@xercesc_3_1@@AAEXQB_W@Z 12013102 f   XMLUri.obj
 0001:0001289b       ?setScheme@XMLUri@xercesc_3_1@@QAEXQB_W@Z 1201389b f   XMLUri.obj
 0001:0001294f       ?setUserInfo@XMLUri@xercesc_3_1@@QAEXQB_W@Z 1201394f f   XMLUri.obj
 0001:000129df       ?setHost@XMLUri@xercesc_3_1@@QAEXQB_W@Z 120139df f   XMLUri.obj
 0001:00012a90       ?setPort@XMLUri@xercesc_3_1@@QAEXH@Z 12013a90 f   XMLUri.obj
 0001:00012b72       ?setRegBasedAuthority@XMLUri@xercesc_3_1@@QAEXQB_W@Z 12013b72 f   XMLUri.obj
 0001:00012c0b       ?setPath@XMLUri@xercesc_3_1@@QAEXQB_W@Z 12013c0b f   XMLUri.obj
 0001:00012c53       ?setFragment@XMLUri@xercesc_3_1@@QAEXQB_W@Z 12013c53 f   XMLUri.obj
 0001:00012d58       ?setQueryString@XMLUri@xercesc_3_1@@QAEXQB_W@Z 12013d58 f   XMLUri.obj
 0001:00012e5d       ?isConformantSchemeName@XMLUri@xercesc_3_1@@CA_NQB_W@Z 12013e5d f   XMLUri.obj
 0001:00012eb8       ?isConformantUserInfo@XMLUri@xercesc_3_1@@CAXQB_WQAVMemoryManager@2@@Z 12013eb8 f   XMLUri.obj
 0001:00012fe9       ?isValidServerBasedAuthority@XMLUri@xercesc_3_1@@CA_NQB_WKH0K@Z 12013fe9 f   XMLUri.obj
 0001:0001308d       ?isValidServerBasedAuthority@XMLUri@xercesc_3_1@@CA_NQB_WH0QAVMemoryManager@2@@Z 1201408d f   XMLUri.obj
 0001:0001313b       ?isValidRegistryBasedAuthority@XMLUri@xercesc_3_1@@CA_NQB_WK@Z 1201413b f   XMLUri.obj
 0001:000131b7       ?isValidRegistryBasedAuthority@XMLUri@xercesc_3_1@@CA_NQB_W@Z 120141b7 f   XMLUri.obj
 0001:00013237       ?isURIString@XMLUri@xercesc_3_1@@SA_NQB_W@Z 12014237 f   XMLUri.obj
 0001:000132a5       ?isWellFormedAddress@XMLUri@xercesc_3_1@@CA_NQB_WQAVMemoryManager@2@@Z 120142a5 f   XMLUri.obj
 0001:0001342d       ?isWellFormedIPv4Address@XMLUri@xercesc_3_1@@CA_NQB_WK@Z 1201442d f   XMLUri.obj
 0001:000134d4       ?isWellFormedIPv6Reference@XMLUri@xercesc_3_1@@CA_NQB_WK@Z 120144d4 f   XMLUri.obj
 0001:000135a2       ?scanHexSequence@XMLUri@xercesc_3_1@@CAHQB_WKKAAH@Z 120145a2 f   XMLUri.obj
 0001:0001364c       ?isGenericURI@XMLUri@xercesc_3_1@@AAE_NXZ 1201464c f   XMLUri.obj
 0001:00013654       ?buildFullText@XMLUri@xercesc_3_1@@AAEXXZ 12014654 f   XMLUri.obj
 0001:00013825       ?isValidURI@XMLUri@xercesc_3_1@@SA_NQBV12@QB_W_N@Z 12014825 f   XMLUri.obj
 0001:000139f5       ?isValidURI@XMLUri@xercesc_3_1@@SA_N_NQB_W0@Z 120149f5 f   XMLUri.obj
 0001:00013bc5       ?isWellFormedAddress@XMLUri@xercesc_3_1@@CA_NQB_WK@Z 12014bc5 f   XMLUri.obj
 0001:00013cdd       ?processScheme@XMLUri@xercesc_3_1@@CA_NQB_WAAK@Z 12014cdd f   XMLUri.obj
 0001:00013d0e       ?isConformantSchemeName@XMLUri@xercesc_3_1@@CA_NQB_WK@Z 12014d0e f   XMLUri.obj
 0001:00013d5f       ?processAuthority@XMLUri@xercesc_3_1@@CA_NQB_WK@Z 12014d5f f   XMLUri.obj
 0001:00013ee3       ?processPath@XMLUri@xercesc_3_1@@CA_NQB_WK_N1@Z 12014ee3 f   XMLUri.obj
 0001:00014069       ?normalizeURI@XMLUri@xercesc_3_1@@SAXQB_WAAVXMLBuffer@2@@Z 12015069 f   XMLUri.obj
 0001:000140ba       ?createObject@XMLUri@xercesc_3_1@@SAPAVXSerializable@2@PAVMemoryManager@2@@Z 120150ba f   XMLUri.obj
 0001:000140e1       ?getProtoType@XMLUri@xercesc_3_1@@UBEPAVXProtoType@2@XZ 120150e1 f   XMLUri.obj
 0001:000140e7       ?serialize@XMLUri@xercesc_3_1@@UAEXAAVXSerializeEngine@2@@Z 120150e7 f   XMLUri.obj
 0001:0001424d       ??0XMLUri@xercesc_3_1@@QAE@QAVMemoryManager@1@@Z 1201524d f   XMLUri.obj
 0001:00014280       ??_EXMLURL@xercesc_3_1@@UAEPAXI@Z 12015280 f i XMLURL.obj
 0001:0001436c       ?lookupByName@XMLURL@xercesc_3_1@@SA?AW4Protocols@12@QB_W@Z 1201536c f   XMLURL.obj
 0001:000143a4       ??0XMLURL@xercesc_3_1@@QAE@QAVMemoryManager@1@@Z 120153a4 f   XMLURL.obj
 0001:000143dd       ??0XMLURL@xercesc_3_1@@QAE@QB_W0QAVMemoryManager@1@@Z 120153dd f   XMLURL.obj
 0001:00014456       ??0XMLURL@xercesc_3_1@@QAE@QB_WQBDQAVMemoryManager@1@@Z 12015456 f   XMLURL.obj
 0001:000144eb       ??0XMLURL@xercesc_3_1@@QAE@ABV01@QB_W@Z 120154eb f   XMLURL.obj
 0001:00014567       ??0XMLURL@xercesc_3_1@@QAE@ABV01@QBD@Z 12015567 f   XMLURL.obj
 0001:000145fd       ??0XMLURL@xercesc_3_1@@QAE@QB_WQAVMemoryManager@1@@Z 120155fd f   XMLURL.obj
 0001:00014673       ??0XMLURL@xercesc_3_1@@QAE@QBDQAVMemoryManager@1@@Z 12015673 f   XMLURL.obj
 0001:00014705       ??0XMLURL@xercesc_3_1@@QAE@ABV01@@Z 12015705 f   XMLURL.obj
 0001:000147e9       ??1XMLURL@xercesc_3_1@@UAE@XZ 120157e9 f   XMLURL.obj
 0001:00014828       ??4XMLURL@xercesc_3_1@@QAEAAV01@ABV01@@Z 12015828 f   XMLURL.obj
 0001:000148c2       ??8XMLURL@xercesc_3_1@@QBE_NABV01@@Z 120158c2 f   XMLURL.obj
 0001:000148ff       ?getPortNum@XMLURL@xercesc_3_1@@QBEIXZ 120158ff f   XMLURL.obj
 0001:0001491b       ?getProtocolName@XMLURL@xercesc_3_1@@QBEPB_WXZ 1201591b f   XMLURL.obj
 0001:0001495c       ?setURL@XMLURL@xercesc_3_1@@QAEXQB_W@Z 1201595c f   XMLURL.obj
 0001:00014976       ?setURL@XMLURL@xercesc_3_1@@QAEXQB_W0@Z 12015976 f   XMLURL.obj
 0001:00014a17       ?setURL@XMLURL@xercesc_3_1@@QAE_NQB_W0AAV12@@Z 12015a17 f   XMLURL.obj
 0001:00014abc       ?setURL@XMLURL@xercesc_3_1@@QAEXABV12@QB_W@Z 12015abc f   XMLURL.obj
 0001:00014af3       ?isRelative@XMLURL@xercesc_3_1@@QBE_NXZ 12015af3 f   XMLURL.obj
 0001:00014b0b       ?getDeclaredInIntSubset@DTDEntityDecl@xercesc_3_1@@UBE_NXZ 12015b0b f   XMLGrammarPoolImpl.obj
 0001:00014b0b       ?hasInvalidChar@XMLURL@xercesc_3_1@@QBE_NXZ 12015b0b f   XMLURL.obj
 0001:00014b0f       ?makeNewStream@XMLURL@xercesc_3_1@@QBEPAVBinInputStream@2@XZ 12015b0f f   XMLURL.obj
 0001:00014d38       ?makeRelativeTo@XMLURL@xercesc_3_1@@QAEXQB_W@Z 12015d38 f   XMLURL.obj
 0001:00014d8c       ?makeRelativeTo@XMLURL@xercesc_3_1@@QAEXABV12@@Z 12015d8c f   XMLURL.obj
 0001:00014dac       ?buildFullText@XMLURL@xercesc_3_1@@AAEXXZ 12015dac f   XMLURL.obj
 0001:00014f84       ?cleanUp@XMLURL@xercesc_3_1@@AAEXXZ 12015f84 f   XMLURL.obj
 0001:00014ffa       ?conglomerateWithBase@XMLURL@xercesc_3_1@@AAE_NABV12@_N@Z 12015ffa f   XMLURL.obj
 0001:000151dc       ?parse@XMLURL@xercesc_3_1@@AAEXQB_W@Z 120161dc f   XMLURL.obj
 0001:000156e1       ?parse@XMLURL@xercesc_3_1@@SA_NQB_WAAV12@@Z 120166e1 f   XMLURL.obj
 0001:00015af5       ??_EXMLUTF16Transcoder@xercesc_3_1@@UAEPAXI@Z 12016af5 f i XMLUTF16Transcoder.obj
 0001:00015b91       ??0XMLUTF16Transcoder@xercesc_3_1@@QAE@QB_WK_NQAVMemoryManager@1@@Z 12016b91 f   XMLUTF16Transcoder.obj
 0001:00015bbc       ??1XMLUTF16Transcoder@xercesc_3_1@@UAE@XZ 12016bbc f   XMLUTF16Transcoder.obj
 0001:00015bc7       ?transcodeFrom@XMLUTF16Transcoder@xercesc_3_1@@UAEKQBEKQA_WKAAKQAE@Z 12016bc7 f   XMLUTF16Transcoder.obj
 0001:00015c32       ?transcodeTo@XMLUTF16Transcoder@xercesc_3_1@@UAEKQB_WKQAEKAAKW4UnRepOpts@XMLTranscoder@2@@Z 12016c32 f   XMLUTF16Transcoder.obj
 0001:00015c8d       ??_EXMLUTF8Transcoder@xercesc_3_1@@UAEPAXI@Z 12016c8d f i XMLUTF8Transcoder.obj
 0001:00015d2b       ??0XMLUTF8Transcoder@xercesc_3_1@@QAE@QB_WKQAVMemoryManager@1@@Z 12016d2b f   XMLUTF8Transcoder.obj
 0001:00015d50       ??1XMLUTF8Transcoder@xercesc_3_1@@UAE@XZ 12016d50 f   XMLUTF8Transcoder.obj
 0001:00015d5b       ?transcodeFrom@XMLUTF8Transcoder@xercesc_3_1@@UAEKQBEKQA_WKAAKQAE@Z 12016d5b f   XMLUTF8Transcoder.obj
 0001:000161d1       ?transcodeTo@XMLUTF8Transcoder@xercesc_3_1@@UAEKQB_WKQAEKAAKW4UnRepOpts@XMLTranscoder@2@@Z 120171d1 f   XMLUTF8Transcoder.obj
 0001:000163b3       ?canTranscodeTo@XMLUTF8Transcoder@xercesc_3_1@@UAE_NI@Z 120173b3 f   XMLUTF8Transcoder.obj
 0001:000163c6       ??0XMLWin1252Transcoder@xercesc_3_1@@QAE@QB_WKQAVMemoryManager@1@@Z 120173c6 f   XMLWin1252Transcoder.obj
 0001:000163fa       ??_EWin32MsgLoader@xercesc_3_1@@UAEPAXI@Z 120173fa f i Win32MsgLoader.obj
 0001:00016492       _DllMain@12                12017492 f   Win32MsgLoader.obj
 0001:000164aa       ??0Win32MsgLoader@xercesc_3_1@@QAE@QB_W@Z 120174aa f   Win32MsgLoader.obj
 0001:00016570       ??1Win32MsgLoader@xercesc_3_1@@UAE@XZ 12017570 f   Win32MsgLoader.obj
 0001:000165c2       ?loadMsg@Win32MsgLoader@xercesc_3_1@@UAE_NIQA_WK@Z 120175c2 f   Win32MsgLoader.obj
 0001:0001664f       ?loadMsg@Win32MsgLoader@xercesc_3_1@@UAE_NIQA_WKQB_W111QAVMemoryManager@2@@Z 1201764f f   Win32MsgLoader.obj
 0001:00016687       ?loadMsg@Win32MsgLoader@xercesc_3_1@@UAE_NIQA_WKQBD111QAVMemoryManager@2@@Z 12017687 f   Win32MsgLoader.obj
 0001:00016749       ??_EWin32TransService@xercesc_3_1@@UAEPAXI@Z 12017749 f i Win32TransService.obj
 0001:000167df       ??_EWin32Transcoder@xercesc_3_1@@UAEPAXI@Z 120177df f i Win32TransService.obj
 0001:0001687b       ??_EWin32LCPTranscoder@xercesc_3_1@@UAEPAXI@Z 1201787b f i Win32TransService.obj
 0001:00016915       ?isAlias@xercesc_3_1@@YA_NQAUHKEY__@@QADI@Z 12017915 f   Win32TransService.obj
 0001:0001693e       ??0Win32TransService@xercesc_3_1@@QAE@PAVMemoryManager@1@@Z 1201793e f   Win32TransService.obj
 0001:00016e20       ??1Win32TransService@xercesc_3_1@@UAE@XZ 12017e20 f   Win32TransService.obj
 0001:00016e48       ?compareIString@Win32TransService@xercesc_3_1@@UAEHQB_W0@Z 12017e48 f   Win32TransService.obj
 0001:00016e5d       ?compareNIString@Win32TransService@xercesc_3_1@@UAEHQB_W0K@Z 12017e5d f   Win32TransService.obj
 0001:00016e76       ?getId@Win32TransService@xercesc_3_1@@UBEPB_WXZ 12017e76 f   Win32TransService.obj
 0001:00016e7c       ?makeNewLCPTranscoder@Win32TransService@xercesc_3_1@@UAEPAVXMLLCPTranscoder@2@PAVMemoryManager@2@@Z 12017e7c f   Win32TransService.obj
 0001:00016ea0       ?upperCase@Win32TransService@xercesc_3_1@@UAEXQA_W@Z 12017ea0 f   Win32TransService.obj
 0001:00016eb1       ?lowerCase@Win32TransService@xercesc_3_1@@UAEXQA_W@Z 12017eb1 f   Win32TransService.obj
 0001:00016ec2       ?makeNewXMLTranscoder@Win32TransService@xercesc_3_1@@MAEPAVXMLTranscoder@2@QB_WAAW4Codes@XMLTransService@2@KQAVMemoryManager@2@@Z 12017ec2 f   Win32TransService.obj
 0001:00016f69       ?getFlagsValue@xercesc_3_1@@YAKIK@Z 12017f69 f i Win32TransService.obj
 0001:00016fa3       ??0Win32Transcoder@xercesc_3_1@@QAE@QB_WIKQAVMemoryManager@1@@Z 12017fa3 f   Win32TransService.obj
 0001:00016ffd       ??1Win32Transcoder@xercesc_3_1@@UAE@XZ 12017ffd f   Win32TransService.obj
 0001:00017008       ?transcodeFrom@Win32Transcoder@xercesc_3_1@@UAEKQBEKQA_WKAAKQAE@Z 12018008 f   Win32TransService.obj
 0001:0001716a       ?transcodeTo@Win32Transcoder@xercesc_3_1@@UAEKQB_WKQAEKAAKW4UnRepOpts@XMLTranscoder@2@@Z 1201816a f   Win32TransService.obj
 0001:00017277       ?canTranscodeTo@Win32Transcoder@xercesc_3_1@@UAE_NI@Z 12018277 f   Win32TransService.obj
 0001:000172fd       ??0Win32LCPTranscoder@xercesc_3_1@@QAE@XZ 120182fd f   Win32TransService.obj
 0001:00017306       ?calcRequiredSize@Win32LCPTranscoder@xercesc_3_1@@UAEKQBDQAVMemoryManager@2@@Z 12018306 f   Win32TransService.obj
 0001:00017324       ?calcRequiredSize@Win32LCPTranscoder@xercesc_3_1@@UAEKQB_WQAVMemoryManager@2@@Z 12018324 f   Win32TransService.obj
 0001:00017343       ?transcode@Win32LCPTranscoder@xercesc_3_1@@UAEPADQB_WQAVMemoryManager@2@@Z 12018343 f   Win32TransService.obj
 0001:000173a8       ?transcode@Win32LCPTranscoder@xercesc_3_1@@UAEPA_WQBDQAVMemoryManager@2@@Z 120183a8 f   Win32TransService.obj
 0001:0001741f       ?transcode@Win32LCPTranscoder@xercesc_3_1@@UAE_NQBDQA_WKQAVMemoryManager@2@@Z 1201841f f   Win32TransService.obj
 0001:0001745c       ?transcode@Win32LCPTranscoder@xercesc_3_1@@UAE_NQB_WQADKQAVMemoryManager@2@@Z 1201845c f   Win32TransService.obj
 0001:000174a7       ??0?$RefHashTableOf@VCPMapEntry@xercesc_3_1@@UStringHasher@2@@xercesc_3_1@@QAE@KQAVMemoryManager@1@@Z 120184a7 f i Win32TransService.obj
 0001:000174f4       ??1?$RefHashTableOf@VCPMapEntry@xercesc_3_1@@UStringHasher@2@@xercesc_3_1@@QAE@XZ 120184f4 f i Win32TransService.obj
 0001:0001753f       ?put@?$RefHashTableOf@VCPMapEntry@xercesc_3_1@@UStringHasher@2@@xercesc_3_1@@QAEXPAXQAVCPMapEntry@2@@Z 1201853f f i Win32TransService.obj
 0001:000175d8       ?removeAll@?$RefHashTableOf@VCPMapEntry@xercesc_3_1@@UStringHasher@2@@xercesc_3_1@@QAEXXZ 120185d8 f i Win32TransService.obj
 0001:0001765a       ??0CharBuffer@xercesc_3_1@@QAE@KPAVMemoryManager@1@@Z 1201865a f i BinHTTPInputStreamCommon.obj
 0001:00017680       ??1CharBuffer@xercesc_3_1@@QAE@XZ 12018680 f i BinHTTPInputStreamCommon.obj
 0001:000176c0       ?getRawBuffer@CharBuffer@xercesc_3_1@@QAEPADXZ 120186c0 f i BinHTTPInputStreamCommon.obj
 0001:000176c0       ?getRawBuffer@CharBuffer@xercesc_3_1@@QBEPBDXZ 120186c0 f i BinHTTPInputStreamCommon.obj
 0001:000176cc       ?Reset@?$BaseRefVectorEnumerator@VSchemaInfo@xercesc_3_1@@@xercesc_3_1@@UAEXXZ 120186cc f i IGXMLScanner.obj
 0001:000176cc       ?Reset@?$ValueVectorEnumerator@H@xercesc_3_1@@UAEXXZ 120186cc f i DOMDocumentImpl.obj
 0001:000176cc       ?reset@CharBuffer@xercesc_3_1@@QAEXXZ 120186cc f i BinHTTPInputStreamCommon.obj
 0001:000176cc       ?reset@PSVIAttributeList@xercesc_3_1@@QAEXXZ 120186cc f i PSVIAttributeList.obj
 0001:000176d1       ?append@CharBuffer@xercesc_3_1@@QAEXPBD@Z 120186d1 f i BinHTTPInputStreamCommon.obj
 0001:00017719       ?append@CharBuffer@xercesc_3_1@@QAEXPBDK@Z 12018719 f i BinHTTPInputStreamCommon.obj
 0001:00017759       ?appendDecimalNumber@CharBuffer@xercesc_3_1@@QAEXI@Z 12018759 f i BinHTTPInputStreamCommon.obj
 0001:000177a6       ?set@CharBuffer@xercesc_3_1@@QAEXPBD@Z 120187a6 f i BinHTTPInputStreamCommon.obj
 0001:000177b3       ?ensureCapacity@CharBuffer@xercesc_3_1@@AAEXK@Z 120187b3 f i BinHTTPInputStreamCommon.obj
 0001:000177fb       ??_FCharBuffer@xercesc_3_1@@QAEXXZ 120187fb f i BinHTTPInputStreamCommon.obj
 0001:00017820       ??_EBinHTTPInputStreamCommon@xercesc_3_1@@MAEPAXI@Z 12018820 f i BinHTTPInputStreamCommon.obj
 0001:000178b6       ?curPos@BinHTTPInputStreamCommon@xercesc_3_1@@UBE_KXZ 120188b6 f i BinHTTPInputStreamCommon.obj
 0001:000178bc       ??0BinHTTPInputStreamCommon@xercesc_3_1@@IAE@PAVMemoryManager@1@@Z 120188bc f   BinHTTPInputStreamCommon.obj
 0001:0001790a       ??1BinHTTPInputStreamCommon@xercesc_3_1@@MAE@XZ 1201890a f   BinHTTPInputStreamCommon.obj
 0001:0001796e       ?createHTTPRequest@BinHTTPInputStreamCommon@xercesc_3_1@@AAEXABVXMLURL@2@PBVXMLNetHTTPInfo@2@AAVCharBuffer@2@@Z 1201896e f   BinHTTPInputStreamCommon.obj
 0001:00017c3a       ?findHeader@BinHTTPInputStreamCommon@xercesc_3_1@@IAEPA_WPBD@Z 12018c3a f   BinHTTPInputStreamCommon.obj
 0001:00017cd6       ?sendRequest@BinHTTPInputStreamCommon@xercesc_3_1@@IAEHABVXMLURL@2@PBVXMLNetHTTPInfo@2@@Z 12018cd6 f   BinHTTPInputStreamCommon.obj
 0001:00017efd       ?getContentType@BinHTTPInputStreamCommon@xercesc_3_1@@UBEPB_WXZ 12018efd f   BinHTTPInputStreamCommon.obj
 0001:00017f18       ?readBytes@BinHTTPInputStreamCommon@xercesc_3_1@@UAEKQAEK@Z 12018f18 f   BinHTTPInputStreamCommon.obj
 0001:00017f96       ??_EBinHTTPURLInputStream@xercesc_3_1@@UAEPAXI@Z 12018f96 f i BinHTTPURLInputStream.obj
 0001:0001802c       ??1SocketJanitor@xercesc_3_1@@QAE@XZ 1201902c f i BinHTTPURLInputStream.obj
 0001:00018067       ?reset@SocketJanitor@xercesc_3_1@@QAEXPAI@Z 12019067 f i BinHTTPURLInputStream.obj
 0001:00018091       ?Initialize@BinHTTPURLInputStream@xercesc_3_1@@CAXQAVMemoryManager@2@@Z 12019091 f   BinHTTPURLInputStream.obj
 0001:000182b5       ?Cleanup@BinHTTPURLInputStream@xercesc_3_1@@SAXXZ 120192b5 f   BinHTTPURLInputStream.obj
 0001:00018359       ??0BinHTTPURLInputStream@xercesc_3_1@@QAE@ABVXMLURL@1@PBVXMLNetHTTPInfo@1@@Z 12019359 f   BinHTTPURLInputStream.obj
 0001:00018747       ??1BinHTTPURLInputStream@xercesc_3_1@@UAE@XZ 12019747 f   BinHTTPURLInputStream.obj
 0001:000187a0       ?send@BinHTTPURLInputStream@xercesc_3_1@@UAE_NPBDK@Z 120197a0 f   BinHTTPURLInputStream.obj
 0001:000187dd       ?receive@BinHTTPURLInputStream@xercesc_3_1@@UAEHPADK@Z 120197dd f   BinHTTPURLInputStream.obj
 0001:000187fd       ??_EWinSockNetAccessor@xercesc_3_1@@UAEPAXI@Z 120197fd f i WinSockNetAccessor.obj
 0001:000188a6       ??0WinSockNetAccessor@xercesc_3_1@@QAE@XZ 120198a6 f   WinSockNetAccessor.obj
 0001:000188af       ??1WinSockNetAccessor@xercesc_3_1@@UAE@XZ 120198af f   WinSockNetAccessor.obj
 0001:000188f8       ?makeNew@WinSockNetAccessor@xercesc_3_1@@UAEPAVBinInputStream@2@ABVXMLURL@2@PBVXMLNetHTTPInfo@2@@Z 120198f8 f   WinSockNetAccessor.obj
 0001:00018968       ??_EASCIIRangeFactory@xercesc_3_1@@UAEPAXI@Z 12019968 f i ASCIIRangeFactory.obj
 0001:00018968       ??_EBlockRangeFactory@xercesc_3_1@@UAEPAXI@Z 12019968 f i BlockRangeFactory.obj
 0001:00018968       ??_ERangeFactory@xercesc_3_1@@UAEPAXI@Z 12019968 f i RangeFactory.obj
 0001:00018968       ??_EUnicodeRangeFactory@xercesc_3_1@@UAEPAXI@Z 12019968 f i UnicodeRangeFactory.obj
 0001:00018968       ??_EXMLRangeFactory@xercesc_3_1@@UAEPAXI@Z 12019968 f i XMLRangeFactory.obj
 0001:00018a02       ?getChild@Token@xercesc_3_1@@UBEPAV12@K@Z 12019a02 f i ASCIIRangeFactory.obj
 0001:00018a02       ?getURIForPrefix@ValidationContext@xercesc_3_1@@UAEPB_WPA_W@Z 12019a02 f i XMLAttr.obj
 0001:00018a07       ?getChar@Token@xercesc_3_1@@UBEHXZ 12019a07 f i ASCIIRangeFactory.obj
 0001:00018a07       ?getMax@Token@xercesc_3_1@@UBEHXZ 12019a07 f i ASCIIRangeFactory.obj
 0001:00018a07       ?getMin@Token@xercesc_3_1@@UBEHXZ 12019a07 f i ASCIIRangeFactory.obj
 0001:00018a0b       ?setBlockDefault@SchemaInfo@xercesc_3_1@@QAEXH@Z 12019a0b f i IGXMLScanner.obj
 0001:00018a0b       ?setByteStream@DOMLSOutputImpl@xercesc_3_1@@UAEXPAVXMLFormatTarget@2@@Z 12019a0b f i DOMLSOutputImpl.obj
 0001:00018a0b       ?setDefaultType@XMLAttDef@xercesc_3_1@@QAEXW4DefAttTypes@12@@Z 12019a0b f i XMLAttDef.obj
 0001:00018a0b       ?setEntityExpansionLimit@SecurityManager@xercesc_3_1@@UAEXK@Z 12019a0b f i XMLValidator.obj
 0001:00018a0b       ?setId@XMLEntityDecl@xercesc_3_1@@QAEXK@Z 12019a0b f i XMLDTDDescription.obj
 0001:00018a0b       ?setId@XMLNotationDecl@xercesc_3_1@@QAEXK@Z 12019a0b f i XMLDTDDescription.obj
 0001:00018a0b       ?setMatcherStack@FieldActivator@xercesc_3_1@@QAEXQAVXPathMatcherStack@2@@Z 12019a0b f i FieldActivator.obj
 0001:00018a0b       ?setOwnerDocument@DOMParentNode@xercesc_3_1@@QAEXPAVDOMDocument@2@@Z 12019a0b f i DOMParentNode.obj
 0001:00018a0b       ?setTokenType@Token@xercesc_3_1@@QAEXW4tokType@12@@Z 12019a0b f i ASCIIRangeFactory.obj
 0001:00018a0b       ?setType@XMLAttr@xercesc_3_1@@QAEXW4AttTypes@XMLAttDef@2@@Z 12019a0b f i XMLAttr.obj
 0001:00018a18       ?isSet@Token@xercesc_3_1@@AAE_NHI@Z 12019a18 f i ASCIIRangeFactory.obj
 0001:00018a2b       ?addChild@Token@xercesc_3_1@@UAEXQAV12@QAVTokenFactory@2@@Z 12019a2b f i ASCIIRangeFactory.obj
 0001:00018a5c       ?addRange@Token@xercesc_3_1@@UAEXHH@Z 12019a5c f i ASCIIRangeFactory.obj
 0001:00018a8d       ?mergeRanges@Token@xercesc_3_1@@UAEXQBV12@@Z 12019a8d f i ASCIIRangeFactory.obj
 0001:00018abe       ?sortRanges@Token@xercesc_3_1@@UAEXXZ 12019abe f i ASCIIRangeFactory.obj
 0001:00018aef       ?compactRanges@Token@xercesc_3_1@@UAEXXZ 12019aef f i ASCIIRangeFactory.obj
 0001:00018b20       ?subtractRanges@Token@xercesc_3_1@@UAEXQAVRangeToken@2@@Z 12019b20 f i ASCIIRangeFactory.obj
 0001:00018b51       ?intersectRanges@Token@xercesc_3_1@@UAEXQAVRangeToken@2@@Z 12019b51 f i ASCIIRangeFactory.obj
 0001:00018b82       ??_FTokenFactory@xercesc_3_1@@QAEXXZ 12019b82 f i ASCIIRangeFactory.obj
 0001:00018b8e       ?getRange@TokenFactory@xercesc_3_1@@QAEPAVRangeToken@2@QB_W_N@Z 12019b8e f i ASCIIRangeFactory.obj
 0001:00018ba2       ?setAttGroupInfoRegistry@SchemaGrammar@xercesc_3_1@@QAEXQAV?$RefHashTableOf@VXercesAttGroupInfo@xercesc_3_1@@UStringHasher@2@@2@@Z 12019ba2 f i XMLGrammarPoolImpl.obj
 0001:00018ba2       ?setCaseInsensitiveToken@RangeToken@xercesc_3_1@@QAEXPAV12@@Z 12019ba2 f i ASCIIRangeFactory.obj
 0001:00018ba2       ?setElemId@DTDAttDef@xercesc_3_1@@QAEXK@Z 12019ba2 f i XMLElementDecl.obj
 0001:00018ba2       ?setElemId@SchemaAttDef@xercesc_3_1@@QAEXK@Z 12019ba2 f i XMLElementDecl.obj
 0001:00018ba2       ?setEnclosingCTDefinition@XSAttributeDeclaration@xercesc_3_1@@AAEXQAVXSComplexTypeDefinition@2@@Z 12019ba2 f i PSVIAttributeList.obj
 0001:00018ba2       ?setEnclosingCTDefinition@XSElementDeclaration@xercesc_3_1@@AAEXQAVXSComplexTypeDefinition@2@@Z 12019ba2 f i PSVIElement.obj
 0001:00018ba2       ?setErrorHandler@SAX2XMLFilterImpl@xercesc_3_1@@UAEXQAVErrorHandler@2@@Z 12019ba2 f i SAX2XMLFilterImpl.obj
 0001:00018ba2       ?setFinalSet@SchemaElementDecl@xercesc_3_1@@QAEXH@Z 12019ba2 f i XMLElementDecl.obj
 0001:00018ba2       ?setMaxOccurs@ContentSpecNode@xercesc_3_1@@QAEXH@Z 12019ba2 f i XMLGrammarPoolImpl.obj
 0001:00018ba2       ?setSchemaTypeInfo@DOMAttrImpl@xercesc_3_1@@UAEXPBVDOMTypeInfoImpl@2@@Z 12019ba2 f i DOMAttrImpl.obj
 0001:00018baf       ?createMap@RangeToken@xercesc_3_1@@QAEXXZ 12019baf f i ASCIIRangeFactory.obj
 0001:00018bba       ?empty@RangeToken@xercesc_3_1@@QBE_NXZ 12019bba f i ASCIIRangeFactory.obj
 0001:00018bc2       ?getRangeToken@RangeTokenElemMap@xercesc_3_1@@QBEPAVRangeToken@2@_N@Z 12019bc2 f i ASCIIRangeFactory.obj
 0001:00018bd7       ?setRangeToken@RangeTokenElemMap@xercesc_3_1@@QAEXQAVRangeToken@2@_N@Z 12019bd7 f i ASCIIRangeFactory.obj
 0001:00018bef       ??0ASCIIRangeFactory@xercesc_3_1@@QAE@XZ 12019bef f   ASCIIRangeFactory.obj
 0001:00018bfe       ??1ASCIIRangeFactory@xercesc_3_1@@UAE@XZ 12019bfe f   ASCIIRangeFactory.obj
 0001:00018bfe       ??1BlockRangeFactory@xercesc_3_1@@UAE@XZ 12019bfe f   BlockRangeFactory.obj
 0001:00018bfe       ??1RangeFactory@xercesc_3_1@@UAE@XZ 12019bfe f   RangeFactory.obj
 0001:00018bfe       ??1UnicodeRangeFactory@xercesc_3_1@@UAE@XZ 12019bfe f   UnicodeRangeFactory.obj
 0001:00018bfe       ??1XMLRangeFactory@xercesc_3_1@@UAE@XZ 12019bfe f   XMLRangeFactory.obj
 0001:00018c05       ?buildRanges@ASCIIRangeFactory@xercesc_3_1@@MAEXPAVRangeTokenMap@2@@Z 12019c05 f   ASCIIRangeFactory.obj
 0001:00018e83       ?initializeKeywordMap@ASCIIRangeFactory@xercesc_3_1@@UAEXPAVRangeTokenMap@2@@Z 12019e83 f   ASCIIRangeFactory.obj
 0001:00018eeb       ??0BlockRangeFactory@xercesc_3_1@@QAE@XZ 12019eeb f   BlockRangeFactory.obj
 0001:00018efa       ?buildRanges@BlockRangeFactory@xercesc_3_1@@MAEXPAVRangeTokenMap@2@@Z 12019efa f   BlockRangeFactory.obj
 0001:0001903e       ?initializeKeywordMap@BlockRangeFactory@xercesc_3_1@@UAEXPAVRangeTokenMap@2@@Z 1201a03e f   BlockRangeFactory.obj
 0001:00019073       ??0BMPattern@xercesc_3_1@@QAE@QB_W_NQAVMemoryManager@1@@Z 1201a073 f   BMPattern.obj
 0001:000190e0       ??0BMPattern@xercesc_3_1@@QAE@QB_WH_NQAVMemoryManager@1@@Z 1201a0e0 f   BMPattern.obj
 0001:0001914c       ??1BMPattern@xercesc_3_1@@QAE@XZ 1201a14c f   BMPattern.obj
 0001:00019185       ?matches@BMPattern@xercesc_3_1@@QBEHQB_WKK@Z 1201a185 f   BMPattern.obj
 0001:00019267       ?initialize@BMPattern@xercesc_3_1@@AAEXXZ 1201a267 f   BMPattern.obj
 0001:00019371       ?cleanUp@BMPattern@xercesc_3_1@@AAEXXZ 1201a371 f   BMPattern.obj
 0001:00019397       ??_ECharToken@xercesc_3_1@@UAEPAXI@Z 1201a397 f i CharToken.obj
 0001:00019430       ?match@CharToken@xercesc_3_1@@QAE_NH@Z 1201a430 f i CharToken.obj
 0001:00019440       ??0CharToken@xercesc_3_1@@QAE@W4tokType@Token@1@HQAVMemoryManager@1@@Z 1201a440 f   CharToken.obj
 0001:00019461       ??1CharToken@xercesc_3_1@@UAE@XZ 1201a461 f   CharToken.obj
 0001:00019461       ??1ClosureToken@xercesc_3_1@@UAE@XZ 1201a461 f   ClosureToken.obj
 0001:00019461       ??1ConcatToken@xercesc_3_1@@UAE@XZ 1201a461 f   ConcatToken.obj
 0001:00019461       ??1ParenToken@xercesc_3_1@@UAE@XZ 1201a461 f   ParenToken.obj
 0001:00019461       ??1Token@xercesc_3_1@@UAE@XZ 1201a461 f   Token.obj
 0001:00019468       ??_EClosureToken@xercesc_3_1@@UAEPAXI@Z 1201a468 f i ClosureToken.obj
 0001:000194ff       ?getGrammarType@SchemaGrammar@xercesc_3_1@@UBE?AW4GrammarType@Grammar@2@XZ 1201a4ff f i XMLGrammarPoolImpl.obj
 0001:000194ff       ?getGrammarType@XMLSchemaDescription@xercesc_3_1@@UBE?AW4GrammarType@Grammar@2@XZ 1201a4ff f i XMLGrammarPoolImpl.obj
 0001:000194ff       ?getNodeType@DOMElementImpl@xercesc_3_1@@UBE?AW4NodeType@DOMNode@2@XZ 1201a4ff f i DOMElementImpl.obj
 0001:000194ff       ?getObjectType@DTDElementDecl@xercesc_3_1@@UBE?AW4objectType@XMLElementDecl@2@XZ 1201a4ff f i DTDElementDecl.obj
 0001:000194ff       ?getType@IC_Key@xercesc_3_1@@UBEFXZ 1201a4ff f i TraverseSchema.obj
 0001:000194ff       ?size@ClosureToken@xercesc_3_1@@UBEKXZ 1201a4ff f i ClosureToken.obj
 0001:000194ff       ?size@ParenToken@xercesc_3_1@@UBEKXZ 1201a4ff f i ParenToken.obj
 0001:000194ff       __get_startup_argv_mode    1201a4ff f i MSVCRT:argv_mode.obj
 0001:00019503       ?getChild@ClosureToken@xercesc_3_1@@UBEPAVToken@2@K@Z 1201a503 f i ClosureToken.obj
 0001:00019509       ?setCreateReason@XMLAttDef@xercesc_3_1@@QAEXW4CreateReasons@12@@Z 1201a509 f i XMLAttDef.obj
 0001:00019509       ?setCreateReason@XMLElementDecl@xercesc_3_1@@QAEXW4CreateReasons@12@@Z 1201a509 f i XMLDTDDescription.obj
 0001:00019509       ?setDerivedBy@ComplexTypeInfo@xercesc_3_1@@QAEXH@Z 1201a509 f i XMLElementDecl.obj
 0001:00019509       ?setDocTypeHandler@DTDScanner@xercesc_3_1@@QAEXQAVDocTypeHandler@2@@Z 1201a509 f i DGXMLScanner.obj
 0001:00019509       ?setEntityHandler@ReaderMgr@xercesc_3_1@@QAEXQAVXMLEntityHandler@2@@Z 1201a509 f i XMLValidator.obj
 0001:00019509       ?setMessage@DOMErrorImpl@xercesc_3_1@@QAEXQB_W@Z 1201a509 f i DOMLSParserImpl.obj
 0001:00019509       ?setMin@ClosureToken@xercesc_3_1@@UAEXH@Z 1201a509 f i ClosureToken.obj
 0001:00019509       ?setNextOp@Op@xercesc_3_1@@QAEXQBV12@@Z 1201a509 f i Op.obj
 0001:00019509       ?setOptions@RegxParser@xercesc_3_1@@QAEXH@Z 1201a509 f i ParserForXMLSchema.obj
 0001:00019509       ?setSchemaType@DOMConfigurationImpl@xercesc_3_1@@QAEXPB_W@Z 1201a509 f i DOMConfigurationImpl.obj
 0001:00019509       ?setUnRepFlags@XMLFormatter@xercesc_3_1@@QAEXW4UnRepFlags@12@@Z 1201a509 f i LocalFileFormatTarget.obj
 0001:00019516       ??0ClosureToken@xercesc_3_1@@QAE@W4tokType@Token@1@QAV31@QAVMemoryManager@1@@Z 1201a516 f   ClosureToken.obj
 0001:0001953f       ??_EConcatToken@xercesc_3_1@@UAEPAXI@Z 1201a53f f i ConcatToken.obj
 0001:0001953f       ??_EParenToken@xercesc_3_1@@UAEPAXI@Z 1201a53f f i ParenToken.obj
 0001:000195d6       ?getCurrentGrammarType@XMLScanner@xercesc_3_1@@UBE?AW4GrammarType@Grammar@2@XZ 1201a5d6 f i XMLValidator.obj
 0001:000195d6       ?getNodeType@DOMAttrImpl@xercesc_3_1@@UBE?AW4NodeType@DOMNode@2@XZ 1201a5d6 f i DOMAttrImpl.obj
 0001:000195d6       ?getType@IC_KeyRef@xercesc_3_1@@UBEFXZ 1201a5d6 f i XSIDCDefinition.obj
 0001:000195d6       ?size@ConcatToken@xercesc_3_1@@UBEKXZ 1201a5d6 f i ConcatToken.obj
 0001:000195da       ?getChild@ConcatToken@xercesc_3_1@@UBEPAVToken@2@K@Z 1201a5da f i ConcatToken.obj
 0001:000195ef       ??0ConcatToken@xercesc_3_1@@QAE@QAVToken@1@0QAVMemoryManager@1@@Z 1201a5ef f   ConcatToken.obj
 0001:00019617       ??_FMatch@xercesc_3_1@@QAEXXZ 1201a617 f i Match.obj
 0001:00019623       ??_EMatch@xercesc_3_1@@UAEPAXI@Z 1201a623 f i Match.obj
 0001:000196c5       ?getNoGroups@Match@xercesc_3_1@@QBEHXZ 1201a6c5 f i Match.obj
 0001:000196fc       ?getStartPos@Match@xercesc_3_1@@QBEHH@Z 1201a6fc f i Match.obj
 0001:0001976d       ?getEndPos@Match@xercesc_3_1@@QBEHH@Z 1201a76d f i Match.obj
 0001:000197e4       ?setStartPos@Match@xercesc_3_1@@QAEXHH@Z 1201a7e4 f i Match.obj
 0001:00019860       ?setEndPos@Match@xercesc_3_1@@QAEXHH@Z 1201a860 f i Match.obj
 0001:000198dc       ??0Match@xercesc_3_1@@QAE@QAVMemoryManager@1@@Z 1201a8dc f   Match.obj
 0001:000198ff       ??0Match@xercesc_3_1@@QAE@ABV01@@Z 1201a8ff f   Match.obj
 0001:0001992b       ??4Match@xercesc_3_1@@QAEAAV01@ABV01@@Z 1201a92b f   Match.obj
 0001:00019940       ??1Match@xercesc_3_1@@UAE@XZ 1201a940 f   Match.obj
 0001:0001997f       ?setNoGroups@Match@xercesc_3_1@@QAEXH@Z 1201a97f f   Match.obj
 0001:000199ea       ?initialize@Match@xercesc_3_1@@AAEXABV12@@Z 1201a9ea f   Match.obj
 0001:00019a4c       ?cleanUp@Match@xercesc_3_1@@AAEXXZ 1201aa4c f   Match.obj
 0001:00019a6f       ??1CharOp@xercesc_3_1@@UAE@XZ 1201aa6f f i Op.obj
 0001:00019a6f       ??1ChildOp@xercesc_3_1@@UAE@XZ 1201aa6f f i Op.obj
 0001:00019a6f       ??1ModifierOp@xercesc_3_1@@UAE@XZ 1201aa6f f i Op.obj
 0001:00019a6f       ??1Op@xercesc_3_1@@UAE@XZ  1201aa6f f i Op.obj
 0001:00019a6f       ??1RangeOp@xercesc_3_1@@UAE@XZ 1201aa6f f i Op.obj
 0001:00019a76       ??_EOp@xercesc_3_1@@UAEPAXI@Z 1201aa76 f i Op.obj
 0001:00019b0f       ??_ECharOp@xercesc_3_1@@UAEPAXI@Z 1201ab0f f i Op.obj
 0001:00019b0f       ??_EChildOp@xercesc_3_1@@UAEPAXI@Z 1201ab0f f i Op.obj
 0001:00019b0f       ??_ERangeOp@xercesc_3_1@@UAEPAXI@Z 1201ab0f f i Op.obj
 0001:00019ba6       ??1UnionOp@xercesc_3_1@@UAE@XZ 1201aba6 f i Op.obj
 0001:00019bc4       ??_EUnionOp@xercesc_3_1@@UAEPAXI@Z 1201abc4 f i Op.obj
 0001:00019c5a       ??_EModifierOp@xercesc_3_1@@UAEPAXI@Z 1201ac5a f i Op.obj
 0001:00019cf1       ??1StringOp@xercesc_3_1@@UAE@XZ 1201acf1 f i Op.obj
 0001:00019d40       ??_EStringOp@xercesc_3_1@@UAEPAXI@Z 1201ad40 f i Op.obj
 0001:00019dd6       ?setByteStream@DOMLSInputImpl@xercesc_3_1@@UAEXPAVInputSource@2@@Z 1201add6 f i DOMLSInputImpl.obj
 0001:00019dd6       ?setContextType@XMLSchemaDescriptionImpl@xercesc_3_1@@UAEXW4ContextType@XMLSchemaDescription@2@@Z 1201add6 f i XMLSchemaDescriptionImpl.obj
 0001:00019dd6       ?setErrorHandler@DOMConfigurationImpl@xercesc_3_1@@QAEXPAVDOMErrorHandler@2@@Z 1201add6 f i DOMConfigurationImpl.obj
 0001:00019dd6       ?setErrorReporter@XMLValidator@xercesc_3_1@@QAEXQAVXMLErrorReporter@2@@Z 1201add6 f i XMLValidator.obj
 0001:00019dd6       ?setErrorReporter@XSDErrorReporter@xercesc_3_1@@QAEXQAVXMLErrorReporter@2@@Z 1201add6 f i IGXMLScanner.obj
 0001:00019dd6       ?setFinalDefault@SchemaInfo@xercesc_3_1@@QAEXH@Z 1201add6 f i IGXMLScanner.obj
 0001:00019dd6       ?setLowWaterMark@XMLScanner@xercesc_3_1@@QAEXK@Z 1201add6 f i XMLValidator.obj
 0001:00019dd6       ?setNameSpaceId@XMLNotationDecl@xercesc_3_1@@QAEXI@Z 1201add6 f i XMLDTDDescription.obj
 0001:00019dd6       ?setOpType@Op@xercesc_3_1@@QAEXW4opType@12@@Z 1201add6 f i Op.obj
 0001:00019dd6       ?setScope@XercesGroupInfo@xercesc_3_1@@QAEXI@Z 1201add6 f i XMLGrammarPoolImpl.obj
 0001:00019dd6       ?setSeverity@DOMErrorImpl@xercesc_3_1@@QAEXW4ErrorSeverity@DOMError@2@@Z 1201add6 f i DOMLSParserImpl.obj
 0001:00019dd6       ?setType@XMLAttDef@xercesc_3_1@@QAEXW4AttTypes@12@@Z 1201add6 f i XMLAttDef.obj
 0001:00019de3       ??0Op@xercesc_3_1@@IAE@W4opType@01@QAVMemoryManager@1@@Z 1201ade3 f   Op.obj
 0001:00019e02       ?getSize@Op@xercesc_3_1@@UBEKXZ 1201ae02 f   Op.obj
 0001:00019e30       ?getData@Op@xercesc_3_1@@UBEHXZ 1201ae30 f   Op.obj
 0001:00019e5e       ?getData2@Op@xercesc_3_1@@UBEHXZ 1201ae5e f   Op.obj
 0001:00019e8c       ?elementAt@Op@xercesc_3_1@@UBEPBV12@K@Z 1201ae8c f   Op.obj
 0001:00019eba       ?getChild@Op@xercesc_3_1@@UBEPBV12@XZ 1201aeba f   Op.obj
 0001:00019ee8       ?getLiteral@Op@xercesc_3_1@@UBEPB_WXZ 1201aee8 f   Op.obj
 0001:00019f16       ?getToken@Op@xercesc_3_1@@UBEPBVToken@2@XZ 1201af16 f   Op.obj
 0001:00019f44       ??0CharOp@xercesc_3_1@@QAE@W4opType@Op@1@HQAVMemoryManager@1@@Z 1201af44 f   Op.obj
 0001:00019f69       ??0UnionOp@xercesc_3_1@@QAE@W4opType@Op@1@KQAVMemoryManager@1@@Z 1201af69 f   Op.obj
 0001:00019fc4       ?getSize@UnionOp@xercesc_3_1@@UBEKXZ 1201afc4 f   Op.obj
 0001:00019fcb       ?elementAt@UnionOp@xercesc_3_1@@UBEPBVOp@2@K@Z 1201afcb f   Op.obj
 0001:0001a00e       ?addElement@UnionOp@xercesc_3_1@@QAEXQAVOp@2@@Z 1201b00e f   Op.obj
 0001:0001a01a       ??0ChildOp@xercesc_3_1@@QAE@W4opType@Op@1@QAVMemoryManager@1@@Z 1201b01a f   Op.obj
 0001:0001a03d       ??0ModifierOp@xercesc_3_1@@QAE@W4opType@Op@1@HHQAVMemoryManager@1@@Z 1201b03d f   Op.obj
 0001:0001a067       ??0RangeOp@xercesc_3_1@@QAE@W4opType@Op@1@QBVToken@1@QAVMemoryManager@1@@Z 1201b067 f   Op.obj
 0001:0001a08c       ??0StringOp@xercesc_3_1@@QAE@W4opType@Op@1@QB_WQAVMemoryManager@1@@Z 1201b08c f   Op.obj
 0001:0001a0cf       ??0?$RefVectorOf@VOp@xercesc_3_1@@@xercesc_3_1@@QAE@K_NQAVMemoryManager@1@@Z 1201b0cf f i Op.obj
 0001:0001a169       ??1?$RefVectorOf@VOp@xercesc_3_1@@@xercesc_3_1@@UAE@XZ 1201b169 f i Op.obj
 0001:0001a1dd       ??_E?$RefVectorOf@VOp@xercesc_3_1@@@xercesc_3_1@@UAEPAXI@Z 1201b1dd f i * CIL library *:* CIL module *
 0001:0001a1dd       ??_G?$RefVectorOf@VOp@xercesc_3_1@@@xercesc_3_1@@UAEPAXI@Z 1201b1dd f i Op.obj
 0001:0001a20d       ??_E?$BaseRefVectorOf@VOp@xercesc_3_1@@@xercesc_3_1@@UAEPAXI@Z 1201b20d f i * CIL library *:* CIL module *
 0001:0001a20d       ??_G?$BaseRefVectorOf@VOp@xercesc_3_1@@@xercesc_3_1@@UAEPAXI@Z 1201b20d f i Op.obj
 0001:0001a23e       ??_FOpFactory@xercesc_3_1@@QAEXXZ 1201b23e f i OpFactory.obj
 0001:0001a24a       ?reset@OpFactory@xercesc_3_1@@QAEXXZ 1201b24a f i OpFactory.obj
 0001:0001a251       ??0OpFactory@xercesc_3_1@@QAE@QAVMemoryManager@1@@Z 1201b251 f   OpFactory.obj
 0001:0001a29c       ?createDotOp@OpFactory@xercesc_3_1@@QAEPAVOp@2@XZ 1201b29c f   OpFactory.obj
 0001:0001a2e2       ?createCharOp@OpFactory@xercesc_3_1@@QAEPAVCharOp@2@H@Z 1201b2e2 f   OpFactory.obj
 0001:0001a333       ?createAnchorOp@OpFactory@xercesc_3_1@@QAEPAVCharOp@2@H@Z 1201b333 f   OpFactory.obj
 0001:0001a384       ?createCaptureOp@OpFactory@xercesc_3_1@@QAEPAVCharOp@2@HQBVOp@2@@Z 1201b384 f   OpFactory.obj
 0001:0001a3db       ?createUnionOp@OpFactory@xercesc_3_1@@QAEPAVUnionOp@2@K@Z 1201b3db f   OpFactory.obj
 0001:0001a42b       ?createClosureOp@OpFactory@xercesc_3_1@@QAEPAVChildOp@2@H@Z 1201b42b f   OpFactory.obj
 0001:0001a470       ?createNonGreedyClosureOp@OpFactory@xercesc_3_1@@QAEPAVChildOp@2@XZ 1201b470 f   OpFactory.obj
 0001:0001a4bd       ?createQuestionOp@OpFactory@xercesc_3_1@@QAEPAVChildOp@2@_N@Z 1201b4bd f   OpFactory.obj
 0001:0001a503       ?createRangeOp@OpFactory@xercesc_3_1@@QAEPAVRangeOp@2@QBVToken@2@@Z 1201b503 f   OpFactory.obj
 0001:0001a554       ?createBackReferenceOp@OpFactory@xercesc_3_1@@QAEPAVCharOp@2@H@Z 1201b554 f   OpFactory.obj
 0001:0001a5a5       ?createStringOp@OpFactory@xercesc_3_1@@QAEPAVStringOp@2@QB_W@Z 1201b5a5 f   OpFactory.obj
 0001:0001a5f5       ?getChild@ParenToken@xercesc_3_1@@UBEPAVToken@2@K@Z 1201b5f5 f i ParenToken.obj
 0001:0001a5fb       ??0ParenToken@xercesc_3_1@@QAE@W4tokType@Token@1@QAV31@HQAVMemoryManager@1@@Z 1201b5fb f   ParenToken.obj
 0001:0001a622       ??_FRegxParser@xercesc_3_1@@QAEXXZ 1201b622 f i ParserForXMLSchema.obj
 0001:0001a62e       ?getIgnoreSerializedAnnotations@XMLGrammarPool@xercesc_3_1@@QBE_NXZ 1201b62e f i XMLGrammarPoolImpl.obj
 0001:0001a62e       ?getPreprocessed@ComplexTypeInfo@xercesc_3_1@@QBE_NXZ 1201b62e f i XMLElementDecl.obj
 0001:0001a62e       ?hasBackReferences@RegxParser@xercesc_3_1@@QBE_NXZ 1201b62e f i ParserForXMLSchema.obj
 0001:0001a632       ?getAnnotations@XSComplexTypeDefinition@xercesc_3_1@@QAEPAV?$RefVectorOf@VXSAnnotation@xercesc_3_1@@@2@XZ 1201b632 f i XSComplexTypeDefinition.obj
 0001:0001a632       ?getDatatypeValidator@SchemaAttDef@xercesc_3_1@@QBEPAVDatatypeValidator@2@XZ 1201b632 f i XMLElementDecl.obj
 0001:0001a632       ?getDefaultValue@SchemaElementDecl@xercesc_3_1@@QBEPA_WXZ 1201b632 f i XMLElementDecl.obj
 0001:0001a632       ?getEntityRef@DOMEntityImpl@xercesc_3_1@@UBEPAVDOMEntityReference@2@XZ 1201b632 f i DOMEntityImpl.obj
 0001:0001a632       ?getFacets@XSSimpleTypeDefinition@xercesc_3_1@@QAEPAV?$RefVectorOf@VXSFacet@xercesc_3_1@@@2@XZ 1201b632 f i XMLAttr.obj
 0001:0001a632       ?getIdentityConstraints@XSElementDeclaration@xercesc_3_1@@QAEPAV?$XSNamedMap@VXSIDCDefinition@xercesc_3_1@@@2@XZ 1201b632 f i PSVIElement.obj
 0001:0001a632       ?getInputEncoding@DOMDocumentImpl@xercesc_3_1@@UBEPB_WXZ 1201b632 f i DOMDocumentImpl.obj
 0001:0001a632       ?getNodeIDMap@DOMDocumentImpl@xercesc_3_1@@QAEPAVDOMNodeIDMap@2@XZ 1201b632 f i AbstractDOMParser.obj
 0001:0001a632       ?getNodeName@DOMElementImpl@xercesc_3_1@@UBEPB_WXZ 1201b632 f i DOMElementImpl.obj
 0001:0001a632       ?getNotationDeclaration@PSVIElement@xercesc_3_1@@QAEPAVXSNotationDeclaration@2@XZ 1201b632 f i PSVIElement.obj
 0001:0001a632       ?getNotations@DOMDocumentTypeImpl@xercesc_3_1@@UBEPAVDOMNamedNodeMap@2@XZ 1201b632 f i DOMDocumentTypeImpl.obj
 0001:0001a632       ?getPrefix@DOMAttrNSImpl@xercesc_3_1@@UBEPB_WXZ 1201b632 f i DOMAttrNSImpl.obj
 0001:0001a632       ?getRecursingAnonTypes@SchemaInfo@xercesc_3_1@@QBEPAV?$ValueVectorOf@PBVDOMElement@xercesc_3_1@@@2@XZ 1201b632 f i IGXMLScanner.obj
 0001:0001a632       ?getTagName@DOMElementImpl@xercesc_3_1@@UBEPB_WXZ 1201b632 f i DOMElementImpl.obj
 0001:0001a632       ?getTokenFactory@RegxParser@xercesc_3_1@@QBEPAVTokenFactory@2@XZ 1201b632 f i ParserForXMLSchema.obj
 0001:0001a632       ?getTypeLocalName@ComplexTypeInfo@xercesc_3_1@@QBEPB_WXZ 1201b632 f i XMLElementDecl.obj
 0001:0001a632       ?getTypeName@DatatypeValidator@xercesc_3_1@@QBEPB_WXZ 1201b632 f i XMLAttr.obj
 0001:0001a636       ?setAttributeDeclRegistry@SchemaGrammar@xercesc_3_1@@QAEXQAV?$RefHashTableOf@VXMLAttDef@xercesc_3_1@@UStringHasher@2@@2@@Z 1201b636 f i XMLGrammarPoolImpl.obj
 0001:0001a636       ?setContentHandler@SAX2XMLFilterImpl@xercesc_3_1@@UAEXQAVContentHandler@2@@Z 1201b636 f i SAX2XMLFilterImpl.obj
 0001:0001a636       ?setElemStack@ValidationContextImpl@xercesc_3_1@@UAEXPAVElemStack@2@@Z 1201b636 f i ValidationContextImpl.obj
 0001:0001a636       ?setGrammar@SchemaValidator@xercesc_3_1@@UAEXPAVGrammar@2@@Z 1201b636 f i IGXMLScanner.obj
 0001:0001a636       ?setModelType@DTDElementDecl@xercesc_3_1@@QAEXW4ModelTypes@12@@Z 1201b636 f i XMLElementDecl.obj
 0001:0001a636       ?setModelType@SchemaElementDecl@xercesc_3_1@@QAEXW4ModelTypes@12@@Z 1201b636 f i XMLElementDecl.obj
 0001:0001a636       ?setNamespaceURI@IdentityConstraint@xercesc_3_1@@QAEXH@Z 1201b636 f i XMLElementDecl.obj
 0001:0001a636       ?setParseContext@RegxParser@xercesc_3_1@@QAEXW4parserStateContext@12@@Z 1201b636 f i ParserForXMLSchema.obj
 0001:0001a636       ?setRelatedData@DOMErrorImpl@xercesc_3_1@@QAEXPAX@Z 1201b636 f i DOMLSParserImpl.obj
 0001:0001a636       ?setScopeDefined@ComplexTypeInfo@xercesc_3_1@@QAEXI@Z 1201b636 f i XMLElementDecl.obj
 0001:0001a636       ?setType@ContentSpecNode@xercesc_3_1@@QAEXW4NodeTypes@12@@Z 1201b636 f i XMLGrammarPoolImpl.obj
 0001:0001a636       ?setType@DatatypeValidator@xercesc_3_1@@IAEXW4ValidatorType@12@@Z 1201b636 f i XMLAttr.obj
 0001:0001a636       ?setValidity@PSVIItem@xercesc_3_1@@QAEXW4VALIDITY_STATE@12@@Z 1201b636 f i PSVIItem.obj
 0001:0001a636       ?updateValidity@PSVIAttribute@xercesc_3_1@@QAEXW4VALIDITY_STATE@PSVIItem@2@@Z 1201b636 f i PSVIAttribute.obj
 0001:0001a643       ?setDatatypeValidator@SchemaAttDef@xercesc_3_1@@QAEXPAVDatatypeValidator@2@@Z 1201b643 f i XMLElementDecl.obj
 0001:0001a643       ?setEntityRef@DOMEntityImpl@xercesc_3_1@@UAEXPAVDOMEntityReference@2@@Z 1201b643 f i DOMEntityImpl.obj
 0001:0001a643       ?setTokenFactory@RegxParser@xercesc_3_1@@QAEXQAVTokenFactory@2@@Z 1201b643 f i ParserForXMLSchema.obj
 0001:0001a650       ?isSet@RegxParser@xercesc_3_1@@IAE_NH@Z 1201b650 f i ParserForXMLSchema.obj
 0001:0001a663       ?hexChar@RegxParser@xercesc_3_1@@AAEHH@Z 1201b663 f i ParserForXMLSchema.obj
 0001:0001a69a       ??_FParserForXMLSchema@xercesc_3_1@@QAEXXZ 1201b69a f i ParserForXMLSchema.obj
 0001:0001a6a6       ??_EParserForXMLSchema@xercesc_3_1@@UAEPAXI@Z 1201b6a6 f i ParserForXMLSchema.obj
 0001:0001a742       ?setString@StringToken@xercesc_3_1@@QAEXQB_W@Z 1201b742 f i ParserForXMLSchema.obj
 0001:0001a76c       ?size@UnionToken@xercesc_3_1@@UBEKXZ 1201b76c f i ParserForXMLSchema.obj
 0001:0001a778       ?getChild@UnionToken@xercesc_3_1@@UBEPAVToken@2@K@Z 1201b778 f i ParserForXMLSchema.obj
 0001:0001a784       ??0ParseException@xercesc_3_1@@QAE@QBD_KW4Codes@XMLExcepts@1@PAVMemoryManager@1@@Z 1201b784 f i ParserForXMLSchema.obj
 0001:0001a7c4       ??0ParseException@xercesc_3_1@@QAE@ABV01@@Z 1201b7c4 f i ParserForXMLSchema.obj
 0001:0001a7e3       ??0ParseException@xercesc_3_1@@QAE@QBD_KW4Codes@XMLExcepts@1@QB_W333PAVMemoryManager@1@@Z 1201b7e3 f i ParserForXMLSchema.obj
 0001:0001a82f       ??0ParseException@xercesc_3_1@@QAE@QBD_KW4Codes@XMLExcepts@1@0000PAVMemoryManager@1@@Z 1201b82f f i ParserForXMLSchema.obj
 0001:0001a87b       ??1ParseException@xercesc_3_1@@UAE@XZ 1201b87b f i ParserForXMLSchema.obj
 0001:0001a886       ?duplicate@ParseException@xercesc_3_1@@UBEPAVXMLException@2@XZ 1201b886 f i ParserForXMLSchema.obj
 0001:0001a8ca       ?getType@ParseException@xercesc_3_1@@UBEPB_WXZ 1201b8ca f i ParserForXMLSchema.obj
 0001:0001a8d0       ??_EParseException@xercesc_3_1@@UAEPAXI@Z 1201b8d0 f i ParserForXMLSchema.obj
 0001:0001a96e       ??0ParserForXMLSchema@xercesc_3_1@@QAE@QAVMemoryManager@1@@Z 1201b96e f   ParserForXMLSchema.obj
 0001:0001a989       ??1ParserForXMLSchema@xercesc_3_1@@UAE@XZ 1201b989 f   ParserForXMLSchema.obj
 0001:0001a994       ?processCaret@ParserForXMLSchema@xercesc_3_1@@MAEPAVToken@2@XZ 1201b994 f   ParserForXMLSchema.obj
 0001:0001a9aa       ?processDollar@ParserForXMLSchema@xercesc_3_1@@MAEPAVToken@2@XZ 1201b9aa f   ParserForXMLSchema.obj
 0001:0001a9c0       ?processPlus@ParserForXMLSchema@xercesc_3_1@@MAEPAVToken@2@QAV32@@Z 1201b9c0 f   ParserForXMLSchema.obj
 0001:0001a9ea       ?processStar@ParserForXMLSchema@xercesc_3_1@@MAEPAVToken@2@QAV32@@Z 1201b9ea f   ParserForXMLSchema.obj
 0001:0001aa07       ?processQuestion@ParserForXMLSchema@xercesc_3_1@@MAEPAVToken@2@QAV32@@Z 1201ba07 f   ParserForXMLSchema.obj
 0001:0001aa48       ?processParen@ParserForXMLSchema@xercesc_3_1@@MAEPAVToken@2@XZ 1201ba48 f   ParserForXMLSchema.obj
 0001:0001aab3       ?processBackReference@ParserForXMLSchema@xercesc_3_1@@MAEPAVToken@2@XZ 1201bab3 f   ParserForXMLSchema.obj
 0001:0001aae4       ?checkQuestion@ParserForXMLSchema@xercesc_3_1@@MAE_NK@Z 1201bae4 f   ParserForXMLSchema.obj
 0001:0001aae4       ?checkTextIsValidForInclude@XIncludeUtils@xercesc_3_1@@AAE_NPA_W@Z 1201bae4 f   XIncludeUtils.obj
 0001:0001aae4       ?removeAdvDocHandler@SAX2XMLFilterImpl@xercesc_3_1@@UAE_NQAVXMLDocumentHandler@2@@Z 1201bae4 f   SAX2XMLFilterImpl.obj
 0001:0001aae9       ?decodeEscaped@ParserForXMLSchema@xercesc_3_1@@MAEHXZ 1201bae9 f   ParserForXMLSchema.obj
 0001:0001abf2       ?elementAt@?$BaseRefVectorOf@V?$RefHashTableOf@_WUStringHasher@xercesc_3_1@@@xercesc_3_1@@@xercesc_3_1@@QAEPAV?$RefHashTableOf@_WUStringHasher@xercesc_3_1@@@2@K@Z 1201bbf2 f i DOMLSSerializerImpl.obj
 0001:0001abf2       ?elementAt@?$BaseRefVectorOf@V?$ValueStackOf@K@xercesc_3_1@@@xercesc_3_1@@QAEPAV?$ValueStackOf@K@2@K@Z 1201bbf2 f i XPathMatcher.obj
 0001:0001abf2       ?elementAt@?$BaseRefVectorOf@VKVStringPair@xercesc_3_1@@@xercesc_3_1@@QAEPAVKVStringPair@2@K@Z 1201bbf2 f i IGXMLScanner.obj
 0001:0001abf2       ?elementAt@?$BaseRefVectorOf@VMatch@xercesc_3_1@@@xercesc_3_1@@QAEPAVMatch@2@K@Z 1201bbf2 f i RegularExpression.obj
 0001:0001abf2       ?elementAt@?$BaseRefVectorOf@VPSVIAttributeStorage@xercesc_3_1@@@xercesc_3_1@@QAEPAVPSVIAttributeStorage@2@K@Z 1201bbf2 f i PSVIAttributeList.obj
 0001:0001abf2       ?elementAt@?$BaseRefVectorOf@VToken@xercesc_3_1@@@xercesc_3_1@@QAEPAVToken@2@K@Z 1201bbf2 f i ParserForXMLSchema.obj
 0001:0001abf2       ?elementAt@?$BaseRefVectorOf@VXMLElementDecl@xercesc_3_1@@@xercesc_3_1@@QAEPAVXMLElementDecl@2@K@Z 1201bbf2 f i WFXMLScanner.obj
 0001:0001abf2       ?elementAt@?$BaseRefVectorOf@VXSObject@xercesc_3_1@@@xercesc_3_1@@QAEPAVXSObject@2@K@Z 1201bbf2 f i XSModel.obj
 0001:0001ac32       ??0RangeFactory@xercesc_3_1@@IAE@XZ 1201bc32 f   RangeFactory.obj
 0001:0001ac41       ??_ERangeToken@xercesc_3_1@@UAEPAXI@Z 1201bc41 f i RangeToken.obj
 0001:0001acd7       ??0RangeToken@xercesc_3_1@@QAE@W4tokType@Token@1@QAVMemoryManager@1@@Z 1201bcd7 f   RangeToken.obj
 0001:0001ad11       ??1RangeToken@xercesc_3_1@@UAE@XZ 1201bd11 f   RangeToken.obj
 0001:0001ad7b       ?getCaseInsensitiveToken@RangeToken@xercesc_3_1@@QAEPAV12@QAVTokenFactory@2@@Z 1201bd7b f   RangeToken.obj
 0001:0001ae6d       ?setRangeValues@RangeToken@xercesc_3_1@@QAEXQAHI@Z 1201be6d f   RangeToken.obj
 0001:0001aeb3       ?addRange@RangeToken@xercesc_3_1@@UAEXHH@Z 1201beb3 f   RangeToken.obj
 0001:0001afea       ?sortRanges@RangeToken@xercesc_3_1@@UAEXXZ 1201bfea f   RangeToken.obj
 0001:0001b05e       ?compactRanges@RangeToken@xercesc_3_1@@UAEXXZ 1201c05e f   RangeToken.obj
 0001:0001b107       ?mergeRanges@RangeToken@xercesc_3_1@@UAEXQBVToken@2@@Z 1201c107 f   RangeToken.obj
 0001:0001b2bd       ?subtractRanges@RangeToken@xercesc_3_1@@UAEXQAV12@@Z 1201c2bd f   RangeToken.obj
 0001:0001b444       ?intersectRanges@RangeToken@xercesc_3_1@@UAEXQAV12@@Z 1201c444 f   RangeToken.obj
 0001:0001b599       ?complementRanges@RangeToken@xercesc_3_1@@SAPAV12@QAV12@QAVTokenFactory@2@QAVMemoryManager@2@@Z 1201c599 f   RangeToken.obj
 0001:0001b66b       ?match@RangeToken@xercesc_3_1@@QAE_NH@Z 1201c66b f   RangeToken.obj
 0001:0001b731       ?expand@RangeToken@xercesc_3_1@@AAEXI@Z 1201c731 f   RangeToken.obj
 0001:0001b7a7       ?doCreateMap@RangeToken@xercesc_3_1@@AAEXXZ 1201c7a7 f   RangeToken.obj
 0001:0001b848       ?initializeRangeTokenMap@XMLInitializer@xercesc_3_1@@CAXXZ 1201c848 f   RangeTokenMap.obj
 0001:0001b88f       ?terminateRangeTokenMap@XMLInitializer@xercesc_3_1@@CAXXZ 1201c88f f   RangeTokenMap.obj
 0001:0001b8b1       ??0RangeTokenElemMap@xercesc_3_1@@QAE@I@Z 1201c8b1 f   RangeTokenMap.obj
 0001:0001b8c7       ??0RangeTokenMap@xercesc_3_1@@IAE@PAVMemoryManager@1@@Z 1201c8c7 f   RangeTokenMap.obj
 0001:0001b9c6       ??1RangeTokenMap@xercesc_3_1@@IAE@XZ 1201c9c6 f   RangeTokenMap.obj
 0001:0001b9d7       ?getRange@RangeTokenMap@xercesc_3_1@@IAEPAVRangeToken@2@QB_W_N@Z 1201c9d7 f   RangeTokenMap.obj
 0001:0001badc       ?addCategory@RangeTokenMap@xercesc_3_1@@QAEXQB_W@Z 1201cadc f   RangeTokenMap.obj
 0001:0001bae8       ?addRangeMap@RangeTokenMap@xercesc_3_1@@QAEXQB_WQAVRangeFactory@2@@Z 1201cae8 f   RangeTokenMap.obj
 0001:0001baf4       ?addKeywordMap@RangeTokenMap@xercesc_3_1@@QAEXQB_W0@Z 1201caf4 f   RangeTokenMap.obj
 0001:0001bba0       ?setRangeToken@RangeTokenMap@xercesc_3_1@@QAEXQB_WQAVRangeToken@2@_N@Z 1201cba0 f   RangeTokenMap.obj
 0001:0001bc1a       ?initializeRegistry@RangeTokenMap@xercesc_3_1@@AAEXXZ 1201cc1a f   RangeTokenMap.obj
 0001:0001bd38       ?buildTokenRanges@RangeTokenMap@xercesc_3_1@@AAEXXZ 1201cd38 f   RangeTokenMap.obj
 0001:0001bdc8       ?instance@RangeTokenMap@xercesc_3_1@@SAPAV12@XZ 1201cdc8 f   RangeTokenMap.obj
 0001:0001bdce       ?cleanUp@RangeTokenMap@xercesc_3_1@@AAEXXZ 1201cdce f   RangeTokenMap.obj
 0001:0001be2f       ??0?$RefHashTableOf@VRangeTokenElemMap@xercesc_3_1@@UStringHasher@2@@xercesc_3_1@@QAE@KQAVMemoryManager@1@@Z 1201ce2f f i RangeTokenMap.obj
 0001:0001be78       ??1?$RefHashTableOf@VRangeTokenElemMap@xercesc_3_1@@UStringHasher@2@@xercesc_3_1@@QAE@XZ 1201ce78 f i RangeTokenMap.obj
 0001:0001be78       ??1?$RefHashTableOf@VXMLCanRepGroup@xercesc_3_1@@UPtrHasher@2@@xercesc_3_1@@QAE@XZ 1201ce78 f i DatatypeValidatorFactory.obj
 0001:0001be78       ??1?$RefHashTableOf@VXMLInteger@xercesc_3_1@@UCMStateSetHasher@2@@xercesc_3_1@@QAE@XZ 1201ce78 f i DFAContentModel.obj
 0001:0001be78       ??1?$RefHashTableOf@VXSerializedObjectId@xercesc_3_1@@UPtrHasher@2@@xercesc_3_1@@QAE@XZ 1201ce78 f i XSerializeEngine.obj
 0001:0001bf15       ?containsKey@?$RefHashTableOf@VDatatypeValidator@xercesc_3_1@@UStringHasher@2@@xercesc_3_1@@QBE_NQBX@Z 1201cf15 f i XMLGrammarPoolImpl.obj
 0001:0001bf15       ?containsKey@?$RefHashTableOf@VGrammar@xercesc_3_1@@UStringHasher@2@@xercesc_3_1@@QBE_NQBX@Z 1201cf15 f i XMLGrammarPoolImpl.obj
 0001:0001bf15       ?containsKey@?$RefHashTableOf@VKVStringPair@xercesc_3_1@@UStringHasher@2@@xercesc_3_1@@QBE_NQBX@Z 1201cf15 f i TraverseSchema.obj
 0001:0001bf15       ?containsKey@?$RefHashTableOf@VRangeTokenElemMap@xercesc_3_1@@UStringHasher@2@@xercesc_3_1@@QBE_NQBX@Z 1201cf15 f i RangeTokenMap.obj
 0001:0001bf15       ?containsKey@?$RefHashTableOf@VXMLAttDef@xercesc_3_1@@UStringHasher@2@@xercesc_3_1@@QBE_NQBX@Z 1201cf15 f i TraverseSchema.obj
 0001:0001bf15       ?containsKey@?$RefHashTableOf@VXercesAttGroupInfo@xercesc_3_1@@UStringHasher@2@@xercesc_3_1@@QBE_NQBX@Z 1201cf15 f i TraverseSchema.obj
 0001:0001bf15       ?containsKey@?$RefHashTableOf@VXercesGroupInfo@xercesc_3_1@@UStringHasher@2@@xercesc_3_1@@QBE_NQBX@Z 1201cf15 f i TraverseSchema.obj
 0001:0001bf52       ?put@?$RefHashTableOf@VRangeTokenElemMap@xercesc_3_1@@UStringHasher@2@@xercesc_3_1@@QAEXPAXQAVRangeTokenElemMap@2@@Z 1201cf52 f i RangeTokenMap.obj
 0001:0001bfd0       ??0?$RefHashTableOf@VRangeFactory@xercesc_3_1@@UStringHasher@2@@xercesc_3_1@@QAE@KQAVMemoryManager@1@@Z 1201cfd0 f i RangeTokenMap.obj
 0001:0001c016       ?put@?$RefHashTableOf@VComplexTypeInfo@xercesc_3_1@@UStringHasher@2@@xercesc_3_1@@QAEXPAXQAVComplexTypeInfo@2@@Z 1201d016 f i XTemplateSerializer.obj
 0001:0001c016       ?put@?$RefHashTableOf@VDOMElement@xercesc_3_1@@UStringHasher@2@@xercesc_3_1@@QAEXPAXQAVDOMElement@2@@Z 1201d016 f i SchemaInfo.obj
 0001:0001c016       ?put@?$RefHashTableOf@VDTDAttDef@xercesc_3_1@@UStringHasher@2@@xercesc_3_1@@QAEXPAXQAVDTDAttDef@2@@Z 1201d016 f i XTemplateSerializer.obj
 0001:0001c016       ?put@?$RefHashTableOf@VDTDElementDecl@xercesc_3_1@@UStringHasher@2@@xercesc_3_1@@QAEXPAXQAVDTDElementDecl@2@@Z 1201d016 f i XMLGrammarPoolImpl.obj
 0001:0001c016       ?put@?$RefHashTableOf@VDTDEntityDecl@xercesc_3_1@@UStringHasher@2@@xercesc_3_1@@QAEXPAXQAVDTDEntityDecl@2@@Z 1201d016 f i XMLGrammarPoolImpl.obj
 0001:0001c016       ?put@?$RefHashTableOf@VDatatypeValidator@xercesc_3_1@@UStringHasher@2@@xercesc_3_1@@QAEXPAXQAVDatatypeValidator@2@@Z 1201d016 f i XTemplateSerializer.obj
 0001:0001c016       ?put@?$RefHashTableOf@VGrammar@xercesc_3_1@@UStringHasher@2@@xercesc_3_1@@QAEXPAXQAVGrammar@2@@Z 1201d016 f i XMLGrammarPoolImpl.obj
 0001:0001c016       ?put@?$RefHashTableOf@VKVStringPair@xercesc_3_1@@UStringHasher@2@@xercesc_3_1@@QAEXPAXQAVKVStringPair@2@@Z 1201d016 f i XTemplateSerializer.obj
 0001:0001c016       ?put@?$RefHashTableOf@VRangeFactory@xercesc_3_1@@UStringHasher@2@@xercesc_3_1@@QAEXPAXQAVRangeFactory@2@@Z 1201d016 f i RangeTokenMap.obj
 0001:0001c016       ?put@?$RefHashTableOf@VXMLAttDef@xercesc_3_1@@UStringHasher@2@@xercesc_3_1@@QAEXPAXQAVXMLAttDef@2@@Z 1201d016 f i XTemplateSerializer.obj
 0001:0001c016       ?put@?$RefHashTableOf@VXMLElementDecl@xercesc_3_1@@UStringHasher@2@@xercesc_3_1@@QAEXPAXQAVXMLElementDecl@2@@Z 1201d016 f i WFXMLScanner.obj
 0001:0001c016       ?put@?$RefHashTableOf@VXMLNotationDecl@xercesc_3_1@@UStringHasher@2@@xercesc_3_1@@QAEXPAXQAVXMLNotationDecl@2@@Z 1201d016 f i XMLGrammarPoolImpl.obj
 0001:0001c016       ?put@?$RefHashTableOf@VXMLRefInfo@xercesc_3_1@@UStringHasher@2@@xercesc_3_1@@QAEXPAXQAVXMLRefInfo@2@@Z 1201d016 f i ValidationContextImpl.obj
 0001:0001c016       ?put@?$RefHashTableOf@VXSObject@xercesc_3_1@@UStringHasher@2@@xercesc_3_1@@QAEXPAXQAVXSObject@2@@Z 1201d016 f i XSModel.obj
 0001:0001c016       ?put@?$RefHashTableOf@VXercesAttGroupInfo@xercesc_3_1@@UStringHasher@2@@xercesc_3_1@@QAEXPAXQAVXercesAttGroupInfo@2@@Z 1201d016 f i XTemplateSerializer.obj
 0001:0001c016       ?put@?$RefHashTableOf@VXercesGroupInfo@xercesc_3_1@@UStringHasher@2@@xercesc_3_1@@QAEXPAXQAVXercesGroupInfo@2@@Z 1201d016 f i XTemplateSerializer.obj
 0001:0001c093       ?isEOLChar@RegxUtil@xercesc_3_1@@SA_N_W@Z 1201d093 f i RegularExpression.obj
 0001:0001c0be       ?composeFromSurrogate@RegxUtil@xercesc_3_1@@SAH_W0@Z 1201d0be f i RegularExpression.obj
 0001:0001c0d5       ?isLowSurrogate@RegxUtil@xercesc_3_1@@SA_N_W@Z 1201d0d5 f i RegularExpression.obj
 0001:0001c0ed       ?isHighSurrogate@RegxUtil@xercesc_3_1@@SA_N_W@Z 1201d0ed f i RegularExpression.obj
 0001:0001c105       ?decomposeToSurrogates@RegxUtil@xercesc_3_1@@SAXHAA_W0@Z 1201d105 f i RegularExpression.obj
 0001:0001c130       ?isWordChar@RegxUtil@xercesc_3_1@@SA_N_W@Z 1201d130 f i RegularExpression.obj
 0001:0001c170       ??_FContext@RegularExpression@xercesc_3_1@@QAEXXZ 1201d170 f i RegularExpression.obj
 0001:0001c17c       ??_ERegularExpression@xercesc_3_1@@UAEPAXI@Z 1201d17c f i RegularExpression.obj
 0001:0001c214       ?staticCleanup@RegularExpression@xercesc_3_1@@SAXXZ 1201d214 f i RegularExpression.obj
 0001:0001c214       ?terminateRegularExpression@XMLInitializer@xercesc_3_1@@CAXXZ 1201d214 f i RegularExpression.obj
 0001:0001c21c       ?cleanUp@RegularExpression@xercesc_3_1@@IAEXXZ 1201d21c f i RegularExpression.obj
 0001:0001c279       ?isSet@RegularExpression@xercesc_3_1@@SA_NHH@Z 1201d279 f i RegularExpression.obj
 0001:0001c28a       ?compileUnion@RegularExpression@xercesc_3_1@@IAEPAVOp@2@QBVToken@2@QAV32@_N@Z 1201d28a f i RegularExpression.obj
 0001:0001c2ea       ?compileParenthesis@RegularExpression@xercesc_3_1@@IAEPAVOp@2@QBVToken@2@QAV32@_N@Z 1201d2ea f i RegularExpression.obj
 0001:0001c383       ?compileConcat@RegularExpression@xercesc_3_1@@IAEPAVOp@2@QBVToken@2@QAV32@_N@Z 1201d383 f i RegularExpression.obj
 0001:0001c3f9       ?compileClosure@RegularExpression@xercesc_3_1@@IAEPAVOp@2@QBVToken@2@QAV32@_NW4tokType@42@@Z 1201d3f9 f i RegularExpression.obj
 0001:0001c551       ?matchIgnoreCase@RegularExpression@xercesc_3_1@@IBE_NHH@Z 1201d551 f   RegularExpression.obj
 0001:0001c5eb       ??0Context@RegularExpression@xercesc_3_1@@QAE@QAVMemoryManager@2@@Z 1201d5eb f   RegularExpression.obj
 0001:0001c619       ??0Context@RegularExpression@xercesc_3_1@@QAE@PAV012@@Z 1201d619 f   RegularExpression.obj
 0001:0001c6ce       ??4Context@RegularExpression@xercesc_3_1@@QAEAAV012@ABV012@@Z 1201d6ce f   RegularExpression.obj
 0001:0001c7ff       ??1Context@RegularExpression@xercesc_3_1@@QAE@XZ 1201d7ff f   RegularExpression.obj
 0001:0001c85a       ?reset@Context@RegularExpression@xercesc_3_1@@QAEXQB_WKKKHI@Z 1201d85a f   RegularExpression.obj
 0001:0001c8e0       ?nextCh@Context@RegularExpression@xercesc_3_1@@QAE_NAAHAAK@Z 1201d8e0 f   RegularExpression.obj
 0001:0001c961       ??0RegularExpression@xercesc_3_1@@QAE@QBDQAVMemoryManager@1@@Z 1201d961 f   RegularExpression.obj
 0001:0001ca07       ??0RegularExpression@xercesc_3_1@@QAE@QBD0QAVMemoryManager@1@@Z 1201da07 f   RegularExpression.obj
 0001:0001cacf       ??0RegularExpression@xercesc_3_1@@QAE@QB_WQAVMemoryManager@1@@Z 1201dacf f   RegularExpression.obj
 0001:0001cb57       ??0RegularExpression@xercesc_3_1@@QAE@QB_W0QAVMemoryManager@1@@Z 1201db57 f   RegularExpression.obj
 0001:0001cbe1       ??1RegularExpression@xercesc_3_1@@UAE@XZ 1201dbe1 f   RegularExpression.obj
 0001:0001cc2c       ?getRegexParser@RegularExpression@xercesc_3_1@@MAEPAVRegxParser@2@HQAVMemoryManager@2@@Z 1201dc2c f   RegularExpression.obj
 0001:0001cc78       ?setPattern@RegularExpression@xercesc_3_1@@IAEXQB_W0@Z 1201dc78 f   RegularExpression.obj
 0001:0001cd27       ?matches@RegularExpression@xercesc_3_1@@QBE_NQBDQAVMemoryManager@2@@Z 1201dd27 f   RegularExpression.obj
 0001:0001cd78       ?matches@RegularExpression@xercesc_3_1@@QBE_NQBDKKQAVMemoryManager@2@@Z 1201dd78 f   RegularExpression.obj
 0001:0001cdc3       ?matches@RegularExpression@xercesc_3_1@@QBE_NQBDQAVMatch@2@QAVMemoryManager@2@@Z 1201ddc3 f   RegularExpression.obj
 0001:0001ce15       ?matches@RegularExpression@xercesc_3_1@@QBE_NQBDKKQAVMatch@2@QAVMemoryManager@2@@Z 1201de15 f   RegularExpression.obj
 0001:0001ce61       ?matches@RegularExpression@xercesc_3_1@@QBE_NQB_WQAVMemoryManager@2@@Z 1201de61 f   RegularExpression.obj
 0001:0001ce89       ?matches@RegularExpression@xercesc_3_1@@QBE_NQB_WKKQAVMemoryManager@2@@Z 1201de89 f   RegularExpression.obj
 0001:0001cea3       ?matches@RegularExpression@xercesc_3_1@@QBE_NQB_WQAVMatch@2@QAVMemoryManager@2@@Z 1201dea3 f   RegularExpression.obj
 0001:0001ceca       ?matches@RegularExpression@xercesc_3_1@@QBE_NQB_WKKQAVMatch@2@QAVMemoryManager@2@@Z 1201deca f   RegularExpression.obj
 0001:0001d1bb       ?tokenize@RegularExpression@xercesc_3_1@@QBEPAV?$RefArrayVectorOf@_W@2@QBDQAVMemoryManager@2@@Z 1201e1bb f   RegularExpression.obj
 0001:0001d20a       ?tokenize@RegularExpression@xercesc_3_1@@QBEPAV?$RefArrayVectorOf@_W@2@QBDKKQAVMemoryManager@2@@Z 1201e20a f   RegularExpression.obj
 0001:0001d253       ?tokenize@RegularExpression@xercesc_3_1@@QBEPAV?$RefArrayVectorOf@_W@2@QB_WQAVMemoryManager@2@@Z 1201e253 f   RegularExpression.obj
 0001:0001d277       ?tokenize@RegularExpression@xercesc_3_1@@QBEPAV?$RefArrayVectorOf@_W@2@QB_WKKQAVMemoryManager@2@@Z 1201e277 f   RegularExpression.obj
 0001:0001d3f8       ?allMatches@RegularExpression@xercesc_3_1@@QBEXQB_WKKPAV?$RefVectorOf@VMatch@xercesc_3_1@@@2@QAVMemoryManager@2@@Z 1201e3f8 f   RegularExpression.obj
 0001:0001d507       ?replace@RegularExpression@xercesc_3_1@@QBEPA_WQBD0QAVMemoryManager@2@@Z 1201e507 f   RegularExpression.obj
 0001:0001d577       ?replace@RegularExpression@xercesc_3_1@@QBEPA_WQBD0KKQAVMemoryManager@2@@Z 1201e577 f   RegularExpression.obj
 0001:0001d5df       ?replace@RegularExpression@xercesc_3_1@@QBEPA_WQB_W0QAVMemoryManager@2@@Z 1201e5df f   RegularExpression.obj
 0001:0001d606       ?replace@RegularExpression@xercesc_3_1@@QBEPA_WQB_W0KKQAVMemoryManager@2@@Z 1201e606 f   RegularExpression.obj
 0001:0001d766       ?subInExp@RegularExpression@xercesc_3_1@@IBEXQB_W0PBVMatch@2@AAVXMLBuffer@2@QAVMemoryManager@2@@Z 1201e766 f   RegularExpression.obj
 0001:0001d8ac       ?initializeRegularExpression@XMLInitializer@xercesc_3_1@@CAXXZ 1201e8ac f   RegularExpression.obj
 0001:0001d8b9       ?staticInitialize@RegularExpression@xercesc_3_1@@SAXPAVMemoryManager@2@@Z 1201e8b9 f   RegularExpression.obj
 0001:0001d910       ?getOptionValue@RegularExpression@xercesc_3_1@@SAH_W@Z 1201e910 f   RegularExpression.obj
 0001:0001d965       ?match@RegularExpression@xercesc_3_1@@IBEHQAVContext@12@QBVOp@2@K@Z 1201e965 f   RegularExpression.obj
 0001:0001ddcd       ?matchChar@RegularExpression@xercesc_3_1@@IBE_NQAVContext@12@HAAK_N@Z 1201edcd f   RegularExpression.obj
 0001:0001de23       ?matchDot@RegularExpression@xercesc_3_1@@IBE_NQAVContext@12@AAK@Z 1201ee23 f   RegularExpression.obj
 0001:0001de6e       ?matchRange@RegularExpression@xercesc_3_1@@IBE_NQAVContext@12@QBVOp@2@AAK_N@Z 1201ee6e f   RegularExpression.obj
 0001:0001dec8       ?matchAnchor@RegularExpression@xercesc_3_1@@IBE_NQAVContext@12@HK@Z 1201eec8 f   RegularExpression.obj
 0001:0001df6d       ?matchBackReference@RegularExpression@xercesc_3_1@@IBE_NQAVContext@12@HAAK_N@Z 1201ef6d f   RegularExpression.obj
 0001:0001e035       ?matchString@RegularExpression@xercesc_3_1@@IBE_NQAVContext@12@QB_WAAK_N@Z 1201f035 f   RegularExpression.obj
 0001:0001e085       ?matchCapture@RegularExpression@xercesc_3_1@@IBEHQAVContext@12@QBVOp@2@K@Z 1201f085 f   RegularExpression.obj
 0001:0001e136       ?matchUnion@RegularExpression@xercesc_3_1@@IBEHQAVContext@12@QBVOp@2@K@Z 1201f136 f   RegularExpression.obj
 0001:0001e20f       ?parseOptions@RegularExpression@xercesc_3_1@@IAEHQB_W@Z 1201f20f f   RegularExpression.obj
 0001:0001e28b       ?compile@RegularExpression@xercesc_3_1@@IAEXQBVToken@2@@Z 1201f28b f   RegularExpression.obj
 0001:0001e2ad       ?compile@RegularExpression@xercesc_3_1@@IAEPAVOp@2@QBVToken@2@QAV32@_N@Z 1201f2ad f   RegularExpression.obj
 0001:0001e3e9       ?prepare@RegularExpression@xercesc_3_1@@IAEXXZ 1201f3e9 f   RegularExpression.obj
 0001:0001e610       ?doTokenOverlap@RegularExpression@xercesc_3_1@@IAE_NPBVOp@2@PAVToken@2@@Z 1201f610 f   RegularExpression.obj
 0001:0001e702       ??0?$RefVectorOf@VMatch@xercesc_3_1@@@xercesc_3_1@@QAE@K_NQAVMemoryManager@1@@Z 1201f702 f i RegularExpression.obj
 0001:0001e753       ??1?$RefVectorOf@VMatch@xercesc_3_1@@@xercesc_3_1@@UAE@XZ 1201f753 f i RegularExpression.obj
 0001:0001e7c7       ?push@?$ValueStackOf@URE_RuntimeContext@xercesc_3_1@@@xercesc_3_1@@QAEXABURE_RuntimeContext@2@@Z 1201f7c7 f i RegularExpression.obj
 0001:0001e7f2       ?pop@?$ValueStackOf@URE_RuntimeContext@xercesc_3_1@@@xercesc_3_1@@QAE?AURE_RuntimeContext@2@XZ 1201f7f2 f i RegularExpression.obj
 0001:0001e879       ??1?$Janitor@V?$ValueStackOf@URE_RuntimeContext@xercesc_3_1@@@xercesc_3_1@@@xercesc_3_1@@QAE@XZ 1201f879 f i RegularExpression.obj
 0001:0001e897       ??_E?$RefVectorOf@VMatch@xercesc_3_1@@@xercesc_3_1@@UAEPAXI@Z 1201f897 f i * CIL library *:* CIL module *
 0001:0001e897       ??_G?$RefVectorOf@VMatch@xercesc_3_1@@@xercesc_3_1@@UAEPAXI@Z 1201f897 f i RegularExpression.obj
 0001:0001e8c7       ??_E?$BaseRefVectorOf@VMatch@xercesc_3_1@@@xercesc_3_1@@UAEPAXI@Z 1201f8c7 f i * CIL library *:* CIL module *
 0001:0001e8c7       ??_G?$BaseRefVectorOf@VMatch@xercesc_3_1@@@xercesc_3_1@@UAEPAXI@Z 1201f8c7 f i RegularExpression.obj
 0001:0001e8f8       ??1?$ValueStackOf@H@xercesc_3_1@@QAE@XZ 1201f8f8 f i XPathMatcherStack.obj
 0001:0001e8f8       ??1?$ValueStackOf@I@xercesc_3_1@@QAE@XZ 1201f8f8 f i SAX2XMLReaderImpl.obj
 0001:0001e8f8       ??1?$ValueStackOf@K@xercesc_3_1@@QAE@XZ 1201f8f8 f i SAX2XMLReaderImpl.obj
 0001:0001e8f8       ??1?$ValueStackOf@PAVComplexTypeInfo@xercesc_3_1@@@xercesc_3_1@@QAE@XZ 1201f8f8 f i SchemaValidator.obj
 0001:0001e8f8       ??1?$ValueStackOf@URE_RuntimeContext@xercesc_3_1@@@xercesc_3_1@@QAE@XZ 1201f8f8 f i RegularExpression.obj
 0001:0001e8f8       ??1?$ValueStackOf@_N@xercesc_3_1@@QAE@XZ 1201f8f8 f i IGXMLScanner.obj
 0001:0001e93d       ?ensureExtraCapacity@?$ValueVectorOf@URE_RuntimeContext@xercesc_3_1@@@xercesc_3_1@@QAEXK@Z 1201f93d f i RegularExpression.obj
 0001:0001e9ba       ??_ERegxParser@xercesc_3_1@@UAEPAXI@Z 1201f9ba f i RegxParser.obj
 0001:0001ea50       ??0RegxParser@xercesc_3_1@@QAE@QAVMemoryManager@1@@Z 1201fa50 f   RegxParser.obj
 0001:0001ea8b       ??1RegxParser@xercesc_3_1@@UAE@XZ 1201fa8b f   RegxParser.obj
 0001:0001eae1       ?parse@RegxParser@xercesc_3_1@@QAEPAVToken@2@QB_WH@Z 1201fae1 f   RegxParser.obj
 0001:0001ec68       ?processNext@RegxParser@xercesc_3_1@@IAEXXZ 1201fc68 f   RegxParser.obj
 0001:0001eeab       ?parseRegx@RegxParser@xercesc_3_1@@IAEPAVToken@2@_N@Z 1201feab f   RegxParser.obj
 0001:0001ef12       ?parseTerm@RegxParser@xercesc_3_1@@AAEPAVToken@2@_N@Z 1201ff12 f   RegxParser.obj
 0001:0001efa9       ?processCaret@RegxParser@xercesc_3_1@@MAEPAVToken@2@XZ 1201ffa9 f   RegxParser.obj
 0001:0001efba       ?processDollar@RegxParser@xercesc_3_1@@MAEPAVToken@2@XZ 1201ffba f   RegxParser.obj
 0001:0001efcb       ?processStar@RegxParser@xercesc_3_1@@MAEPAVToken@2@QAV32@@Z 1201ffcb f   RegxParser.obj
 0001:0001efff       ?processPlus@RegxParser@xercesc_3_1@@MAEPAVToken@2@QAV32@@Z 1201ffff f   RegxParser.obj
 0001:0001f03f       ?processQuestion@RegxParser@xercesc_3_1@@MAEPAVToken@2@QAV32@@Z 1202003f f   RegxParser.obj
 0001:0001f0b6       ?processParen@RegxParser@xercesc_3_1@@MAEPAVToken@2@XZ 120200b6 f   RegxParser.obj
 0001:0001f127       ?processBackReference@RegxParser@xercesc_3_1@@MAEPAVToken@2@XZ 12020127 f   RegxParser.obj
 0001:0001f1f9       ?parseFactor@RegxParser@xercesc_3_1@@AAEPAVToken@2@XZ 120201f9 f   RegxParser.obj
 0001:0001f4aa       ?parseAtom@RegxParser@xercesc_3_1@@AAEPAVToken@2@XZ 120204aa f   RegxParser.obj
 0001:0001f6a7       ?processBacksolidus_pP@RegxParser@xercesc_3_1@@IAEPAVRangeToken@2@H@Z 120206a7 f   RegxParser.obj
 0001:0001f799       ?parseCharacterClass@RegxParser@xercesc_3_1@@IAEPAVRangeToken@2@_N@Z 12020799 f   RegxParser.obj
 0001:0001fc85       ?getTokenForShorthand@RegxParser@xercesc_3_1@@IAEPAVRangeToken@2@H@Z 12020c85 f   RegxParser.obj
 0001:0001fd0f       ?decodeEscaped@RegxParser@xercesc_3_1@@MAEHXZ 12020d0f f   RegxParser.obj
 0001:0001fe1f       ?checkQuestion@RegxParser@xercesc_3_1@@MAE_NK@Z 12020e1f f   RegxParser.obj
 0001:0001fe3e       ??0?$RefVectorOf@VReferencePosition@RegxParser@xercesc_3_1@@@xercesc_3_1@@QAE@K_NQAVMemoryManager@1@@Z 12020e3e f i RegxParser.obj
 0001:0001fe8f       ??1?$RefVectorOf@VReferencePosition@RegxParser@xercesc_3_1@@@xercesc_3_1@@UAE@XZ 12020e8f f i RegxParser.obj
 0001:0001feff       ?setElementAt@?$BaseRefVectorOf@VReferencePosition@RegxParser@xercesc_3_1@@@xercesc_3_1@@UAEXQAVReferencePosition@RegxParser@2@K@Z 12020eff f i RegxParser.obj
 0001:0001ff56       ?removeAllElements@?$BaseRefVectorOf@VReferencePosition@RegxParser@xercesc_3_1@@@xercesc_3_1@@UAEXXZ 12020f56 f i RegxParser.obj
 0001:0001ff8b       ?removeElementAt@?$BaseRefVectorOf@VReferencePosition@RegxParser@xercesc_3_1@@@xercesc_3_1@@UAEXK@Z 12020f8b f i RegxParser.obj
 0001:0002001d       ?removeLastElement@?$BaseRefVectorOf@VReferencePosition@RegxParser@xercesc_3_1@@@xercesc_3_1@@UAEXXZ 1202101d f i RegxParser.obj
 0001:0002003b       ?cleanup@?$BaseRefVectorOf@VReferencePosition@RegxParser@xercesc_3_1@@@xercesc_3_1@@UAEXXZ 1202103b f i RegxParser.obj
 0001:0002006c       ??_E?$RefVectorOf@VReferencePosition@RegxParser@xercesc_3_1@@@xercesc_3_1@@UAEPAXI@Z 1202106c f i * CIL library *:* CIL module *
 0001:0002006c       ??_G?$RefVectorOf@VReferencePosition@RegxParser@xercesc_3_1@@@xercesc_3_1@@UAEPAXI@Z 1202106c f i RegxParser.obj
 0001:0002009c       ??_E?$BaseRefVectorOf@VReferencePosition@RegxParser@xercesc_3_1@@@xercesc_3_1@@UAEPAXI@Z 1202109c f i * CIL library *:* CIL module *
 0001:0002009c       ??_G?$BaseRefVectorOf@VReferencePosition@RegxParser@xercesc_3_1@@@xercesc_3_1@@UAEPAXI@Z 1202109c f i RegxParser.obj
 0001:000200cd       ?decomposeToSurrogates@RegxUtil@xercesc_3_1@@SAPA_WHQAVMemoryManager@2@@Z 120210cd f   RegxUtil.obj
 0001:000200f8       ?stripExtendedComment@RegxUtil@xercesc_3_1@@SAPA_WQB_WQAVMemoryManager@2@@Z 120210f8 f   RegxUtil.obj
 0001:0002022f       ??_EStringToken@xercesc_3_1@@UAEPAXI@Z 1202122f f i StringToken.obj
 0001:000202c5       ??0StringToken@xercesc_3_1@@QAE@W4tokType@Token@1@QB_WHQAVMemoryManager@1@@Z 120212c5 f   StringToken.obj
 0001:0002030d       ??1StringToken@xercesc_3_1@@UAE@XZ 1202130d f   StringToken.obj
 0001:0002035c       ??_EToken@xercesc_3_1@@UAEPAXI@Z 1202135c f i Token.obj
 0001:000203f3       ??0Token@xercesc_3_1@@QAE@W4tokType@01@QAVMemoryManager@1@@Z 120213f3 f   Token.obj
 0001:0002040e       ?getMinLength@Token@xercesc_3_1@@QBEKXZ 1202140e f   Token.obj
 0001:0002053a       ?getMaxLength@Token@xercesc_3_1@@QBEHXZ 1202153a f   Token.obj
 0001:0002067a       ?analyzeFirstCharacter@Token@xercesc_3_1@@QAE?AW4firstCharacterOptions@12@QAVRangeToken@2@HQAVTokenFactory@2@@Z 1202167a f   Token.obj
 0001:0002084e       ?findFixedString@Token@xercesc_3_1@@QAEPAV12@HAAH@Z 1202184e f   Token.obj
 0001:00020913       ?isShorterThan@Token@xercesc_3_1@@AAE_NQAV12@@Z 12021913 f   Token.obj
 0001:00020956       ??0TokenFactory@xercesc_3_1@@QAE@QAVMemoryManager@1@@Z 12021956 f   TokenFactory.obj
 0001:000209a8       ?createToken@TokenFactory@xercesc_3_1@@QAEPAVToken@2@W4tokType@32@@Z 120219a8 f   TokenFactory.obj
 0001:00020a04       ?createParenthesis@TokenFactory@xercesc_3_1@@QAEPAVParenToken@2@QAVToken@2@H@Z 12021a04 f   TokenFactory.obj
 0001:00020a57       ?createClosure@TokenFactory@xercesc_3_1@@QAEPAVClosureToken@2@QAVToken@2@_N@Z 12021a57 f   TokenFactory.obj
 0001:00020aae       ?createConcat@TokenFactory@xercesc_3_1@@QAEPAVConcatToken@2@QAVToken@2@0@Z 12021aae f   TokenFactory.obj
 0001:00020af2       ?createUnion@TokenFactory@xercesc_3_1@@QAEPAVUnionToken@2@_N@Z 12021af2 f   TokenFactory.obj
 0001:00020b53       ?createRange@TokenFactory@xercesc_3_1@@QAEPAVRangeToken@2@_N@Z 12021b53 f   TokenFactory.obj
 0001:00020ba4       ?createChar@TokenFactory@xercesc_3_1@@QAEPAVCharToken@2@I_N@Z 12021ba4 f   TokenFactory.obj
 0001:00020c04       ?createBackReference@TokenFactory@xercesc_3_1@@QAEPAVStringToken@2@H@Z 12021c04 f   TokenFactory.obj
 0001:00020c55       ?createString@TokenFactory@xercesc_3_1@@QAEPAVStringToken@2@QB_W@Z 12021c55 f   TokenFactory.obj
 0001:00020ca6       ?staticGetRange@TokenFactory@xercesc_3_1@@SAPAVRangeToken@2@QB_W_N@Z 12021ca6 f   TokenFactory.obj
 0001:00020cbc       ?getLineBegin@TokenFactory@xercesc_3_1@@QAEPAVToken@2@XZ 12021cbc f   TokenFactory.obj
 0001:00020cd6       ?getLineEnd@TokenFactory@xercesc_3_1@@QAEPAVToken@2@XZ 12021cd6 f   TokenFactory.obj
 0001:00020cf0       ?getDot@TokenFactory@xercesc_3_1@@QAEPAVToken@2@XZ 12021cf0 f   TokenFactory.obj
 0001:00020d08       ??0?$RefVectorOf@VToken@xercesc_3_1@@@xercesc_3_1@@QAE@K_NQAVMemoryManager@1@@Z 12021d08 f i TokenFactory.obj
 0001:00020da2       ??1?$RefVectorOf@VToken@xercesc_3_1@@@xercesc_3_1@@UAE@XZ 12021da2 f i TokenFactory.obj
 0001:00020e16       ??_E?$RefVectorOf@VToken@xercesc_3_1@@@xercesc_3_1@@UAEPAXI@Z 12021e16 f i * CIL library *:* CIL module *
 0001:00020e16       ??_G?$RefVectorOf@VToken@xercesc_3_1@@@xercesc_3_1@@UAEPAXI@Z 12021e16 f i TokenFactory.obj
 0001:00020e46       ??_E?$BaseRefVectorOf@VToken@xercesc_3_1@@@xercesc_3_1@@UAEPAXI@Z 12021e46 f i * CIL library *:* CIL module *
 0001:00020e46       ??_G?$BaseRefVectorOf@VToken@xercesc_3_1@@@xercesc_3_1@@UAEPAXI@Z 12021e46 f i TokenFactory.obj
 0001:00020e77       ??0UnicodeRangeFactory@xercesc_3_1@@QAE@XZ 12021e77 f   UnicodeRangeFactory.obj
 0001:00020e86       ?buildRanges@UnicodeRangeFactory@xercesc_3_1@@MAEXPAVRangeTokenMap@2@@Z 12021e86 f   UnicodeRangeFactory.obj
 0001:000211a9       ?initializeKeywordMap@UnicodeRangeFactory@xercesc_3_1@@UAEXPAVRangeTokenMap@2@@Z 120221a9 f   UnicodeRangeFactory.obj
 0001:0002123b       ?getUniCategory@UnicodeRangeFactory@xercesc_3_1@@SAGG@Z 1202223b f   UnicodeRangeFactory.obj
 0001:000212b1       ??_EUnionToken@xercesc_3_1@@UAEPAXI@Z 120222b1 f i UnionToken.obj
 0001:00021349       ??0UnionToken@xercesc_3_1@@QAE@W4tokType@Token@1@QAVMemoryManager@1@@Z 12022349 f   UnionToken.obj
 0001:00021368       ??1UnionToken@xercesc_3_1@@UAE@XZ 12022368 f   UnionToken.obj
 0001:00021386       ?addChild@UnionToken@xercesc_3_1@@UAEXQAVToken@2@QAVTokenFactory@2@@Z 12022386 f   UnionToken.obj
 0001:000215f7       ??0XMLRangeFactory@xercesc_3_1@@QAE@XZ 120225f7 f   XMLRangeFactory.obj
 0001:00021606       ?buildRanges@XMLRangeFactory@xercesc_3_1@@MAEXPAVRangeTokenMap@2@@Z 12022606 f   XMLRangeFactory.obj
 0001:00021a55       ?initializeKeywordMap@XMLRangeFactory@xercesc_3_1@@UAEXPAVRangeTokenMap@2@@Z 12022a55 f   XMLRangeFactory.obj
 0001:00021abd       ?getType@XMLUniCharacter@xercesc_3_1@@SAG_W@Z 12022abd f   XMLUniCharacter.obj
 0001:00021acd       ??_EXMLFileMgr@xercesc_3_1@@UAEPAXI@Z 12022acd f i * CIL library *:* CIL module *
 0001:00021acd       ??_GXMLFileMgr@xercesc_3_1@@UAEPAXI@Z 12022acd f i WindowsFileMgr.obj
 0001:00021afe       ??_EWindowsFileMgr@xercesc_3_1@@UAEPAXI@Z 12022afe f i * CIL library *:* CIL module *
 0001:00021afe       ??_GWindowsFileMgr@xercesc_3_1@@UAEPAXI@Z 12022afe f i WindowsFileMgr.obj
 0001:00021b2f       ?fileOpen@WindowsFileMgr@xercesc_3_1@@UAEPAXPB_W_NQAVMemoryManager@2@@Z 12022b2f f   WindowsFileMgr.obj
 0001:00021cc6       ?fileOpen@WindowsFileMgr@xercesc_3_1@@UAEPAXPBD_NQAVMemoryManager@2@@Z 12022cc6 f   WindowsFileMgr.obj
 0001:00021d0c       ?openStdIn@WindowsFileMgr@xercesc_3_1@@UAEPAXQAVMemoryManager@2@@Z 12022d0c f   WindowsFileMgr.obj
 0001:00021df6       ?fileClose@WindowsFileMgr@xercesc_3_1@@UAEXPAXQAVMemoryManager@2@@Z 12022df6 f   WindowsFileMgr.obj
 0001:00021e66       ?fileReset@WindowsFileMgr@xercesc_3_1@@UAEXPAXQAVMemoryManager@2@@Z 12022e66 f   WindowsFileMgr.obj
 0001:00021ede       ?curPos@WindowsFileMgr@xercesc_3_1@@UAE_KPAXQAVMemoryManager@2@@Z 12022ede f   WindowsFileMgr.obj
 0001:00021f7c       ?fileSize@WindowsFileMgr@xercesc_3_1@@UAE_KPAXQAVMemoryManager@2@@Z 12022f7c f   WindowsFileMgr.obj
 0001:0002200e       ?fileRead@WindowsFileMgr@xercesc_3_1@@UAEKPAXKPAEQAVMemoryManager@2@@Z 1202300e f   WindowsFileMgr.obj
 0001:000220a6       ?fileWrite@WindowsFileMgr@xercesc_3_1@@UAEXPAXKPBEQAVMemoryManager@2@@Z 120230a6 f   WindowsFileMgr.obj
 0001:00022141       ?getFullPath@WindowsFileMgr@xercesc_3_1@@UAEPA_WQB_WQAVMemoryManager@2@@Z 12023141 f   WindowsFileMgr.obj
 0001:000221f6       ?getCurrentDirectory@WindowsFileMgr@xercesc_3_1@@UAEPA_WQAVMemoryManager@2@@Z 120231f6 f   WindowsFileMgr.obj
 0001:00022270       ?isRelative@WindowsFileMgr@xercesc_3_1@@UAE_NQB_WQAVMemoryManager@2@@Z 12023270 f   WindowsFileMgr.obj
 0001:000222c3       ??_EWindowsMutexMgr@xercesc_3_1@@UAEPAXI@Z 120232c3 f i * CIL library *:* CIL module *
 0001:000222c3       ??_EXMLMutexMgr@xercesc_3_1@@UAEPAXI@Z 120232c3 f i * CIL library *:* CIL module *
 0001:000222c3       ??_GWindowsMutexMgr@xercesc_3_1@@UAEPAXI@Z 120232c3 f i WindowsMutexMgr.obj
 0001:000222c3       ??_GXMLMutexMgr@xercesc_3_1@@UAEPAXI@Z 120232c3 f i WindowsMutexMgr.obj
 0001:000222f4       ?create@WindowsMutexMgr@xercesc_3_1@@UAEPAXQAVMemoryManager@2@@Z 120232f4 f   WindowsMutexMgr.obj
 0001:00022312       ?destroy@WindowsMutexMgr@xercesc_3_1@@UAEXPAXQAVMemoryManager@2@@Z 12023312 f   WindowsMutexMgr.obj
 0001:0002232d       ?lock@WindowsMutexMgr@xercesc_3_1@@UAEXPAX@Z 1202332d f   WindowsMutexMgr.obj
 0001:00022333       ?unlock@WindowsMutexMgr@xercesc_3_1@@UAEXPAX@Z 12023333 f   WindowsMutexMgr.obj
 0001:00022339       ??1XMLFormatTarget@xercesc_3_1@@UAE@XZ 12023339 f i LocalFileFormatTarget.obj
 0001:00022340       ??0XMLFormatTarget@xercesc_3_1@@IAE@XZ 12023340 f i LocalFileFormatTarget.obj
 0001:00022349       ??_EXMLFormatTarget@xercesc_3_1@@UAEPAXI@Z 12023349 f i LocalFileFormatTarget.obj
 0001:000223e3       ??0XMLCanRepGroup@xercesc_3_1@@QAE@W4CanRepGroup@01@@Z 120233e3 f i XMLCanRepGroup.obj
 0001:000223e3       ??0XMLInteger@xercesc_3_1@@QAE@H@Z 120233e3 f i DFAContentModel.obj
 0001:000223e3       ??6XMLFormatter@xercesc_3_1@@QAEAAV01@W4EscapeFlags@01@@Z 120233e3 f i LocalFileFormatTarget.obj
 0001:000223f1       ??6XMLFormatter@xercesc_3_1@@QAEAAV01@W4UnRepFlags@01@@Z 120233f1 f i LocalFileFormatTarget.obj
 0001:00022400       ??_ELocalFileFormatTarget@xercesc_3_1@@UAEPAXI@Z 12023400 f i LocalFileFormatTarget.obj
 0001:00022496       ??0LocalFileFormatTarget@xercesc_3_1@@QAE@QB_WQAVMemoryManager@1@@Z 12023496 f   LocalFileFormatTarget.obj
 0001:0002251c       ??0LocalFileFormatTarget@xercesc_3_1@@QAE@QBDQAVMemoryManager@1@@Z 1202351c f   LocalFileFormatTarget.obj
 0001:000225a2       ??1LocalFileFormatTarget@xercesc_3_1@@UAE@XZ 120235a2 f   LocalFileFormatTarget.obj
 0001:0002264a       ?flush@LocalFileFormatTarget@xercesc_3_1@@UAEXXZ 1202364a f   LocalFileFormatTarget.obj
 0001:00022667       ?writeChars@LocalFileFormatTarget@xercesc_3_1@@UAEXQBEKQAVXMLFormatter@2@@Z 12023667 f   LocalFileFormatTarget.obj
 0001:000226e2       ?ensureCapacity@LocalFileFormatTarget@xercesc_3_1@@AAEXK@Z 120236e2 f   LocalFileFormatTarget.obj
 0001:00022730       ??_FInputSource@xercesc_3_1@@QAEXXZ 12023730 f i LocalFileInputSource.obj
 0001:0002273c       ?setCreateEntityReferenceNodes@AbstractDOMParser@xercesc_3_1@@QAEX_N@Z 1202373c f i XSAnnotation.obj
 0001:0002273c       ?setExternalElemDeclaration@XMLElementDecl@xercesc_3_1@@QAEX_N@Z 1202373c f i XMLDTDDescription.obj
 0001:0002273c       ?setIssueFatalErrorIfNotFound@InputSource@xercesc_3_1@@UAEX_N@Z 1202373c f i LocalFileInputSource.obj
 0001:00022749       ??_ELocalFileInputSource@xercesc_3_1@@UAEPAXI@Z 12023749 f i LocalFileInputSource.obj
 0001:000227e5       ??0LocalFileInputSource@xercesc_3_1@@QAE@QB_W0QAVMemoryManager@1@@Z 120237e5 f   LocalFileInputSource.obj
 0001:00022856       ??0LocalFileInputSource@xercesc_3_1@@QAE@QB_WQAVMemoryManager@1@@Z 12023856 f   LocalFileInputSource.obj
 0001:00022933       ??1LocalFileInputSource@xercesc_3_1@@UAE@XZ 12023933 f   LocalFileInputSource.obj
 0001:0002293e       ?makeStream@LocalFileInputSource@xercesc_3_1@@UBEPAVBinInputStream@2@XZ 1202393e f   LocalFileInputSource.obj
 0001:00022999       ??_FMemBufFormatTarget@xercesc_3_1@@QAEXXZ 12023999 f i MemBufFormatTarget.obj
 0001:000229aa       ??_EMemBufFormatTarget@xercesc_3_1@@UAEPAXI@Z 120239aa f i MemBufFormatTarget.obj
 0001:00022a40       ??0MemBufFormatTarget@xercesc_3_1@@QAE@KQAVMemoryManager@1@@Z 12023a40 f   MemBufFormatTarget.obj
 0001:00022a86       ??1MemBufFormatTarget@xercesc_3_1@@UAE@XZ 12023a86 f   MemBufFormatTarget.obj
 0001:00022ad5       ?writeChars@MemBufFormatTarget@xercesc_3_1@@UAEXQBEKQAVXMLFormatter@2@@Z 12023ad5 f   MemBufFormatTarget.obj
 0001:00022b10       ?getRawBuffer@BinMemOutputStream@xercesc_3_1@@QBEPBEXZ 12023b10 f   BinMemOutputStream.obj
 0001:00022b10       ?getRawBuffer@MemBufFormatTarget@xercesc_3_1@@QBEPBEXZ 12023b10 f   MemBufFormatTarget.obj
 0001:00022b43       ?reset@MemBufFormatTarget@xercesc_3_1@@QAEXXZ 12023b43 f   MemBufFormatTarget.obj
 0001:00022b70       ?ensureCapacity@MemBufFormatTarget@xercesc_3_1@@AAEXK@Z 12023b70 f   MemBufFormatTarget.obj
 0001:00022bb6       ??_EMemBufInputSource@xercesc_3_1@@UAEPAXI@Z 12023bb6 f i MemBufInputSource.obj
 0001:00022c4c       ?setCopyBufToStream@MemBufInputSource@xercesc_3_1@@QAEX_N@Z 12023c4c f i MemBufInputSource.obj
 0001:00022c4c       ?setIgnoredCachedDTD@XMLScanner@xercesc_3_1@@QAEX_N@Z 12023c4c f i XMLValidator.obj
 0001:00022c59       ??0MemBufInputSource@xercesc_3_1@@QAE@QBEKQB_W_NQAVMemoryManager@1@@Z 12023c59 f   MemBufInputSource.obj
 0001:00022c91       ??0MemBufInputSource@xercesc_3_1@@QAE@QBEKQBD_NQAVMemoryManager@1@@Z 12023c91 f   MemBufInputSource.obj
 0001:00022cc9       ??1MemBufInputSource@xercesc_3_1@@UAE@XZ 12023cc9 f   MemBufInputSource.obj
 0001:00022ce9       ?resetMemBufInputSource@MemBufInputSource@xercesc_3_1@@QAEXQBEK@Z 12023ce9 f   MemBufInputSource.obj
 0001:00022cfc       ?makeStream@MemBufInputSource@xercesc_3_1@@UBEPAVBinInputStream@2@XZ 12023cfc f   MemBufInputSource.obj
 0001:00022d48       ??_FStdInInputSource@xercesc_3_1@@QAEXXZ 12023d48 f i StdInInputSource.obj
 0001:00022d63       ??_EStdInInputSource@xercesc_3_1@@UAEPAXI@Z 12023d63 f i StdInInputSource.obj
 0001:00022dff       ??0StdInInputSource@xercesc_3_1@@QAE@QAVMemoryManager@1@@Z 12023dff f i StdInInputSource.obj
 0001:00022e23       ??1StdInInputSource@xercesc_3_1@@UAE@XZ 12023e23 f i StdInInputSource.obj
 0001:00022e2e       ?makeStream@StdInInputSource@xercesc_3_1@@UBEPAVBinInputStream@2@XZ 12023e2e f   StdInInputSource.obj
 0001:00022ea2       ??_EStdOutFormatTarget@xercesc_3_1@@UAEPAXI@Z 12023ea2 f i StdOutFormatTarget.obj
 0001:00022f3b       ??0StdOutFormatTarget@xercesc_3_1@@QAE@XZ 12023f3b f   StdOutFormatTarget.obj
 0001:00022f44       ??1StdOutFormatTarget@xercesc_3_1@@UAE@XZ 12023f44 f   StdOutFormatTarget.obj
 0001:00022f5a       ?flush@StdOutFormatTarget@xercesc_3_1@@UAEXXZ 12023f5a f   StdOutFormatTarget.obj
 0001:00022f6c       ?writeChars@StdOutFormatTarget@xercesc_3_1@@UAEXQBEKQAVXMLFormatter@2@@Z 12023f6c f   StdOutFormatTarget.obj
 0001:00022fca       ??_EURLInputSource@xercesc_3_1@@UAEPAXI@Z 12023fca f i URLInputSource.obj
 0001:00023060       ?getChildNodes@DOMAttrImpl@xercesc_3_1@@UBEPAVDOMNodeList@2@XZ 12024060 f i DOMAttrImpl.obj
 0001:00023060       ?getChildNodes@DOMDocumentFragmentImpl@xercesc_3_1@@UBEPAVDOMNodeList@2@XZ 12024060 f i DOMDocumentFragmentImpl.obj
 0001:00023060       ?getChildNodes@DOMDocumentImpl@xercesc_3_1@@UBEPAVDOMNodeList@2@XZ 12024060 f i DOMDocumentImpl.obj
 0001:00023060       ?getChildNodes@DOMDocumentTypeImpl@xercesc_3_1@@UBEPAVDOMNodeList@2@XZ 12024060 f i DOMDocumentTypeImpl.obj
 0001:00023060       ?getChildNodes@DOMElementImpl@xercesc_3_1@@UBEPAVDOMNodeList@2@XZ 12024060 f i DOMElementImpl.obj
 0001:00023060       ?getChildNodes@DOMEntityReferenceImpl@xercesc_3_1@@UBEPAVDOMNodeList@2@XZ 12024060 f i DOMEntityReferenceImpl.obj
 0001:00023060       ?urlSrc@URLInputSource@xercesc_3_1@@QBEABVXMLURL@2@XZ 12024060 f i URLInputSource.obj
 0001:00023064       ??0URLInputSource@xercesc_3_1@@QAE@ABVXMLURL@1@QAVMemoryManager@1@@Z 12024064 f   URLInputSource.obj
 0001:000230b8       ??0URLInputSource@xercesc_3_1@@QAE@QB_W0QAVMemoryManager@1@@Z 120240b8 f   URLInputSource.obj
 0001:00023115       ??0URLInputSource@xercesc_3_1@@QAE@QB_W00QAVMemoryManager@1@@Z 12024115 f   URLInputSource.obj
 0001:00023177       ??0URLInputSource@xercesc_3_1@@QAE@QB_WQBDQAVMemoryManager@1@@Z 12024177 f   URLInputSource.obj
 0001:000231d4       ??0URLInputSource@xercesc_3_1@@QAE@QB_WQBD1QAVMemoryManager@1@@Z 120241d4 f   URLInputSource.obj
 0001:00023236       ??1URLInputSource@xercesc_3_1@@UAE@XZ 12024236 f   URLInputSource.obj
 0001:0002328d       ?makeStream@URLInputSource@xercesc_3_1@@UBEPAVBinInputStream@2@XZ 1202428d f   URLInputSource.obj
 0001:00023295       ??_EWrapper4DOMLSInput@xercesc_3_1@@UAEPAXI@Z 12024295 f i Wrapper4DOMLSInput.obj
 0001:0002332b       ??0DOMLSInput@xercesc_3_1@@IAE@XZ 1202432b f i Wrapper4DOMLSInput.obj
 0001:00023334       ??1DOMLSInput@xercesc_3_1@@UAE@XZ 12024334 f i Wrapper4DOMLSInput.obj
 0001:0002333b       ??_EDOMLSInput@xercesc_3_1@@UAEPAXI@Z 1202433b f i Wrapper4DOMLSInput.obj
 0001:000233c7       ??0DOMLSResourceResolver@xercesc_3_1@@IAE@XZ 120243c7 f i Wrapper4DOMLSInput.obj
 0001:000233d0       ??1DOMLSResourceResolver@xercesc_3_1@@UAE@XZ 120243d0 f i Wrapper4DOMLSInput.obj
 0001:000233d7       ??_EDOMLSResourceResolver@xercesc_3_1@@UAEPAXI@Z 120243d7 f i Wrapper4DOMLSInput.obj
 0001:00023463       ??0Wrapper4DOMLSInput@xercesc_3_1@@QAE@QAVDOMLSInput@1@PAVDOMLSResourceResolver@1@_NQAVMemoryManager@1@@Z 12024463 f   Wrapper4DOMLSInput.obj
 0001:000234d4       ??1Wrapper4DOMLSInput@xercesc_3_1@@UAE@XZ 120244d4 f   Wrapper4DOMLSInput.obj
 0001:000234f8       ?getIssueFatalErrorIfNotFound@Wrapper4DOMLSInput@xercesc_3_1@@UBE_NXZ 120244f8 f   Wrapper4DOMLSInput.obj
 0001:00023500       ?getEncoding@Wrapper4DOMLSInput@xercesc_3_1@@UBEPB_WXZ 12024500 f   Wrapper4DOMLSInput.obj
 0001:00023514       ?getSystemId@Wrapper4DOMLSInput@xercesc_3_1@@UBEPB_WXZ 12024514 f   Wrapper4DOMLSInput.obj
 0001:0002351c       ?getPublicId@Wrapper4DOMLSInput@xercesc_3_1@@UBEPB_WXZ 1202451c f   Wrapper4DOMLSInput.obj
 0001:00023524       ?setIssueFatalErrorIfNotFound@Wrapper4DOMLSInput@xercesc_3_1@@UAEX_N@Z 12024524 f   Wrapper4DOMLSInput.obj
 0001:00023530       ?setEncoding@Wrapper4DOMLSInput@xercesc_3_1@@UAEXQB_W@Z 12024530 f   Wrapper4DOMLSInput.obj
 0001:0002353c       ?setPublicId@Wrapper4DOMLSInput@xercesc_3_1@@UAEXQB_W@Z 1202453c f   Wrapper4DOMLSInput.obj
 0001:00023548       ?setSystemId@Wrapper4DOMLSInput@xercesc_3_1@@UAEXQB_W@Z 12024548 f   Wrapper4DOMLSInput.obj
 0001:00023554       ?makeStream@Wrapper4DOMLSInput@xercesc_3_1@@UBEPAVBinInputStream@2@XZ 12024554 f   Wrapper4DOMLSInput.obj
 0001:000236f4       ??_EWrapper4InputSource@xercesc_3_1@@UAEPAXI@Z 120246f4 f i Wrapper4InputSource.obj
 0001:0002377c       ??0Wrapper4InputSource@xercesc_3_1@@QAE@QAVInputSource@1@_NQAVMemoryManager@1@@Z 1202477c f   Wrapper4InputSource.obj
 0001:000237d4       ??1Wrapper4InputSource@xercesc_3_1@@UAE@XZ 120247d4 f   Wrapper4InputSource.obj
 0001:000237f8       ?getIssueFatalErrorIfNotFound@Wrapper4InputSource@xercesc_3_1@@UBE_NXZ 120247f8 f   Wrapper4InputSource.obj
 0001:00023800       ?getEncoding@Wrapper4InputSource@xercesc_3_1@@UBEPB_WXZ 12024800 f   Wrapper4InputSource.obj
 0001:00023808       ?getSystemId@Wrapper4InputSource@xercesc_3_1@@UBEPB_WXZ 12024808 f   Wrapper4InputSource.obj
 0001:00023810       ?getPublicId@Wrapper4InputSource@xercesc_3_1@@UBEPB_WXZ 12024810 f   Wrapper4InputSource.obj
 0001:00023818       ?setIssueFatalErrorIfNotFound@Wrapper4InputSource@xercesc_3_1@@UAEX_N@Z 12024818 f   Wrapper4InputSource.obj
 0001:00023824       ?setEncoding@Wrapper4InputSource@xercesc_3_1@@UAEXQB_W@Z 12024824 f   Wrapper4InputSource.obj
 0001:00023830       ?setPublicId@Wrapper4InputSource@xercesc_3_1@@UAEXQB_W@Z 12024830 f   Wrapper4InputSource.obj
 0001:0002383c       ?setSystemId@Wrapper4InputSource@xercesc_3_1@@UAEXQB_W@Z 1202483c f   Wrapper4InputSource.obj
 0001:00023848       ?release@DOMImplementationListImpl@xercesc_3_1@@UAEXXZ 12024848 f   DOMImplementationListImpl.obj
 0001:00023848       ?release@DOMLSInputImpl@xercesc_3_1@@UAEXXZ 12024848 f   DOMLSInputImpl.obj
 0001:00023848       ?release@DOMLSOutputImpl@xercesc_3_1@@UAEXXZ 12024848 f   DOMLSOutputImpl.obj
 0001:00023848       ?release@DOMLSSerializerImpl@xercesc_3_1@@UAEXXZ 12024848 f   DOMLSSerializerImpl.obj
 0001:00023848       ?release@DOMStringListImpl@xercesc_3_1@@UAEXXZ 12024848 f   DOMStringListImpl.obj
 0001:00023848       ?release@DOMXPathExpressionImpl@xercesc_3_1@@UAEXXZ 12024848 f   DOMXPathExpressionImpl.obj
 0001:00023848       ?release@DOMXPathNSResolverImpl@xercesc_3_1@@UAEXXZ 12024848 f   DOMXPathNSResolverImpl.obj
 0001:00023848       ?release@DOMXPathResultImpl@xercesc_3_1@@UAEXXZ 12024848 f   DOMXPathResultImpl.obj
 0001:00023848       ?release@Wrapper4InputSource@xercesc_3_1@@UAEXXZ 12024848 f   Wrapper4InputSource.obj
 0001:00023853       ??_FXMLAttDef@xercesc_3_1@@QAEXXZ 12024853 f i XMLAttDef.obj
 0001:00023863       ??_EXMLAttDef@xercesc_3_1@@UAEPAXI@Z 12024863 f i XMLAttDef.obj
 0001:000238f9       ?getValidationConstraintFatal@XMLScanner@xercesc_3_1@@QBE_NXZ 120248f9 f i XMLValidator.obj
 0001:000238f9       ?isExternal@XMLAttDef@xercesc_3_1@@QBE_NXZ 120248f9 f i XMLAttDef.obj
 0001:000238fd       ?setEnumeration@XMLAttDef@xercesc_3_1@@QAEXQB_W@Z 120248fd f i XMLAttDef.obj
 0001:0002392b       ?setContentSpec@XercesGroupInfo@xercesc_3_1@@QAEXQAVContentSpecNode@2@@Z 1202492b f i XMLGrammarPoolImpl.obj
 0001:0002392b       ?setFilter@DOMLSParserImpl@xercesc_3_1@@UAEXQAVDOMLSParserFilter@2@@Z 1202492b f i DOMLSParserImpl.obj
 0001:0002392b       ?setFilter@DOMLSSerializerImpl@xercesc_3_1@@UAEXPAVDOMLSSerializerFilter@2@@Z 1202492b f i DOMLSSerializerImpl.obj
 0001:0002392b       ?setFinalSet@ComplexTypeInfo@xercesc_3_1@@QAEXH@Z 1202492b f i XMLElementDecl.obj
 0001:0002392b       ?setGrammar@DTDValidator@xercesc_3_1@@UAEXPAVGrammar@2@@Z 1202492b f i DGXMLScanner.obj
 0001:0002392b       ?setId@XMLAttDef@xercesc_3_1@@QAEXK@Z 1202492b f i XMLAttDef.obj
 0001:0002392b       ?setType@DOMErrorImpl@xercesc_3_1@@QAEXPB_W@Z 1202492b f i DOMLSParserImpl.obj
 0001:0002392b       ?setValidatingMemberType@ValidationContextImpl@xercesc_3_1@@UAEXPAVDatatypeValidator@2@@Z 1202492b f i ValidationContextImpl.obj
 0001:00023938       ?setValue@XMLAttDef@xercesc_3_1@@QAEXQB_W@Z 12024938 f i XMLAttDef.obj
 0001:00023966       ?setExternalAttDeclaration@XMLAttDef@xercesc_3_1@@QAEX_N@Z 12024966 f i XMLAttDef.obj
 0001:00023966       ?setValidationConstraintFatal@XMLScanner@xercesc_3_1@@QAEX_N@Z 12024966 f i XMLValidator.obj
 0001:00023966       ?toCheckIdRefList@ValidationContextImpl@xercesc_3_1@@UAEX_N@Z 12024966 f i ValidationContextImpl.obj
 0001:00023973       ?getAttTypeString@XMLAttDef@xercesc_3_1@@SAPB_WW4AttTypes@12@QAVMemoryManager@2@@Z 12024973 f   XMLAttDef.obj
 0001:000239af       ?getDefAttTypeString@XMLAttDef@xercesc_3_1@@SAPB_WW4DefAttTypes@12@QAVMemoryManager@2@@Z 120249af f   XMLAttDef.obj
 0001:000239eb       ??1XMLAttDef@xercesc_3_1@@UAE@XZ 120249eb f   XMLAttDef.obj
 0001:00023a34       ??0XMLAttDef@xercesc_3_1@@IAE@W4AttTypes@01@W4DefAttTypes@01@QAVMemoryManager@1@@Z 12024a34 f   XMLAttDef.obj
 0001:00023a6a       ??0XMLAttDef@xercesc_3_1@@IAE@QB_WW4AttTypes@01@W4DefAttTypes@01@0QAVMemoryManager@1@@Z 12024a6a f   XMLAttDef.obj
 0001:00023af6       ?cleanUp@XMLAttDef@xercesc_3_1@@AAEXXZ 12024af6 f   XMLAttDef.obj
 0001:00023b1f       ?getProtoType@XMLAttDef@xercesc_3_1@@UBEPAVXProtoType@2@XZ 12024b1f f   XMLAttDef.obj
 0001:00023b25       ?serialize@XMLAttDef@xercesc_3_1@@UAEXAAVXSerializeEngine@2@@Z 12024b25 f   XMLAttDef.obj
 0001:00023bff       ??_FXMLAttDefList@xercesc_3_1@@QAEXXZ 12024bff f i XMLAttDefList.obj
 0001:00023c0e       ??_EXMLAttDefList@xercesc_3_1@@UAEPAXI@Z 12024c0e f i XMLAttDefList.obj
 0001:00023c0e       ??_EXMLDTDDescription@xercesc_3_1@@UAEPAXI@Z 12024c0e f i XMLDTDDescription.obj
 0001:00023c0e       ??_EXMLGrammarDescription@xercesc_3_1@@UAEPAXI@Z 12024c0e f i XMLGrammarDescription.obj
 0001:00023c0e       ??_EXMLSchemaDescription@xercesc_3_1@@UAEPAXI@Z 12024c0e f i XMLSchemaDescription.obj
 0001:00023ca8       ??0XMLAttDefList@xercesc_3_1@@IAE@QAVMemoryManager@1@@Z 12024ca8 f i XMLAttDefList.obj
 0001:00023cbd       ?getProtoType@XMLAttDefList@xercesc_3_1@@UBEPAVXProtoType@2@XZ 12024cbd f   XMLAttDefList.obj
 0001:00023cc3       ?getFinal@XSTypeDefinition@xercesc_3_1@@QBEFXZ 12024cc3 f i XMLAttr.obj
 0001:00023cc8       ?getAttributeUses@XSComplexTypeDefinition@xercesc_3_1@@QAEPAV?$RefVectorOf@VXSAttributeUse@xercesc_3_1@@@2@XZ 12024cc8 f i PSVIElement.obj
 0001:00023cc8       ?getAttributes@DOMElementImpl@xercesc_3_1@@UBEPAVDOMNamedNodeMap@2@XZ 12024cc8 f i DOMElementImpl.obj
 0001:00023cc8       ?getBlockSet@SchemaElementDecl@xercesc_3_1@@QBEHXZ 12024cc8 f i XMLElementDecl.obj
 0001:00023cc8       ?getCurrentDatatypeValidator@SchemaValidator@xercesc_3_1@@QBEPAVDatatypeValidator@2@XZ 12024cc8 f i IGXMLScanner.obj
 0001:00023cc8       ?getCurrentNode@AbstractDOMParser@xercesc_3_1@@IAEPAVDOMNode@2@XZ 12024cc8 f i XSAnnotation.obj
 0001:00023cc8       ?getErrorCount@XMLScanner@xercesc_3_1@@QAEHXZ 12024cc8 f i XMLValidator.obj
 0001:00023cc8       ?getField@FieldMatcher@xercesc_3_1@@QBEPAVIC_Field@2@XZ 12024cc8 f i XMLElementDecl.obj
 0001:00023cc8       ?getFullName@DTDAttDef@xercesc_3_1@@UBEPB_WXZ 12024cc8 f i XMLElementDecl.obj
 0001:00023cc8       ?getMemberTypeDefinition@PSVIAttribute@xercesc_3_1@@UAEPAVXSSimpleTypeDefinition@2@XZ 12024cc8 f i PSVIAttribute.obj
 0001:00023cc8       ?getMemberTypeDefinition@PSVIElement@xercesc_3_1@@UAEPAVXSSimpleTypeDefinition@2@XZ 12024cc8 f i PSVIElement.obj
 0001:00023cc8       ?getMemoryManager@XMLEntityDecl@xercesc_3_1@@QBEPAVMemoryManager@2@XZ 12024cc8 f i XMLDTDDescription.obj
 0001:00023cc8       ?getName@DOMDocumentTypeImpl@xercesc_3_1@@UBEPB_WXZ 12024cc8 f i DOMDocumentTypeImpl.obj
 0001:00023cc8       ?getNamespaceURI@DOMAttrNSImpl@xercesc_3_1@@UBEPB_WXZ 12024cc8 f i DOMAttrNSImpl.obj
 0001:00023cc8       ?getNodeName@DOMDocumentTypeImpl@xercesc_3_1@@UBEPB_WXZ 12024cc8 f i DOMDocumentTypeImpl.obj
 0001:00023cc8       ?getNodeName@DOMEntityReferenceImpl@xercesc_3_1@@UBEPB_WXZ 12024cc8 f i DOMEntityReferenceImpl.obj
 0001:00023cc8       ?getPSVIScope@SchemaAttDef@xercesc_3_1@@QBE?AW4PSVIScope@PSVIDefs@2@XZ 12024cc8 f i XMLElementDecl.obj
 0001:00023cc8       ?getPattern@DatatypeValidator@xercesc_3_1@@IBEPB_WXZ 12024cc8 f i XMLAttr.obj
 0001:00023cc8       ?getRelatedNode@DOMLocatorImpl@xercesc_3_1@@UBEPAVDOMNode@2@XZ 12024cc8 f i DOMLSParserImpl.obj
 0001:00023cc8       ?getSubstitutionGroupAffiliation@XSElementDeclaration@xercesc_3_1@@QBEPAV12@XZ 12024cc8 f i PSVIElement.obj
 0001:00023cc8       ?getSystemId@DOMEntityImpl@xercesc_3_1@@UBEPB_WXZ 12024cc8 f i DOMEntityImpl.obj
 0001:00023cc8       ?getValidSubstitutionGroups@SchemaGrammar@xercesc_3_1@@QBEPAV?$RefHash2KeysTableOf@V?$ValueVectorOf@PAVSchemaElementDecl@xercesc_3_1@@@xercesc_3_1@@UStringHasher@2@@2@XZ 12024cc8 f i XMLGrammarPoolImpl.obj
 0001:00023cc8       ?getVariety@XSSimpleTypeDefinition@xercesc_3_1@@QBE?AW4VARIETY@12@XZ 12024cc8 f i XMLAttr.obj
 0001:00023ccc       ?getPrimitiveType@XSSimpleTypeDefinition@xercesc_3_1@@QAEPAV12@XZ 12024ccc f i XMLAttr.obj
 0001:00023cd9       ?getItemType@XSSimpleTypeDefinition@xercesc_3_1@@QAEPAV12@XZ 12024cd9 f i XMLAttr.obj
 0001:00023ce6       ?getAttWildCard@SchemaElementDecl@xercesc_3_1@@QAEPAVSchemaAttDef@2@XZ 12024ce6 f i XMLElementDecl.obj
 0001:00023ce6       ?getAttWildCard@SchemaElementDecl@xercesc_3_1@@QBEPBVSchemaAttDef@2@XZ 12024ce6 f i XMLElementDecl.obj
 0001:00023ce6       ?getBaseComplexTypeInfo@ComplexTypeInfo@xercesc_3_1@@QBEPAV12@XZ 12024ce6 f i XMLElementDecl.obj
 0001:00023ce6       ?getBaseURI@DOMEntityImpl@xercesc_3_1@@UBEPB_WXZ 12024ce6 f i DOMEntityImpl.obj
 0001:00023ce6       ?getContentLeafNameTypeVector@DFAContentModel@xercesc_3_1@@UBEPAVContentLeafNameTypeVector@2@XZ 12024ce6 f i DFAContentModel.obj
 0001:00023ce6       ?getDocumentURI@DOMDocumentImpl@xercesc_3_1@@UBEPB_WXZ 12024ce6 f i DOMDocumentImpl.obj
 0001:00023ce6       ?getInternalSubset@DOMDocumentTypeImpl@xercesc_3_1@@UBEPB_WXZ 12024ce6 f i DOMDocumentTypeImpl.obj
 0001:00023ce6       ?getLength@AbstractStringValidator@xercesc_3_1@@QBEKXZ 12024ce6 f i XMLGrammarPoolImpl.obj
 0001:00023ce6       ?getMemberTypes@XSSimpleTypeDefinition@xercesc_3_1@@QBEPAV?$RefVectorOf@VXSSimpleTypeDefinition@xercesc_3_1@@@2@XZ 12024ce6 f i XMLAttr.obj
 0001:00023ce6       ?getXMLEntityResolver@SAXParser@xercesc_3_1@@QAEPAVXMLEntityResolver@2@XZ 12024ce6 f i SAX2XMLReaderImpl.obj
 0001:00023ce6       ?getXMLEntityResolver@SAXParser@xercesc_3_1@@QBEPBVXMLEntityResolver@2@XZ 12024ce6 f i SAX2XMLReaderImpl.obj
 0001:00023ce6       ?getXMLNSNamespaceId@XMLScanner@xercesc_3_1@@QBEIXZ 12024ce6 f i XMLValidator.obj
 0001:00023cea       ?getAnnotations@SchemaGrammar@xercesc_3_1@@QAEPAV?$RefHashTableOf@VXSAnnotation@xercesc_3_1@@UPtrHasher@2@@2@XZ 12024cea f i XMLGrammarPoolImpl.obj
 0001:00023cea       ?getAnnotations@SchemaGrammar@xercesc_3_1@@QBEPBV?$RefHashTableOf@VXSAnnotation@xercesc_3_1@@UPtrHasher@2@@2@XZ 12024cea f i XMLGrammarPoolImpl.obj
 0001:00023cea       ?getBaseAttDecl@SchemaAttDef@xercesc_3_1@@QAEPAV12@XZ 12024cea f i XMLElementDecl.obj
 0001:00023cea       ?getBaseAttDecl@SchemaAttDef@xercesc_3_1@@QBEPBV12@XZ 12024cea f i XMLElementDecl.obj
 0001:00023cea       ?getBaseDatatypeValidator@ComplexTypeInfo@xercesc_3_1@@QBEPAVDatatypeValidator@2@XZ 12024cea f i XMLElementDecl.obj
 0001:00023cea       ?getLexicalPattern@XSSimpleTypeDefinition@xercesc_3_1@@QAEPAV?$RefArrayVectorOf@_W@2@XZ 12024cea f i XMLAttr.obj
 0001:00023cea       ?getLocalName@DOMElementNSImpl@xercesc_3_1@@UBEPB_WXZ 12024cea f i DOMElementNSImpl.obj
 0001:00023cea       ?getPublicId@DOMDocumentTypeImpl@xercesc_3_1@@UBEPB_WXZ 12024cea f i DOMDocumentTypeImpl.obj
 0001:00023cea       ?getTypeUri@DatatypeValidator@xercesc_3_1@@QBEPB_WXZ 12024cea f i XMLAttr.obj
 0001:00023cea       ?getUnknownNamespaceId@XMLScanner@xercesc_3_1@@QBEIXZ 12024cea f i XMLValidator.obj
 0001:00023cea       ?getXmlEncoding@DOMEntityImpl@xercesc_3_1@@UBEPB_WXZ 12024cea f i DOMEntityImpl.obj
 0001:00023cee       ?getBaseURI@DOMDocumentImpl@xercesc_3_1@@UBEPB_WXZ 12024cee f i DOMDocumentImpl.obj
 0001:00023cee       ?getComplexTypeInfo@SchemaElementDecl@xercesc_3_1@@QBEPAVComplexTypeInfo@2@XZ 12024cee f i XMLElementDecl.obj
 0001:00023cee       ?getDocumentHandler@SAXParser@xercesc_3_1@@QAEPAVDocumentHandler@2@XZ 12024cee f i SAX2XMLReaderImpl.obj
 0001:00023cee       ?getDocumentHandler@SAXParser@xercesc_3_1@@QBEPBVDocumentHandler@2@XZ 12024cee f i SAX2XMLReaderImpl.obj
 0001:00023cee       ?getElements@DOMDocumentTypeImpl@xercesc_3_1@@UBEPAVDOMNamedNodeMap@2@XZ 12024cee f i DOMDocumentTypeImpl.obj
 0001:00023cee       ?getEmptyNamespaceId@XMLScanner@xercesc_3_1@@QBEIXZ 12024cee f i XMLValidator.obj
 0001:00023cee       ?getGrammarDescription@SchemaGrammar@xercesc_3_1@@UBEPAVXMLGrammarDescription@2@XZ 12024cee f i XMLGrammarPoolImpl.obj
 0001:00023cee       ?getInputEncoding@DOMEntityImpl@xercesc_3_1@@UBEPB_WXZ 12024cee f i DOMEntityImpl.obj
 0001:00023cee       ?getMultiValueFacets@XSSimpleTypeDefinition@xercesc_3_1@@QAEPAV?$RefVectorOf@VXSMultiValueFacet@xercesc_3_1@@@2@XZ 12024cee f i XMLAttr.obj
 0001:00023cee       ?getNamespaceList@SchemaAttDef@xercesc_3_1@@QBEPAV?$ValueVectorOf@I@2@XZ 12024cee f i XMLElementDecl.obj
 0001:00023cee       ?getNamespaceURI@DOMElementNSImpl@xercesc_3_1@@UBEPB_WXZ 12024cee f i DOMElementNSImpl.obj
 0001:00023cee       ?getParticle@XSComplexTypeDefinition@xercesc_3_1@@QBEPAVXSParticle@2@XZ 12024cee f i PSVIElement.obj
 0001:00023cee       ?getRecursingTypeNames@SchemaInfo@xercesc_3_1@@QBEPAV?$ValueVectorOf@PB_W@2@XZ 12024cee f i IGXMLScanner.obj
 0001:00023cee       ?getSchemaInformation@PSVIElement@xercesc_3_1@@QAEPAVXSModel@2@XZ 12024cee f i PSVIElement.obj
 0001:00023cee       ?getTypeLocalName@DatatypeValidator@xercesc_3_1@@QBEPB_WXZ 12024cee f i XMLAttr.obj
 0001:00023cee       ?getTypeUri@ComplexTypeInfo@xercesc_3_1@@QBEPB_WXZ 12024cee f i XMLElementDecl.obj
 0001:00023cee       ?getXmlEncoding@DOMDocumentImpl@xercesc_3_1@@UBEPB_WXZ 12024cee f i DOMDocumentImpl.obj
 0001:00023cf2       ?setDatatypeValidator@ComplexTypeInfo@xercesc_3_1@@QAEXQAVDatatypeValidator@2@@Z 12024cf2 f i XMLElementDecl.obj
 0001:00023cf2       ?setPrimitiveType@XSSimpleTypeDefinition@xercesc_3_1@@AAEXQAV12@@Z 12024cf2 f i XMLAttr.obj
 0001:00023cff       ?getAnnotation@XSElementDeclaration@xercesc_3_1@@QBEPAVXSAnnotation@2@XZ 12024cff f i PSVIElement.obj
 0001:00023cff       ?getAttName@SchemaAttDef@xercesc_3_1@@QBEPAVQName@2@XZ 12024cff f i XMLElementDecl.obj
 0001:00023cff       ?getAttributeDeclaration@PSVIAttribute@xercesc_3_1@@QAEPAVXSAttributeDeclaration@2@XZ 12024cff f i PSVIAttribute.obj
 0001:00023cff       ?getBaseURI@DOMEntityReferenceImpl@xercesc_3_1@@UBEPB_WXZ 12024cff f i DOMEntityReferenceImpl.obj
 0001:00023cff       ?getDatatypeValidator@XSSimpleTypeDefinition@xercesc_3_1@@QBEPAVDatatypeValidator@2@XZ 12024cff f i XMLAttr.obj
 0001:00023cff       ?getDefaultAttributes@DOMElementImpl@xercesc_3_1@@UBEPAVDOMAttrMapImpl@2@XZ 12024cff f i DOMElementImpl.obj
 0001:00023cff       ?getElementDeclaration@PSVIElement@xercesc_3_1@@QAEPAVXSElementDeclaration@2@XZ 12024cff f i PSVIElement.obj
 0001:00023cff       ?getEntities@DOMDocumentTypeImpl@xercesc_3_1@@UBEPAVDOMNamedNodeMap@2@XZ 12024cff f i DOMDocumentTypeImpl.obj
 0001:00023cff       ?getLocalName@DOMAttrNSImpl@xercesc_3_1@@UBEPB_WXZ 12024cff f i DOMAttrNSImpl.obj
 0001:00023cff       ?getMiscFlags@SchemaElementDecl@xercesc_3_1@@QBEHXZ 12024cff f i XMLElementDecl.obj
 0001:00023cff       ?getNotationName@DOMEntityImpl@xercesc_3_1@@UBEPB_WXZ 12024cff f i DOMEntityImpl.obj
 0001:00023cff       ?getRegex@DatatypeValidator@xercesc_3_1@@IBEPAVRegularExpression@2@XZ 12024cff f i XMLAttr.obj
 0001:00023cff       ?getSimpleType@XSComplexTypeDefinition@xercesc_3_1@@QBEPAVXSSimpleTypeDefinition@2@XZ 12024cff f i PSVIElement.obj
 0001:00023cff       ?getTypeName@ComplexTypeInfo@xercesc_3_1@@QBEPA_WXZ 12024cff f i XMLElementDecl.obj
 0001:00023cff       ?getURI@DOMLocatorImpl@xercesc_3_1@@UBEPB_WXZ 12024cff f i DOMLSParserImpl.obj
 0001:00023cff       ?getValidationContext@SchemaGrammar@xercesc_3_1@@QBEPAVValidationContext@2@XZ 12024cff f i XMLGrammarPoolImpl.obj
 0001:00023d03       ??1ValidationContext@xercesc_3_1@@UAE@XZ 12024d03 f i XMLAttr.obj
 0001:00023d0a       ??0ValidationContext@xercesc_3_1@@IAE@QAVMemoryManager@1@@Z 12024d0a f i XMLAttr.obj
 0001:00023d1f       ??_FValidationContext@xercesc_3_1@@QAEXXZ 12024d1f f i XMLAttr.obj
 0001:00023d2e       ??_EValidationContext@xercesc_3_1@@UAEPAXI@Z 12024d2e f i XMLAttr.obj
 0001:00023dc8       ?getWSFacet@DatatypeValidator@xercesc_3_1@@QBEFXZ 12024dc8 f i XMLAttr.obj
 0001:00023dcd       ?containsTypeWithId@XercesAttGroupInfo@xercesc_3_1@@QBE_NXZ 12024dcd f i XMLGrammarPoolImpl.obj
 0001:00023dcd       ?getAnonymous@ComplexTypeInfo@xercesc_3_1@@QBE_NXZ 12024dcd f i XMLElementDecl.obj
 0001:00023dcd       ?getAnonymous@DatatypeValidator@xercesc_3_1@@QBE_NXZ 12024dcd f i XMLAttr.obj
 0001:00023dcd       ?getCheckElementConsistency@XercesGroupInfo@xercesc_3_1@@QBE_NXZ 12024dcd f i XMLGrammarPoolImpl.obj
 0001:00023dcd       ?getDeclared@XMLRefInfo@xercesc_3_1@@QBE_NXZ 12024dcd f i XMLGrammarPoolImpl.obj
 0001:00023dcd       ?getExitOnFirstFatal@XSDErrorReporter@xercesc_3_1@@QBE_NXZ 12024dcd f i IGXMLScanner.obj
 0001:00023dd1       ?getContentHandler@SAX2XMLReaderImpl@xercesc_3_1@@UBEPAVContentHandler@2@XZ 12024dd1 f i SAX2XMLReaderImpl.obj
 0001:00023dd1       ?getDatatypeValidator@ComplexTypeInfo@xercesc_3_1@@QBEPAVDatatypeValidator@2@XZ 12024dd1 f i XMLElementDecl.obj
 0001:00023dd1       ?getEntityResolver@SAXParser@xercesc_3_1@@QAEPAVEntityResolver@2@XZ 12024dd1 f i SAX2XMLReaderImpl.obj
 0001:00023dd1       ?getEntityResolver@SAXParser@xercesc_3_1@@QBEPBVEntityResolver@2@XZ 12024dd1 f i SAX2XMLReaderImpl.obj
 0001:00023dd1       ?getGrammarResolver@AbstractDOMParser@xercesc_3_1@@IBEPAVGrammarResolver@2@XZ 12024dd1 f i XSAnnotation.obj
 0001:00023dd1       ?getMemoryManager@DatatypeValidator@xercesc_3_1@@QBEPAVMemoryManager@2@XZ 12024dd1 f i XMLAttr.obj
 0001:00023dd1       ?getPrefix@DOMElementNSImpl@xercesc_3_1@@UBEPB_WXZ 12024dd1 f i DOMElementNSImpl.obj
 0001:00023dd1       ?getSystemId@DOMDocumentTypeImpl@xercesc_3_1@@UBEPB_WXZ 12024dd1 f i DOMDocumentTypeImpl.obj
 0001:00023dd1       ?getXMLNamespaceId@XMLScanner@xercesc_3_1@@QBEIXZ 12024dd1 f i XMLValidator.obj
 0001:00023dd1       ?getXmlVersion@DOMDocumentImpl@xercesc_3_1@@UBEPB_WXZ 12024dd1 f i DOMDocumentImpl.obj
 0001:00023dd1       ?getXmlVersion@DOMEntityImpl@xercesc_3_1@@UBEPB_WXZ 12024dd1 f i DOMEntityImpl.obj
 0001:00023dd5       ?getAbstract@ComplexTypeInfo@xercesc_3_1@@QBE_NXZ 12024dd5 f i XMLElementDecl.obj
 0001:00023dd5       ?getFinite@DatatypeValidator@xercesc_3_1@@QBE_NXZ 12024dd5 f i XMLAttr.obj
 0001:00023dd5       ?getUsed@XMLRefInfo@xercesc_3_1@@QBE_NXZ 12024dd5 f i XMLGrammarPoolImpl.obj
 0001:00023dd9       ?getAdoptContentSpec@ComplexTypeInfo@xercesc_3_1@@QBE_NXZ 12024dd9 f i XMLElementDecl.obj
 0001:00023dd9       ?getBounded@DatatypeValidator@xercesc_3_1@@QBE_NXZ 12024dd9 f i XMLAttr.obj
 0001:00023ddd       ?containsAttWithTypeId@ComplexTypeInfo@xercesc_3_1@@QBE_NXZ 12024ddd f i XMLElementDecl.obj
 0001:00023ddd       ?getNumeric@DatatypeValidator@xercesc_3_1@@QBE_NXZ 12024ddd f i XMLAttr.obj
 0001:00023de1       ?setWhiteSpace@DatatypeValidator@xercesc_3_1@@IAEXF@Z 12024de1 f i XMLAttr.obj
 0001:00023df0       ?setFacetsDefined@DatatypeValidator@xercesc_3_1@@IAEXH@Z 12024df0 f i XMLAttr.obj
 0001:00023dfd       ?setFixed@DatatypeValidator@xercesc_3_1@@IAEXH@Z 12024dfd f i XMLAttr.obj
 0001:00023e0a       ?setPattern@DatatypeValidator@xercesc_3_1@@IAEXPB_W@Z 12024e0a f i XMLAttr.obj
 0001:00023e7d       ?setMiscFlags@SchemaElementDecl@xercesc_3_1@@QAEXH@Z 12024e7d f i XMLElementDecl.obj
 0001:00023e7d       ?setRegex@DatatypeValidator@xercesc_3_1@@IAEXQAVRegularExpression@2@@Z 12024e7d f i XMLAttr.obj
 0001:00023e7d       ?setURI@DOMLocatorImpl@xercesc_3_1@@QAEXQB_W@Z 12024e7d f i DOMLSParserImpl.obj
 0001:00023e8a       ?setAnonymous@ComplexTypeInfo@xercesc_3_1@@QAEXXZ 12024e8a f i XMLElementDecl.obj
 0001:00023e8a       ?setAnonymous@DatatypeValidator@xercesc_3_1@@QAEXXZ 12024e8a f i XMLAttr.obj
 0001:00023e8f       ?setAttributes@XMLSchemaDescriptionImpl@xercesc_3_1@@UAEXQAVXMLAttDef@2@@Z 12024e8f f i XMLSchemaDescriptionImpl.obj
 0001:00023e8f       ?setBaseGroup@XercesGroupInfo@xercesc_3_1@@QAEXQAV12@@Z 12024e8f f i XMLGrammarPoolImpl.obj
 0001:00023e8f       ?setBaseType@XSComplexTypeDefinition@xercesc_3_1@@AAEXQAVXSTypeDefinition@2@@Z 12024e8f f i PSVIElement.obj
 0001:00023e8f       ?setComplexTypeRegistry@SchemaGrammar@xercesc_3_1@@QAEXQAV?$RefHashTableOf@VComplexTypeInfo@xercesc_3_1@@UStringHasher@2@@2@@Z 12024e8f f i XMLGrammarPoolImpl.obj
 0001:00023e8f       ?setContentType@ComplexTypeInfo@xercesc_3_1@@QAEXH@Z 12024e8f f i XMLElementDecl.obj
 0001:00023e8f       ?setDTDHandler@SAX2XMLFilterImpl@xercesc_3_1@@UAEXQAVDTDHandler@2@@Z 12024e8f f i SAX2XMLFilterImpl.obj
 0001:00023e8f       ?setGrammarResolver@SchemaValidator@xercesc_3_1@@QAEXPAVGrammarResolver@2@@Z 12024e8f f i IGXMLScanner.obj
 0001:00023e8f       ?setOrdered@DatatypeValidator@xercesc_3_1@@IAEXW4ORDERING@XSSimpleTypeDefinition@2@@Z 12024e8f f i XMLAttr.obj
 0001:00023e8f       ?setPSVIScope@SchemaElementDecl@xercesc_3_1@@QAEXW4PSVIScope@PSVIDefs@2@@Z 12024e8f f i XMLElementDecl.obj
 0001:00023e8f       ?setScanner@ValidationContextImpl@xercesc_3_1@@UAEXPAVXMLScanner@2@@Z 12024e8f f i ValidationContextImpl.obj
 0001:00023e8f       ?setValidationAttempted@PSVIItem@xercesc_3_1@@QAEXW4ASSESSMENT_TYPE@12@@Z 12024e8f f i PSVIItem.obj
 0001:00023e9c       ?setAbstract@ComplexTypeInfo@xercesc_3_1@@QAEX_N@Z 12024e9c f i XMLElementDecl.obj
 0001:00023e9c       ?setFinite@DatatypeValidator@xercesc_3_1@@IAEX_N@Z 12024e9c f i XMLAttr.obj
 0001:00023e9c       ?setUsed@XMLRefInfo@xercesc_3_1@@QAEX_N@Z 12024e9c f i XMLGrammarPoolImpl.obj
 0001:00023ea9       ?setAdoptContentSpec@ComplexTypeInfo@xercesc_3_1@@QAEX_N@Z 12024ea9 f i XMLElementDecl.obj
 0001:00023ea9       ?setBounded@DatatypeValidator@xercesc_3_1@@IAEX_N@Z 12024ea9 f i XMLAttr.obj
 0001:00023eb6       ?setAttWithTypeId@ComplexTypeInfo@xercesc_3_1@@QAEX_N@Z 12024eb6 f i XMLElementDecl.obj
 0001:00023eb6       ?setNumeric@DatatypeValidator@xercesc_3_1@@IAEX_N@Z 12024eb6 f i XMLAttr.obj
 0001:00023ec3       ?compare@AbstractStringValidator@xercesc_3_1@@UAEHQB_W0QAVMemoryManager@2@@Z 12024ec3 f i AbstractStringValidator.obj
 0001:00023ec3       ?compare@AnySimpleTypeDatatypeValidator@xercesc_3_1@@UAEHQB_W0QAVMemoryManager@2@@Z 12024ec3 f i AnySimpleTypeDatatypeValidator.obj
 0001:00023ec3       ?compare@DatatypeValidator@xercesc_3_1@@UAEHQB_W0QAVMemoryManager@2@@Z 12024ec3 f i XMLAttr.obj
 0001:00023ed7       ?isSubstitutableBy@DatatypeValidator@xercesc_3_1@@UAE_NQBV12@@Z 12024ed7 f i XMLAttr.obj
 0001:00023ef4       ??_FXMLAttr@xercesc_3_1@@QAEXXZ 12024ef4 f i XMLAttr.obj
 0001:00023f00       ??1XMLAttr@xercesc_3_1@@QAE@XZ 12024f00 f i XMLAttr.obj
 0001:00023f39       ?getName@XMLAttr@xercesc_3_1@@QBEPB_WXZ 12024f39 f i XMLAttr.obj
 0001:00023f40       ?getPrefix@XMLAttr@xercesc_3_1@@QBEPB_WXZ 12024f40 f i XMLAttr.obj
 0001:00023f47       ?getSpecified@XMLAttr@xercesc_3_1@@QBE_NXZ 12024f47 f i XMLAttr.obj
 0001:00023f4a       ?getURIId@XMLAttr@xercesc_3_1@@QBEIXZ 12024f4a f i XMLAttr.obj
 0001:00023f51       ?set@XMLAttr@xercesc_3_1@@QAEXIQB_W00W4AttTypes@XMLAttDef@2@PAVDatatypeValidator@2@_N@Z 12024f51 f i XMLAttr.obj
 0001:00023f7d       ?set@XMLAttr@xercesc_3_1@@QAEXIQB_W0W4AttTypes@XMLAttDef@2@PAVDatatypeValidator@2@_N@Z 12024f7d f i XMLAttr.obj
 0001:00023fa6       ?setSpecified@XMLAttr@xercesc_3_1@@QAEX_N@Z 12024fa6 f i XMLAttr.obj
 0001:00023fb2       ??0XMLAttr@xercesc_3_1@@QAE@QAVMemoryManager@1@@Z 12024fb2 f   XMLAttr.obj
 0001:00023ffb       ??0XMLAttr@xercesc_3_1@@QAE@IQB_W00W4AttTypes@XMLAttDef@1@_NQAVMemoryManager@1@PAVDatatypeValidator@1@2@Z 12024ffb f   XMLAttr.obj
 0001:00024090       ??0XMLAttr@xercesc_3_1@@QAE@IQB_W0W4AttTypes@XMLAttDef@1@_NQAVMemoryManager@1@PAVDatatypeValidator@1@2@Z 12025090 f   XMLAttr.obj
 0001:00024122       ?getQName@XMLAttr@xercesc_3_1@@QBEPB_WXZ 12025122 f   XMLAttr.obj
 0001:0002412a       ?setName@XMLAttr@xercesc_3_1@@QAEXIQB_W0@Z 1202512a f   XMLAttr.obj
 0001:00024142       ?setURIId@XMLAttr@xercesc_3_1@@QAEXI@Z 12025142 f   XMLAttr.obj
 0001:00024152       ?setValue@XMLAttr@xercesc_3_1@@QAEXQB_W@Z 12025152 f   XMLAttr.obj
 0001:000241b4       ?cleanUp@XMLAttr@xercesc_3_1@@AAEXXZ 120251b4 f   XMLAttr.obj
 0001:000241d1       ?ensureCapacity@XMLBuffer@xercesc_3_1@@AAEXK@Z 120251d1 f   XMLBuffer.obj
 0001:00024275       ??_FXMLBufferMgr@xercesc_3_1@@QAEXXZ 12025275 f i XMLBufferMgr.obj
 0001:00024281       ?getAvailableBufferCount@XMLBufferMgr@xercesc_3_1@@QBEKXZ 12025281 f i XMLBufferMgr.obj
 0001:000242ad       ??0XMLBufferMgr@xercesc_3_1@@QAE@QAVMemoryManager@1@@Z 120252ad f   XMLBufferMgr.obj
 0001:000242e9       ??1XMLBufferMgr@xercesc_3_1@@QAE@XZ 120252e9 f   XMLBufferMgr.obj
 0001:0002435f       ?bidOnBuffer@XMLBufferMgr@xercesc_3_1@@QAEAAVXMLBuffer@2@XZ 1202535f f   XMLBufferMgr.obj
 0001:000243f9       ?releaseBuffer@XMLBufferMgr@xercesc_3_1@@QAEXAAVXMLBuffer@2@@Z 120253f9 f   XMLBufferMgr.obj
 0001:00024448       ??1XMLContentModel@xercesc_3_1@@UAE@XZ 12025448 f i XMLContentModel.obj
 0001:0002444f       ??0XMLContentModel@xercesc_3_1@@IAE@XZ 1202544f f i XMLContentModel.obj
 0001:00024458       ??_EXMLContentModel@xercesc_3_1@@UAEPAXI@Z 12025458 f i XMLContentModel.obj
 0001:000244f2       ??_FXMLElementDecl@xercesc_3_1@@QAEXXZ 120254f2 f i XMLDTDDescription.obj
 0001:000244fe       ?getBaseName@XMLElementDecl@xercesc_3_1@@QAEPA_WXZ 120254fe f i XMLDTDDescription.obj
 0001:000244fe       ?getBaseName@XMLElementDecl@xercesc_3_1@@QBEPB_WXZ 120254fe f i XMLDTDDescription.obj
 0001:00024505       ?getURI@XMLElementDecl@xercesc_3_1@@QBEIXZ 12025505 f i XMLDTDDescription.obj
 0001:0002450c       ?getFullName@XMLElementDecl@xercesc_3_1@@QBEPB_WXZ 1202550c f i XMLDTDDescription.obj
 0001:0002450c       ?getKey@DTDElementDecl@xercesc_3_1@@QBEPB_WXZ 1202550c f i XMLElementDecl.obj
 0001:00024514       ?isDeclared@XMLElementDecl@xercesc_3_1@@QBE_NXZ 12025514 f i XMLDTDDescription.obj
 0001:0002451c       ??_FXMLEntityDecl@xercesc_3_1@@QAEXXZ 1202551c f i XMLDTDDescription.obj
 0001:00024528       ?getHandleMultipleImports@XMLScanner@xercesc_3_1@@QBE_NXZ 12025528 f i XMLValidator.obj
 0001:00024528       ?isExternal@XMLEntityDecl@xercesc_3_1@@QBE_NXZ 12025528 f i XMLDTDDescription.obj
 0001:0002452c       ?hasChildNodes@DOMAttrImpl@xercesc_3_1@@UBE_NXZ 1202552c f i DOMAttrImpl.obj
 0001:0002452c       ?hasChildNodes@DOMDocumentFragmentImpl@xercesc_3_1@@UBE_NXZ 1202552c f i DOMDocumentFragmentImpl.obj
 0001:0002452c       ?hasChildNodes@DOMDocumentImpl@xercesc_3_1@@UBE_NXZ 1202552c f i DOMDocumentImpl.obj
 0001:0002452c       ?hasChildNodes@DOMDocumentTypeImpl@xercesc_3_1@@UBE_NXZ 1202552c f i DOMDocumentTypeImpl.obj
 0001:0002452c       ?hasChildNodes@DOMElementImpl@xercesc_3_1@@UBE_NXZ 1202552c f i DOMElementImpl.obj
 0001:0002452c       ?hasChildNodes@DOMEntityReferenceImpl@xercesc_3_1@@UBE_NXZ 1202552c f i DOMEntityReferenceImpl.obj
 0001:0002452c       ?isUnparsed@XMLEntityDecl@xercesc_3_1@@QBE_NXZ 1202552c f i XMLDTDDescription.obj
 0001:00024534       ?setHandleMultipleImports@XMLScanner@xercesc_3_1@@QAEX_N@Z 12025534 f i XMLValidator.obj
 0001:00024534       ?setIsExternal@XMLEntityDecl@xercesc_3_1@@QAEX_N@Z 12025534 f i XMLDTDDescription.obj
 0001:00024534       ?setStandardUriConformant@ReaderMgr@xercesc_3_1@@QAEX_N@Z 12025534 f i XMLValidator.obj
 0001:00024541       ?setNotationName@XMLEntityDecl@xercesc_3_1@@QAEXQB_W@Z 12025541 f i XMLDTDDescription.obj
 0001:0002456f       ?setPublicId@XMLEntityDecl@xercesc_3_1@@QAEXQB_W@Z 1202556f f i XMLDTDDescription.obj
 0001:0002459d       ?setSystemId@XMLEntityDecl@xercesc_3_1@@QAEXQB_W@Z 1202559d f i XMLDTDDescription.obj
 0001:000245cb       ?setBaseURI@XMLEntityDecl@xercesc_3_1@@QAEXQB_W@Z 120255cb f i XMLDTDDescription.obj
 0001:000245f9       ?setValue@XMLEntityDecl@xercesc_3_1@@QAEXQB_W@Z 120255f9 f i XMLDTDDescription.obj
 0001:00024633       ??_FXMLNotationDecl@xercesc_3_1@@QAEXXZ 12025633 f i XMLDTDDescription.obj
 0001:0002463f       ?setPublicId@XMLNotationDecl@xercesc_3_1@@QAEXQB_W@Z 1202563f f i XMLDTDDescription.obj
 0001:0002466d       ?setSystemId@XMLNotationDecl@xercesc_3_1@@QAEXQB_W@Z 1202566d f i XMLDTDDescription.obj
 0001:0002469b       ?setBaseURI@XMLNotationDecl@xercesc_3_1@@QAEXQB_W@Z 1202569b f i XMLDTDDescription.obj
 0001:000246c9       ??0Grammar@xercesc_3_1@@IAE@XZ 120256c9 f i XMLDTDDescription.obj
 0001:000246d2       ??_FXMLGrammarDescription@xercesc_3_1@@QAEXXZ 120256d2 f i XMLDTDDescription.obj
 0001:000246e1       ??_FXMLDTDDescription@xercesc_3_1@@QAEXXZ 120256e1 f i XMLDTDDescription.obj
 0001:000246f0       ??0XMLDTDDescription@xercesc_3_1@@IAE@QAVMemoryManager@1@@Z 120256f0 f   XMLDTDDescription.obj
 0001:00024705       ?getProtoType@XMLDTDDescription@xercesc_3_1@@UBEPAVXProtoType@2@XZ 12025705 f   XMLDTDDescription.obj
 0001:0002470b       ??_EXMLElementDecl@xercesc_3_1@@UAEPAXI@Z 1202570b f i XMLElementDecl.obj
 0001:000247a1       ??_FUnionDatatypeValidator@xercesc_3_1@@QAEXXZ 120257a1 f i XMLElementDecl.obj
 0001:000247ad       ?newInstance@UnionDatatypeValidator@xercesc_3_1@@UAEPAVDatatypeValidator@2@QAV?$RefHashTableOf@VKVStringPair@xercesc_3_1@@UStringHasher@2@@2@QAV?$RefArrayVectorOf@_W@2@HQAVMemoryManager@2@@Z 120257ad f i XMLElementDecl.obj
 0001:000247f4       ?validate@BooleanDatatypeValidator@xercesc_3_1@@UAEXQB_WQAVValidationContext@2@QAVMemoryManager@2@@Z 120257f4 f i BooleanDatatypeValidator.obj
 0001:000247f4       ?validate@UnionDatatypeValidator@xercesc_3_1@@UAEXQB_WQAVValidationContext@2@QAVMemoryManager@2@@Z 120257f4 f i XMLElementDecl.obj
 0001:0002480b       ?cleanUp@UnionDatatypeValidator@xercesc_3_1@@AAEXXZ 1202580b f i XMLElementDecl.obj
 0001:00024836       ?setEnumeration@UnionDatatypeValidator@xercesc_3_1@@AAEXPAV?$RefArrayVectorOf@_W@2@_N@Z 12025836 f i XMLElementDecl.obj
 0001:0002486a       ?getAttWildCard@ComplexTypeInfo@xercesc_3_1@@QAEPAVSchemaAttDef@2@XZ 1202586a f i XMLElementDecl.obj
 0001:0002486a       ?getAttWildCard@ComplexTypeInfo@xercesc_3_1@@QBEPBVSchemaAttDef@2@XZ 1202586a f i XMLElementDecl.obj
 0001:0002486a       ?getDatatypeValidator@SchemaElementDecl@xercesc_3_1@@QBEPAVDatatypeValidator@2@XZ 1202586a f i XMLElementDecl.obj
 0001:0002486a       ?getMaxInclusive@AbstractNumericFacetValidator@xercesc_3_1@@QBEPAVXMLNumber@2@XZ 1202586a f i AbstractNumericFacetValidator.obj
 0001:0002486a       ?getMemberTypeValidators@UnionDatatypeValidator@xercesc_3_1@@QBEPAV?$RefVectorOf@VDatatypeValidator@xercesc_3_1@@@2@XZ 1202586a f i XMLElementDecl.obj
 0001:0002486a       ?getMemoryManager@AbstractDOMParser@xercesc_3_1@@IBEPAVMemoryManager@2@XZ 1202586a f i XSAnnotation.obj
 0001:0002486a       ?getMinLength@AbstractStringValidator@xercesc_3_1@@QBEKXZ 1202586a f i XMLGrammarPoolImpl.obj
 0001:0002486a       ?getPSVIHandler@SAXParser@xercesc_3_1@@QAEPAVPSVIHandler@2@XZ 1202586a f i SAX2XMLReaderImpl.obj
 0001:0002486a       ?getPSVIHandler@SAXParser@xercesc_3_1@@QBEPBVPSVIHandler@2@XZ 1202586a f i SAX2XMLReaderImpl.obj
 0001:0002486e       ?isAtomic@UnionDatatypeValidator@xercesc_3_1@@UBE_NXZ 1202586e f i XMLElementDecl.obj
 0001:000248a6       ?isSubstitutableBy@UnionDatatypeValidator@xercesc_3_1@@UAE_NQBVDatatypeValidator@2@@Z 120258a6 f i XMLElementDecl.obj
 0001:0002490f       ??_FSchemaAttDef@xercesc_3_1@@QAEXXZ 1202590f f i XMLElementDecl.obj
 0001:0002491b       ?resetNamespaceList@SchemaAttDef@xercesc_3_1@@QAEXXZ 1202591b f i XMLElementDecl.obj
 0001:0002492d       ?setNamespaceList@SchemaAttDef@xercesc_3_1@@QAEXQBV?$ValueVectorOf@I@2@@Z 1202592d f i XMLElementDecl.obj
 0001:000249ea       ?setBaseAttDecl@SchemaAttDef@xercesc_3_1@@QAEXQAV12@@Z 120259ea f i XMLElementDecl.obj
 0001:000249ea       ?setBaseDatatypeValidator@ComplexTypeInfo@xercesc_3_1@@QAEXQAVDatatypeValidator@2@@Z 120259ea f i XMLElementDecl.obj
 0001:000249f7       ?setBlockSet@SchemaElementDecl@xercesc_3_1@@QAEXH@Z 120259f7 f i XMLElementDecl.obj
 0001:000249f7       ?setCurrentNode@AbstractDOMParser@xercesc_3_1@@IAEXPAVDOMNode@2@@Z 120259f7 f i XSAnnotation.obj
 0001:000249f7       ?setPSVIScope@SchemaAttDef@xercesc_3_1@@QAEXW4PSVIScope@PSVIDefs@2@@Z 120259f7 f i XMLElementDecl.obj
 0001:000249f7       ?setRelatedNode@DOMLocatorImpl@xercesc_3_1@@QAEXQAVDOMNode@2@@Z 120259f7 f i DOMLSParserImpl.obj
 0001:000249f7       ?setValidSubstitutionGroups@SchemaGrammar@xercesc_3_1@@QAEXQAV?$RefHash2KeysTableOf@V?$ValueVectorOf@PAVSchemaElementDecl@xercesc_3_1@@@xercesc_3_1@@UStringHasher@2@@2@@Z 120259f7 f i XMLGrammarPoolImpl.obj
 0001:00024a04       ??_FComplexTypeInfo@xercesc_3_1@@QAEXXZ 12025a04 f i XMLElementDecl.obj
 0001:00024a10       ?elementCount@ComplexTypeInfo@xercesc_3_1@@QBEKXZ 12025a10 f i XMLElementDecl.obj
 0001:00024a1e       ?getAttDef@ComplexTypeInfo@xercesc_3_1@@QAEPAVSchemaAttDef@2@QB_WH@Z 12025a1e f i XMLElementDecl.obj
 0001:00024a1e       ?getAttDef@ComplexTypeInfo@xercesc_3_1@@QBEPBVSchemaAttDef@2@QB_WH@Z 12025a1e f i XMLElementDecl.obj
 0001:00024a2a       ?elementAt@ComplexTypeInfo@xercesc_3_1@@QAEPAVSchemaElementDecl@2@K@Z 12025a2a f i XMLElementDecl.obj
 0001:00024a40       ?elementAt@ComplexTypeInfo@xercesc_3_1@@QBEPBVSchemaElementDecl@2@K@Z 12025a40 f i XMLElementDecl.obj
 0001:00024a5c       ?getContentModel@ComplexTypeInfo@xercesc_3_1@@QAEPAVXMLContentModel@2@_N@Z 12025a5c f i XMLElementDecl.obj
 0001:00024a81       ?getEntityResolver@XercesDOMParser@xercesc_3_1@@QAEPAVEntityResolver@2@XZ 12025a81 f i XSAnnotation.obj
 0001:00024a81       ?getEntityResolver@XercesDOMParser@xercesc_3_1@@QBEPBVEntityResolver@2@XZ 12025a81 f i XSAnnotation.obj
 0001:00024a81       ?getFractionDigits@DecimalDatatypeValidator@xercesc_3_1@@QBEIXZ 12025a81 f i DatatypeValidator.obj
 0001:00024a81       ?getLocator@ComplexTypeInfo@xercesc_3_1@@QBEPAVXSDLocator@2@XZ 12025a81 f i XMLElementDecl.obj
 0001:00024a81       ?getPSVIHandler@SAX2XMLReaderImpl@xercesc_3_1@@UBEPAVPSVIHandler@2@XZ 12025a81 f i SAX2XMLReaderImpl.obj
 0001:00024a85       ?setIgnoreSerializedAnnotations@XMLGrammarPool@xercesc_3_1@@QAEX_N@Z 12025a85 f i XMLGrammarPoolImpl.obj
 0001:00024a85       ?setPreprocessed@ComplexTypeInfo@xercesc_3_1@@QAEX_N@Z 12025a85 f i XMLElementDecl.obj
 0001:00024a92       ?setElementId@ComplexTypeInfo@xercesc_3_1@@QAEXI@Z 12025a92 f i XMLElementDecl.obj
 0001:00024a92       ?setEnclosingScope@SchemaElementDecl@xercesc_3_1@@QAEXI@Z 12025a92 f i XMLElementDecl.obj
 0001:00024a92       ?setEntityResolver@SAX2XMLFilterImpl@xercesc_3_1@@UAEXQAVEntityResolver@2@@Z 12025a92 f i SAX2XMLFilterImpl.obj
 0001:00024a92       ?setGroupInfoRegistry@SchemaGrammar@xercesc_3_1@@QAEXQAV?$RefHashTableOf@VXercesGroupInfo@xercesc_3_1@@UStringHasher@2@@2@@Z 12025a92 f i XMLGrammarPoolImpl.obj
 0001:00024a92       ?setMinOccurs@ContentSpecNode@xercesc_3_1@@QAEXH@Z 12025a92 f i XMLGrammarPoolImpl.obj
 0001:00024a92       ?setNamespaceScope@ValidationContextImpl@xercesc_3_1@@UAEXPAVNamespaceScope@2@@Z 12025a92 f i ValidationContextImpl.obj
 0001:00024a92       ?setTypeDefinition@XSElementDeclaration@xercesc_3_1@@QAEXPAVXSTypeDefinition@2@@Z 12025a92 f i PSVIElement.obj
 0001:00024a9f       ?setTypeName@ComplexTypeInfo@xercesc_3_1@@QAEXQB_W@Z 12025a9f f i XMLElementDecl.obj
 0001:00024b62       ?setBaseComplexTypeInfo@ComplexTypeInfo@xercesc_3_1@@QAEXQAV12@@Z 12025b62 f i XMLElementDecl.obj
 0001:00024b62       ?setLength@AbstractStringValidator@xercesc_3_1@@IAEXK@Z 12025b62 f i XMLGrammarPoolImpl.obj
 0001:00024b62       ?setSchemaTypeInfo@DOMElementNSImpl@xercesc_3_1@@UAEXPBVDOMTypeInfoImpl@2@@Z 12025b62 f i DOMElementNSImpl.obj
 0001:00024b6f       ?addElement@ComplexTypeInfo@xercesc_3_1@@QAEXQAVSchemaElementDecl@2@@Z 12025b6f f i XMLElementDecl.obj
 0001:00024bd5       ?setAttWildCard@ComplexTypeInfo@xercesc_3_1@@QAEXQAVSchemaAttDef@2@@Z 12025bd5 f i XMLElementDecl.obj
 0001:00024bf3       ?hasAttDefs@ComplexTypeInfo@xercesc_3_1@@QBE_NXZ 12025bf3 f i XMLElementDecl.obj
 0001:00024bfe       ?contains@ComplexTypeInfo@xercesc_3_1@@QAE_NQB_W@Z 12025bfe f i XMLElementDecl.obj
 0001:00024c5e       ?cleanUp@XPathMatcher@xercesc_3_1@@AAEXXZ 12025c5e f i XMLElementDecl.obj
 0001:00024c91       ??_FIC_Field@xercesc_3_1@@QAEXXZ 12025c91 f i XMLElementDecl.obj
 0001:00024ca0       ??1FieldMatcher@xercesc_3_1@@UAE@XZ 12025ca0 f i XMLElementDecl.obj
 0001:00024ca0       ??1SelectorMatcher@xercesc_3_1@@UAE@XZ 12025ca0 f i XSIDCDefinition.obj
 0001:00024ce3       ??_EFieldMatcher@xercesc_3_1@@UAEPAXI@Z 12025ce3 f i XMLElementDecl.obj
 0001:00024d85       ?attributeCount@XercesAttGroupInfo@xercesc_3_1@@QBEKXZ 12025d85 f i XMLGrammarPoolImpl.obj
 0001:00024d85       ?getFieldCount@IdentityConstraint@xercesc_3_1@@QBEKXZ 12025d85 f i XMLElementDecl.obj
 0001:00024d93       ?addField@IdentityConstraint@xercesc_3_1@@QAEXQAVIC_Field@2@@Z 12025d93 f i XMLElementDecl.obj
 0001:00024df7       ?attributeAt@XercesAttGroupInfo@xercesc_3_1@@QAEPAVSchemaAttDef@2@K@Z 12025df7 f i XMLGrammarPoolImpl.obj
 0001:00024df7       ?getFieldAt@IdentityConstraint@xercesc_3_1@@QAEPAVIC_Field@2@K@Z 12025df7 f i XMLElementDecl.obj
 0001:00024df7       ?getFieldAt@IdentityConstraint@xercesc_3_1@@QBEPBVIC_Field@2@K@Z 12025df7 f i XMLElementDecl.obj
 0001:00024e0d       ??_FSchemaElementDecl@xercesc_3_1@@QAEXXZ 12025e0d f i XMLElementDecl.obj
 0001:00024e19       ?getContentSpec@SchemaElementDecl@xercesc_3_1@@UAEPAVContentSpecNode@2@XZ 12025e19 f i XMLElementDecl.obj
 0001:00024e19       ?getContentSpec@SchemaElementDecl@xercesc_3_1@@UBEPBVContentSpecNode@2@XZ 12025e19 f i XMLElementDecl.obj
 0001:00024e27       ?getContentModel@SchemaElementDecl@xercesc_3_1@@UAEPAVXMLContentModel@2@XZ 12025e27 f i XMLElementDecl.obj
 0001:00024e39       ?getModelType@SchemaElementDecl@xercesc_3_1@@QBE?AW4ModelTypes@12@XZ 12025e39 f i XMLElementDecl.obj
 0001:00024e48       ?isGlobalDecl@SchemaElementDecl@xercesc_3_1@@UBE_NXZ 12025e48 f i XMLElementDecl.obj
 0001:00024e50       ?setDatatypeValidator@SchemaElementDecl@xercesc_3_1@@QAEXPAVDatatypeValidator@2@@Z 12025e50 f i XMLElementDecl.obj
 0001:00024e50       ?setMinLength@AbstractStringValidator@xercesc_3_1@@IAEXK@Z 12025e50 f i XMLGrammarPoolImpl.obj
 0001:00024e5d       ?setDefaultValue@SchemaElementDecl@xercesc_3_1@@QAEXQB_W@Z 12025e5d f i XMLElementDecl.obj
 0001:00024e8b       ?setComplexTypeInfo@SchemaElementDecl@xercesc_3_1@@QAEXQAVComplexTypeInfo@2@@Z 12025e8b f i XMLElementDecl.obj
 0001:00024e98       ?setAttWildCard@SchemaElementDecl@xercesc_3_1@@QAEXQAVSchemaAttDef@2@@Z 12025e98 f i XMLElementDecl.obj
 0001:00024eb6       ?setMaxLength@AbstractStringValidator@xercesc_3_1@@IAEXK@Z 12025eb6 f i XMLGrammarPoolImpl.obj
 0001:00024eb6       ?setSubstitutionGroupElem@SchemaElementDecl@xercesc_3_1@@QAEXQAV12@@Z 12025eb6 f i XMLElementDecl.obj
 0001:00024ec3       ?addIdentityConstraint@SchemaElementDecl@xercesc_3_1@@QAEXQAVIdentityConstraint@2@@Z 12025ec3 f i XMLElementDecl.obj
 0001:00024f28       ?getIdentityConstraintCount@SchemaElementDecl@xercesc_3_1@@QBEKXZ 12025f28 f i XMLElementDecl.obj
 0001:00024f36       ?getIdentityConstraintAt@SchemaElementDecl@xercesc_3_1@@QBEPAVIdentityConstraint@2@K@Z 12025f36 f i XMLElementDecl.obj
 0001:00024f52       ??_FDTDAttDef@xercesc_3_1@@QAEXXZ 12025f52 f i XMLElementDecl.obj
 0001:00024f5e       ??_FDTDElementDecl@xercesc_3_1@@QAEXXZ 12025f5e f i XMLElementDecl.obj
 0001:00024f6a       ?getContentModel@DTDElementDecl@xercesc_3_1@@UAEPAVXMLContentModel@2@XZ 12025f6a f i XMLElementDecl.obj
 0001:00024f80       ?setContentModel@DTDElementDecl@xercesc_3_1@@UAEXQAVXMLContentModel@2@@Z 12025f80 f i XMLElementDecl.obj
 0001:00024fb3       ??1XMLElementDecl@xercesc_3_1@@UAE@XZ 12025fb3 f   XMLElementDecl.obj
 0001:00024fd1       ?setElementName@XMLElementDecl@xercesc_3_1@@QAEXQB_W0H@Z 12025fd1 f   XMLElementDecl.obj
 0001:0002502f       ?setElementName@XMLElementDecl@xercesc_3_1@@QAEXQB_WH@Z 1202602f f   XMLElementDecl.obj
 0001:00025087       ?setElementName@XMLElementDecl@xercesc_3_1@@QAEXQBVQName@2@@Z 12026087 f   XMLElementDecl.obj
 0001:000250d6       ??0XMLElementDecl@xercesc_3_1@@IAE@QAVMemoryManager@1@@Z 120260d6 f   XMLElementDecl.obj
 0001:000250fd       ?getProtoType@XMLElementDecl@xercesc_3_1@@UBEPAVXProtoType@2@XZ 120260fd f   XMLElementDecl.obj
 0001:00025103       ?serialize@XMLElementDecl@xercesc_3_1@@UAEXAAVXSerializeEngine@2@@Z 12026103 f   XMLElementDecl.obj
 0001:0002517a       ?storeElementDecl@XMLElementDecl@xercesc_3_1@@SAXAAVXSerializeEngine@2@QAV12@@Z 1202617a f   XMLElementDecl.obj
 0001:000251ad       ?loadElementDecl@XMLElementDecl@xercesc_3_1@@SAPAV12@AAVXSerializeEngine@2@@Z 120261ad f   XMLElementDecl.obj
 0001:000251e4       ??1?$XMLEnumerator@VSchemaAttDef@xercesc_3_1@@@xercesc_3_1@@UAE@XZ 120261e4 f i XMLElementDecl.obj
 0001:000251eb       ??_E?$XMLEnumerator@VSchemaAttDef@xercesc_3_1@@@xercesc_3_1@@UAEPAXI@Z 120261eb f i * CIL library *:* CIL module *
 0001:000251eb       ??_G?$XMLEnumerator@VSchemaAttDef@xercesc_3_1@@@xercesc_3_1@@UAEPAXI@Z 120261eb f i XMLElementDecl.obj
 0001:0002520e       ?elementAt@?$BaseRefVectorOf@VDOMNode@xercesc_3_1@@@xercesc_3_1@@QAEPAVDOMNode@2@K@Z 1202620e f i DOMRangeImpl.obj
 0001:0002520e       ?elementAt@?$BaseRefVectorOf@VDOMNodeIteratorImpl@xercesc_3_1@@@xercesc_3_1@@QAEPAVDOMNodeIteratorImpl@2@K@Z 1202620e f i DOMDocumentImpl.obj
 0001:0002520e       ?elementAt@?$BaseRefVectorOf@VDOMRangeImpl@xercesc_3_1@@@xercesc_3_1@@QAEPAVDOMRangeImpl@2@K@Z 1202620e f i DOMCDATASectionImpl.obj
 0001:0002520e       ?elementAt@?$BaseRefVectorOf@VDatatypeValidator@xercesc_3_1@@@xercesc_3_1@@QAEPAVDatatypeValidator@2@K@Z 1202620e f i XMLElementDecl.obj
 0001:0002520e       ?elementAt@?$BaseRefVectorOf@VIC_Field@xercesc_3_1@@@xercesc_3_1@@QAEPAVIC_Field@2@K@Z 1202620e f i XMLElementDecl.obj
 0001:0002520e       ?elementAt@?$BaseRefVectorOf@VIdentityConstraint@xercesc_3_1@@@xercesc_3_1@@QAEPAVIdentityConstraint@2@K@Z 1202620e f i XMLElementDecl.obj
 0001:0002520e       ?elementAt@?$BaseRefVectorOf@VSchemaAttDef@xercesc_3_1@@@xercesc_3_1@@QAEPAVSchemaAttDef@2@K@Z 1202620e f i XMLGrammarPoolImpl.obj
 0001:0002520e       ?elementAt@?$BaseRefVectorOf@VSchemaElementDecl@xercesc_3_1@@@xercesc_3_1@@QAEPAVSchemaElementDecl@2@K@Z 1202620e f i XMLElementDecl.obj
 0001:0002520e       ?elementAt@?$BaseRefVectorOf@VSchemaInfo@xercesc_3_1@@@xercesc_3_1@@QAEPAVSchemaInfo@2@K@Z 1202620e f i IGXMLScanner.obj
 0001:0002520e       ?elementAt@?$BaseRefVectorOf@VScope@InScopeNamespaces@DOMNormalizer@xercesc_3_1@@@xercesc_3_1@@QAEPAVScope@InScopeNamespaces@DOMNormalizer@2@K@Z 1202620e f i DOMNormalizer.obj
 0001:0002520e       ?elementAt@?$BaseRefVectorOf@VXMLAttr@xercesc_3_1@@@xercesc_3_1@@QAEPAVXMLAttr@2@K@Z 1202620e f i DGXMLScanner.obj
 0001:0002520e       ?elementAt@?$BaseRefVectorOf@VXMLNumber@xercesc_3_1@@@xercesc_3_1@@QAEPAVXMLNumber@2@K@Z 1202620e f i XTemplateSerializer.obj
 0001:0002520e       ?elementAt@?$BaseRefVectorOf@VXSFacet@xercesc_3_1@@@xercesc_3_1@@QAEPAVXSFacet@2@K@Z 1202620e f i XSSimpleTypeDefinition.obj
 0001:0002520e       ?elementAt@?$BaseRefVectorOf@VXSNamespaceItem@xercesc_3_1@@@xercesc_3_1@@QAEPAVXSNamespaceItem@2@K@Z 1202620e f i XSModel.obj
 0001:0002520e       ?elementAt@?$BaseRefVectorOf@VXercesLocationPath@xercesc_3_1@@@xercesc_3_1@@QAEPAVXercesLocationPath@2@K@Z 1202620e f i XTemplateSerializer.obj
 0001:0002520e       ?elementAt@?$BaseRefVectorOf@VXercesStep@xercesc_3_1@@@xercesc_3_1@@QAEPAVXercesStep@2@K@Z 1202620e f i XMLGrammarPoolImpl.obj
 0001:0002520e       ?elementAt@?$BaseRefVectorOf@_W@xercesc_3_1@@QAEPA_WK@Z 1202620e f i IGXMLScanner2.obj
 0001:0002524e       ??0?$ValueVectorOf@I@xercesc_3_1@@QAE@ABV01@@Z 1202624e f i XMLElementDecl.obj
 0001:0002524e       ??0?$ValueVectorOf@PAVSchemaElementDecl@xercesc_3_1@@@xercesc_3_1@@QAE@ABV01@@Z 1202624e f i TraverseSchema.obj
 0001:000252b2       ??0?$RefVectorOf@VSchemaElementDecl@xercesc_3_1@@@xercesc_3_1@@QAE@K_NQAVMemoryManager@1@@Z 120262b2 f i XMLElementDecl.obj
 0001:0002534c       ??1?$RefVectorOf@VSchemaElementDecl@xercesc_3_1@@@xercesc_3_1@@UAE@XZ 1202634c f i XMLElementDecl.obj
 0001:000253c0       ?get@?$RefHash2KeysTableOf@V?$ValueVectorOf@PAVSchemaElementDecl@xercesc_3_1@@@xercesc_3_1@@UStringHasher@2@@xercesc_3_1@@QAEPAV?$ValueVectorOf@PAVSchemaElementDecl@xercesc_3_1@@@2@QBXH@Z 120263c0 f i XTemplateSerializer.obj
 0001:000253c0       ?get@?$RefHash2KeysTableOf@VSchemaAttDef@xercesc_3_1@@UStringHasher@2@@xercesc_3_1@@QAEPAVSchemaAttDef@2@QBXH@Z 120263c0 f i XMLElementDecl.obj
 0001:000253c0       ?get@?$RefHash2KeysTableOf@VSchemaInfo@xercesc_3_1@@UStringHasher@2@@xercesc_3_1@@QAEPAVSchemaInfo@2@QBXH@Z 120263c0 f i IGXMLScanner2.obj
 0001:000253dd       ?containsElement@?$BaseRefVectorOf@VSchemaElementDecl@xercesc_3_1@@@xercesc_3_1@@QAE_NQBVSchemaElementDecl@2@@Z 120263dd f i XMLElementDecl.obj
 0001:000253dd       ?containsElement@?$BaseRefVectorOf@VSchemaInfo@xercesc_3_1@@@xercesc_3_1@@QAE_NQBVSchemaInfo@2@@Z 120263dd f i IGXMLScanner.obj
 0001:00025407       ??0?$RefHash2KeysTableOfEnumerator@VSchemaAttDef@xercesc_3_1@@UStringHasher@2@@xercesc_3_1@@QAE@QAV?$RefHash2KeysTableOf@VSchemaAttDef@xercesc_3_1@@UStringHasher@2@@1@_NQAVMemoryManager@1@@Z 12026407 f i XMLElementDecl.obj
 0001:00025476       ??1?$RefHash2KeysTableOfEnumerator@VSchemaAttDef@xercesc_3_1@@UStringHasher@2@@xercesc_3_1@@UAE@XZ 12026476 f i XMLElementDecl.obj
 0001:000254a4       ?hasMoreElements@?$RefHash2KeysTableOfEnumerator@V?$KeyRefPair@XVDOMUserDataHandler@xercesc_3_1@@@xercesc_3_1@@UPtrHasher@2@@xercesc_3_1@@UBE_NXZ 120264a4 f i DOMDocumentImpl.obj
 0001:000254a4       ?hasMoreElements@?$RefHash2KeysTableOfEnumerator@V?$ValueVectorOf@PAVSchemaElementDecl@xercesc_3_1@@@xercesc_3_1@@UStringHasher@2@@xercesc_3_1@@UBE_NXZ 120264a4 f i XTemplateSerializer.obj
 0001:000254a4       ?hasMoreElements@?$RefHash2KeysTableOfEnumerator@VSchemaAttDef@xercesc_3_1@@UStringHasher@2@@xercesc_3_1@@UBE_NXZ 120264a4 f i XMLElementDecl.obj
 0001:000254a4       ?hasMoreElements@?$RefHash2KeysTableOfEnumerator@VSchemaInfo@xercesc_3_1@@UStringHasher@2@@xercesc_3_1@@UBE_NXZ 120264a4 f i IGXMLScanner2.obj
 0001:000254a4       ?hasMoreElements@?$RefHashTableOfEnumerator@VComplexTypeInfo@xercesc_3_1@@UStringHasher@2@@xercesc_3_1@@UBE_NXZ 120264a4 f i XSModel.obj
 0001:000254a4       ?hasMoreElements@?$RefHashTableOfEnumerator@VDTDAttDef@xercesc_3_1@@UStringHasher@2@@xercesc_3_1@@UBE_NXZ 120264a4 f i XTemplateSerializer.obj
 0001:000254a4       ?hasMoreElements@?$RefHashTableOfEnumerator@VDatatypeValidator@xercesc_3_1@@UStringHasher@2@@xercesc_3_1@@UBE_NXZ 120264a4 f i XSModel.obj
 0001:000254a4       ?hasMoreElements@?$RefHashTableOfEnumerator@VFieldValueMap@xercesc_3_1@@UICValueHasher@2@@xercesc_3_1@@UBE_NXZ 120264a4 f i ValueStore.obj
 0001:000254a4       ?hasMoreElements@?$RefHashTableOfEnumerator@VGrammar@xercesc_3_1@@UStringHasher@2@@xercesc_3_1@@UBE_NXZ 120264a4 f i XMLGrammarPoolImpl.obj
 0001:000254a4       ?hasMoreElements@?$RefHashTableOfEnumerator@VKVStringPair@xercesc_3_1@@UStringHasher@2@@xercesc_3_1@@UBE_NXZ 120264a4 f i XSObjectFactory.obj
 0001:000254a4       ?hasMoreElements@?$RefHashTableOfEnumerator@VValueStore@xercesc_3_1@@UPtrHasher@2@@xercesc_3_1@@UBE_NXZ 120264a4 f i ValueStoreCache.obj
 0001:000254a4       ?hasMoreElements@?$RefHashTableOfEnumerator@VXMLAttDef@xercesc_3_1@@UStringHasher@2@@xercesc_3_1@@UBE_NXZ 120264a4 f i XSModel.obj
 0001:000254a4       ?hasMoreElements@?$RefHashTableOfEnumerator@VXMLRefInfo@xercesc_3_1@@UStringHasher@2@@xercesc_3_1@@UBE_NXZ 120264a4 f i XMLScanner.obj
 0001:000254a4       ?hasMoreElements@?$RefHashTableOfEnumerator@VXSAnnotation@xercesc_3_1@@UPtrHasher@2@@xercesc_3_1@@UBE_NXZ 120264a4 f i XTemplateSerializer.obj
 0001:000254a4       ?hasMoreElements@?$RefHashTableOfEnumerator@VXercesAttGroupInfo@xercesc_3_1@@UStringHasher@2@@xercesc_3_1@@UBE_NXZ 120264a4 f i XSModel.obj
 0001:000254a4       ?hasMoreElements@?$RefHashTableOfEnumerator@VXercesGroupInfo@xercesc_3_1@@UStringHasher@2@@xercesc_3_1@@UBE_NXZ 120264a4 f i XSModel.obj
 0001:000254a4       ?hasMoreElements@?$RefHashTableOfEnumerator@_WUStringHasher@xercesc_3_1@@@xercesc_3_1@@UBE_NXZ 120264a4 f i DOMNormalizer.obj
 0001:000254ba       ?nextElement@?$RefHash2KeysTableOfEnumerator@V?$ValueVectorOf@PAVSchemaElementDecl@xercesc_3_1@@@xercesc_3_1@@UStringHasher@2@@xercesc_3_1@@UAEAAV?$ValueVectorOf@PAVSchemaElementDecl@xercesc_3_1@@@2@XZ 120264ba f i XTemplateSerializer.obj
 0001:000254ba       ?nextElement@?$RefHash2KeysTableOfEnumerator@VSchemaAttDef@xercesc_3_1@@UStringHasher@2@@xercesc_3_1@@UAEAAVSchemaAttDef@2@XZ 120264ba f i XMLElementDecl.obj
 0001:000254ba       ?nextElement@?$RefHash2KeysTableOfEnumerator@VSchemaInfo@xercesc_3_1@@UStringHasher@2@@xercesc_3_1@@UAEAAVSchemaInfo@2@XZ 120264ba f i IGXMLScanner2.obj
 0001:00025505       ?Reset@?$RefHash2KeysTableOfEnumerator@V?$ValueVectorOf@PAVSchemaElementDecl@xercesc_3_1@@@xercesc_3_1@@UStringHasher@2@@xercesc_3_1@@UAEXXZ 12026505 f i XTemplateSerializer.obj
 0001:00025505       ?Reset@?$RefHash2KeysTableOfEnumerator@VSchemaAttDef@xercesc_3_1@@UStringHasher@2@@xercesc_3_1@@UAEXXZ 12026505 f i XMLElementDecl.obj
 0001:00025505       ?Reset@?$RefHash2KeysTableOfEnumerator@VSchemaInfo@xercesc_3_1@@UStringHasher@2@@xercesc_3_1@@UAEXXZ 12026505 f i IGXMLScanner2.obj
 0001:00025532       ??0?$RefVectorOf@VIC_Field@xercesc_3_1@@@xercesc_3_1@@QAE@K_NQAVMemoryManager@1@@Z 12026532 f i XMLElementDecl.obj
 0001:000255cc       ??1?$RefVectorOf@VIC_Field@xercesc_3_1@@@xercesc_3_1@@UAE@XZ 120265cc f i XMLElementDecl.obj
 0001:00025640       ??0?$RefVectorOf@VIdentityConstraint@xercesc_3_1@@@xercesc_3_1@@QAE@K_NQAVMemoryManager@1@@Z 12026640 f i XMLElementDecl.obj
 0001:000256da       ??1?$RefVectorOf@VIdentityConstraint@xercesc_3_1@@@xercesc_3_1@@UAE@XZ 120266da f i XMLElementDecl.obj
 0001:0002574e       ??_E?$RefVectorOf@VSchemaElementDecl@xercesc_3_1@@@xercesc_3_1@@UAEPAXI@Z 1202674e f i * CIL library *:* CIL module *
 0001:0002574e       ??_G?$RefVectorOf@VSchemaElementDecl@xercesc_3_1@@@xercesc_3_1@@UAEPAXI@Z 1202674e f i XMLElementDecl.obj
 0001:0002577e       ??_E?$BaseRefVectorOf@VSchemaElementDecl@xercesc_3_1@@@xercesc_3_1@@UAEPAXI@Z 1202677e f i * CIL library *:* CIL module *
 0001:0002577e       ??_G?$BaseRefVectorOf@VSchemaElementDecl@xercesc_3_1@@@xercesc_3_1@@UAEPAXI@Z 1202677e f i XMLElementDecl.obj
 0001:000257af       ??_E?$RefHash2KeysTableOfEnumerator@VSchemaAttDef@xercesc_3_1@@UStringHasher@2@@xercesc_3_1@@UAEPAXI@Z 120267af f i * CIL library *:* CIL module *
 0001:000257af       ??_G?$RefHash2KeysTableOfEnumerator@VSchemaAttDef@xercesc_3_1@@UStringHasher@2@@xercesc_3_1@@UAEPAXI@Z 120267af f i XMLElementDecl.obj
 0001:000257df       ??_E?$RefVectorOf@VIC_Field@xercesc_3_1@@@xercesc_3_1@@UAEPAXI@Z 120267df f i * CIL library *:* CIL module *
 0001:000257df       ??_G?$RefVectorOf@VIC_Field@xercesc_3_1@@@xercesc_3_1@@UAEPAXI@Z 120267df f i XMLElementDecl.obj
 0001:0002580f       ??_E?$BaseRefVectorOf@VIC_Field@xercesc_3_1@@@xercesc_3_1@@UAEPAXI@Z 1202680f f i * CIL library *:* CIL module *
 0001:0002580f       ??_G?$BaseRefVectorOf@VIC_Field@xercesc_3_1@@@xercesc_3_1@@UAEPAXI@Z 1202680f f i XMLElementDecl.obj
 0001:00025840       ??_E?$RefVectorOf@VIdentityConstraint@xercesc_3_1@@@xercesc_3_1@@UAEPAXI@Z 12026840 f i * CIL library *:* CIL module *
 0001:00025840       ??_G?$RefVectorOf@VIdentityConstraint@xercesc_3_1@@@xercesc_3_1@@UAEPAXI@Z 12026840 f i XMLElementDecl.obj
 0001:00025870       ??_E?$BaseRefVectorOf@VIdentityConstraint@xercesc_3_1@@@xercesc_3_1@@UAEPAXI@Z 12026870 f i * CIL library *:* CIL module *
 0001:00025870       ??_G?$BaseRefVectorOf@VIdentityConstraint@xercesc_3_1@@@xercesc_3_1@@UAEPAXI@Z 12026870 f i XMLElementDecl.obj
 0001:000258a1       ??1?$RefHash2KeysTableOf@VIdentityConstraint@xercesc_3_1@@UStringHasher@2@@xercesc_3_1@@QAE@XZ 120268a1 f i TraverseSchema.obj
 0001:000258a1       ??1?$RefHash2KeysTableOf@VSchemaAttDef@xercesc_3_1@@UStringHasher@2@@xercesc_3_1@@QAE@XZ 120268a1 f i XMLElementDecl.obj
 0001:000258a1       ??1?$RefHash2KeysTableOf@VXSIDCDefinition@xercesc_3_1@@UStringHasher@2@@xercesc_3_1@@QAE@XZ 120268a1 f i XSElementDeclaration.obj
 0001:000258a1       ??1?$RefHash2KeysTableOf@VXSObject@xercesc_3_1@@UStringHasher@2@@xercesc_3_1@@QAE@XZ 120268a1 f i XSModel.obj
 0001:0002593d       ?findBucketElem@?$RefHash2KeysTableOf@V?$ValueVectorOf@PAVSchemaElementDecl@xercesc_3_1@@@xercesc_3_1@@UStringHasher@2@@xercesc_3_1@@AAEPAU?$RefHash2KeysTableBucketElem@V?$ValueVectorOf@PAVSchemaElementDecl@xercesc_3_1@@@xercesc_3_1@@@2@QBXHAAK@Z 1202693d f i XTemplateSerializer.obj
 0001:0002593d       ?findBucketElem@?$RefHash2KeysTableOf@VIdentityConstraint@xercesc_3_1@@UStringHasher@2@@xercesc_3_1@@AAEPAU?$RefHash2KeysTableBucketElem@VIdentityConstraint@xercesc_3_1@@@2@QBXHAAK@Z 1202693d f i TraverseSchema.obj
 0001:0002593d       ?findBucketElem@?$RefHash2KeysTableOf@VSchemaAttDef@xercesc_3_1@@UStringHasher@2@@xercesc_3_1@@AAEPAU?$RefHash2KeysTableBucketElem@VSchemaAttDef@xercesc_3_1@@@2@QBXHAAK@Z 1202693d f i XMLElementDecl.obj
 0001:0002593d       ?findBucketElem@?$RefHash2KeysTableOf@VSchemaInfo@xercesc_3_1@@UStringHasher@2@@xercesc_3_1@@AAEPAU?$RefHash2KeysTableBucketElem@VSchemaInfo@xercesc_3_1@@@2@QBXHAAK@Z 1202693d f i IGXMLScanner2.obj
 0001:0002593d       ?findBucketElem@?$RefHash2KeysTableOf@_WUStringHasher@xercesc_3_1@@@xercesc_3_1@@AAEPAU?$RefHash2KeysTableBucketElem@_W@2@QBXHAAK@Z 1202693d f i TraverseSchema.obj
 0001:0002598c       ?findNext@?$RefHash2KeysTableOfEnumerator@V?$ValueVectorOf@PAVSchemaElementDecl@xercesc_3_1@@@xercesc_3_1@@UStringHasher@2@@xercesc_3_1@@AAEXXZ 1202698c f i XTemplateSerializer.obj
 0001:0002598c       ?findNext@?$RefHash2KeysTableOfEnumerator@VSchemaAttDef@xercesc_3_1@@UStringHasher@2@@xercesc_3_1@@AAEXXZ 1202698c f i XMLElementDecl.obj
 0001:0002598c       ?findNext@?$RefHash2KeysTableOfEnumerator@VSchemaInfo@xercesc_3_1@@UStringHasher@2@@xercesc_3_1@@AAEXXZ 1202698c f i IGXMLScanner2.obj
 0001:00025a34       ??_EXMLEntityDecl@xercesc_3_1@@UAEPAXI@Z 12026a34 f i XMLEntityDecl.obj
 0001:00025aca       ??0XMLEntityDecl@xercesc_3_1@@QAE@QAVMemoryManager@1@@Z 12026aca f   XMLEntityDecl.obj
 0001:00025afc       ??0XMLEntityDecl@xercesc_3_1@@QAE@QB_WQAVMemoryManager@1@@Z 12026afc f   XMLEntityDecl.obj
 0001:00025b51       ??0XMLEntityDecl@xercesc_3_1@@QAE@QB_W0QAVMemoryManager@1@@Z 12026b51 f   XMLEntityDecl.obj
 0001:00025be2       ??0XMLEntityDecl@xercesc_3_1@@QAE@QB_W_WQAVMemoryManager@1@@Z 12026be2 f   XMLEntityDecl.obj
 0001:00025c7b       ??1XMLEntityDecl@xercesc_3_1@@UAE@XZ 12026c7b f   XMLEntityDecl.obj
 0001:00025cc4       ?setName@XMLEntityDecl@xercesc_3_1@@QAEXQB_W@Z 12026cc4 f   XMLEntityDecl.obj
 0001:00025cf2       ?cleanUp@XMLEntityDecl@xercesc_3_1@@AAEXXZ 12026cf2 f   XMLEntityDecl.obj
 0001:00025d39       ?getProtoType@XMLEntityDecl@xercesc_3_1@@UBEPAVXProtoType@2@XZ 12026d39 f   XMLEntityDecl.obj
 0001:00025d3f       ?serialize@XMLEntityDecl@xercesc_3_1@@UAEXAAVXSerializeEngine@2@@Z 12026d3f f   XMLEntityDecl.obj
 0001:00025e8e       ?inEscapeList@XMLFormatter@xercesc_3_1@@AAE_NW4EscapeFlags@12@_W@Z 12026e8e f   XMLFormatter.obj
 0001:00025ee5       ??0XMLFormatter@xercesc_3_1@@QAE@QBD0QAVXMLFormatTarget@1@W4EscapeFlags@01@W4UnRepFlags@01@QAVMemoryManager@1@@Z 12026ee5 f   XMLFormatter.obj
 0001:00025ffa       ??0XMLFormatter@xercesc_3_1@@QAE@QB_W0QAVXMLFormatTarget@1@W4EscapeFlags@01@W4UnRepFlags@01@QAVMemoryManager@1@@Z 12026ffa f   XMLFormatter.obj
 0001:000260e1       ??0XMLFormatter@xercesc_3_1@@QAE@QBDQAVXMLFormatTarget@1@W4EscapeFlags@01@W4UnRepFlags@01@QAVMemoryManager@1@@Z 120270e1 f   XMLFormatter.obj
 0001:000261cb       ??0XMLFormatter@xercesc_3_1@@QAE@QB_WQAVXMLFormatTarget@1@W4EscapeFlags@01@W4UnRepFlags@01@QAVMemoryManager@1@@Z 120271cb f   XMLFormatter.obj
 0001:000262a4       ??1XMLFormatter@xercesc_3_1@@QAE@XZ 120272a4 f   XMLFormatter.obj
 0001:0002634c       ?formatBuf@XMLFormatter@xercesc_3_1@@QAEXQB_WKW4EscapeFlags@12@W4UnRepFlags@12@@Z 1202734c f   XMLFormatter.obj
 0001:000264b9       ?handleUnEscapedChars@XMLFormatter@xercesc_3_1@@AAEKPB_WKW4UnRepFlags@12@@Z 120274b9 f   XMLFormatter.obj
 0001:00026536       ??6XMLFormatter@xercesc_3_1@@QAEAAV01@QB_W@Z 12027536 f   XMLFormatter.obj
 0001:0002655e       ??6XMLFormatter@xercesc_3_1@@QAEAAV01@_W@Z 1202755e f   XMLFormatter.obj
 0001:0002658b       ?writeBOM@XMLFormatter@xercesc_3_1@@QAEXQBEK@Z 1202758b f   XMLFormatter.obj
 0001:000265a3       ?writeCharRef@XMLFormatter@xercesc_3_1@@AAEXAB_W@Z 120275a3 f   XMLFormatter.obj
 0001:00026631       ?writeCharRef@XMLFormatter@xercesc_3_1@@AAEXK@Z 12027631 f   XMLFormatter.obj
 0001:000266d8       ?getCharRef@XMLFormatter@xercesc_3_1@@AAEPBEAAKAAPAEPB_W@Z 120276d8 f   XMLFormatter.obj
 0001:0002674d       ?specialFormat@XMLFormatter@xercesc_3_1@@AAEXQB_WKW4EscapeFlags@12@@Z 1202774d f   XMLFormatter.obj
 0001:00026808       ??0XMLGrammarDescription@xercesc_3_1@@IAE@QAVMemoryManager@1@@Z 12027808 f   XMLGrammarDescription.obj
 0001:0002681d       ?getProtoType@XMLGrammarDescription@xercesc_3_1@@UBEPAVXProtoType@2@XZ 1202781d f   XMLGrammarDescription.obj
 0001:00026823       ?getPSVIHandler@XMLScanner@xercesc_3_1@@QAEPAVPSVIHandler@2@XZ 12027823 f i XMLValidator.obj
 0001:00026823       ?getPSVIHandler@XMLScanner@xercesc_3_1@@QBEPBVPSVIHandler@2@XZ 12027823 f i XMLValidator.obj
 0001:00026823       ?getURIStringPool@XSModel@xercesc_3_1@@QAEPAVXMLStringPool@2@XZ 12027823 f i XMLGrammarPoolImpl.obj
 0001:00026827       ??1XMLGrammarPool@xercesc_3_1@@UAE@XZ 12027827 f i XMLGrammarPoolImpl.obj
 0001:0002682e       ??0XMLGrammarPool@xercesc_3_1@@IAE@QAVMemoryManager@1@@Z 1202782e f i XMLGrammarPoolImpl.obj
 0001:00026847       ??_FXMLGrammarPool@xercesc_3_1@@QAEXXZ 12027847 f i XMLGrammarPoolImpl.obj
 0001:0002685a       ??_EXMLGrammarPool@xercesc_3_1@@UAEPAXI@Z 1202785a f i XMLGrammarPoolImpl.obj
 0001:000268f1       ??_FXMLGrammarPoolImpl@xercesc_3_1@@QAEXXZ 120278f1 f i XMLGrammarPoolImpl.obj
 0001:000268fd       ??_EXMLGrammarPoolImpl@xercesc_3_1@@UAEPAXI@Z 120278fd f i XMLGrammarPoolImpl.obj
 0001:00026995       ??_FXMLRefInfo@xercesc_3_1@@QAEXXZ 12027995 f i XMLGrammarPoolImpl.obj
 0001:000269ad       ??_EXMLRefInfo@xercesc_3_1@@UAEPAXI@Z 120279ad f i XMLGrammarPoolImpl.obj
 0001:00026a45       ??0XMLRefInfo@xercesc_3_1@@QAE@QB_W_N1QAVMemoryManager@1@@Z 12027a45 f i XMLGrammarPoolImpl.obj
 0001:00026a8e       ??1XMLRefInfo@xercesc_3_1@@UAE@XZ 12027a8e f i XMLGrammarPoolImpl.obj
 0001:00026add       ?setAdoptLocation@DOMErrorImpl@xercesc_3_1@@QAEX_N@Z 12027add f i DOMLSParserImpl.obj
 0001:00026add       ?setCheckElementConsistency@XercesGroupInfo@xercesc_3_1@@QAEX_N@Z 12027add f i XMLGrammarPoolImpl.obj
 0001:00026add       ?setDeclared@XMLRefInfo@xercesc_3_1@@QAEX_N@Z 12027add f i XMLGrammarPoolImpl.obj
 0001:00026add       ?setExitOnFirstFatal@XSDErrorReporter@xercesc_3_1@@QAEX_N@Z 12027add f i IGXMLScanner.obj
 0001:00026add       ?setTypeWithId@XercesAttGroupInfo@xercesc_3_1@@QAEX_N@Z 12027add f i XMLGrammarPoolImpl.obj
 0001:00026aea       ??_FContentSpecNode@xercesc_3_1@@QAEXXZ 12027aea f i XMLGrammarPoolImpl.obj
 0001:00026af6       ??_EContentSpecNode@xercesc_3_1@@UAEPAXI@Z 12027af6 f i XMLGrammarPoolImpl.obj
 0001:00026b8c       ??0ContentSpecNode@xercesc_3_1@@QAE@QAVMemoryManager@1@@Z 12027b8c f i XMLGrammarPoolImpl.obj
 0001:00026bbf       ??0ContentSpecNode@xercesc_3_1@@QAE@QAVQName@1@QAVMemoryManager@1@@Z 12027bbf f i XMLGrammarPoolImpl.obj
 0001:00026c31       ??0ContentSpecNode@xercesc_3_1@@QAE@QAVXMLElementDecl@1@QAVMemoryManager@1@@Z 12027c31 f i XMLGrammarPoolImpl.obj
 0001:00026ca6       ??0ContentSpecNode@xercesc_3_1@@QAE@QAVQName@1@_NQAVMemoryManager@1@@Z 12027ca6 f i XMLGrammarPoolImpl.obj
 0001:00026d26       ??0ContentSpecNode@xercesc_3_1@@QAE@W4NodeTypes@01@QAV01@1_N2QAVMemoryManager@1@@Z 12027d26 f i XMLGrammarPoolImpl.obj
 0001:00026d6a       ??1ContentSpecNode@xercesc_3_1@@UAE@XZ 12027d6a f i XMLGrammarPoolImpl.obj
 0001:00026dae       ?orphanFirst@ContentSpecNode@xercesc_3_1@@QAEPAV12@XZ 12027dae f i XMLGrammarPoolImpl.obj
 0001:00026db6       ?orphanSecond@ContentSpecNode@xercesc_3_1@@QAEPAV12@XZ 12027db6 f i XMLGrammarPoolImpl.obj
 0001:00026dbe       ?getIssueFatalErrorIfNotFound@DOMLSInputImpl@xercesc_3_1@@UBE_NXZ 12027dbe f i DOMImplementationImpl.obj
 0001:00026dbe       ?getLoadSchema@XMLScanner@xercesc_3_1@@QBE_NXZ 12027dbe f i XMLValidator.obj
 0001:00026dbe       ?getThrowEOE@ReaderMgr@xercesc_3_1@@QBE_NXZ 12027dbe f i XMLValidator.obj
 0001:00026dbe       ?getValidated@DTDGrammar@xercesc_3_1@@UBE_NXZ 12027dbe f i XMLGrammarPoolImpl.obj
 0001:00026dbe       ?isFirstAdopted@ContentSpecNode@xercesc_3_1@@QBE_NXZ 12027dbe f i XMLGrammarPoolImpl.obj
 0001:00026dc2       ?getNormalizeData@XMLScanner@xercesc_3_1@@QBE_NXZ 12027dc2 f i XMLValidator.obj
 0001:00026dc2       ?isSecondAdopted@ContentSpecNode@xercesc_3_1@@QBE_NXZ 12027dc2 f i XMLGrammarPoolImpl.obj
 0001:00026dc6       ?setElement@ContentSpecNode@xercesc_3_1@@QAEXQAVQName@2@@Z 12027dc6 f i XMLGrammarPoolImpl.obj
 0001:00026e1b       ?setFirst@ContentSpecNode@xercesc_3_1@@QAEXQAV12@@Z 12027e1b f i XMLGrammarPoolImpl.obj
 0001:00026e3f       ?setSecond@ContentSpecNode@xercesc_3_1@@QAEXQAV12@@Z 12027e3f f i XMLGrammarPoolImpl.obj
 0001:00026e63       ?setAdoptFirst@ContentSpecNode@xercesc_3_1@@QAEX_N@Z 12027e63 f i XMLGrammarPoolImpl.obj
 0001:00026e63       ?setIssueFatalErrorIfNotFound@DOMLSInputImpl@xercesc_3_1@@UAEX_N@Z 12027e63 f i DOMLSInputImpl.obj
 0001:00026e63       ?setLoadSchema@XMLScanner@xercesc_3_1@@QAEX_N@Z 12027e63 f i XMLValidator.obj
 0001:00026e63       ?setThrowEOE@ReaderMgr@xercesc_3_1@@QAEX_N@Z 12027e63 f i XMLValidator.obj
 0001:00026e63       ?setValidated@DTDGrammar@xercesc_3_1@@UAEX_N@Z 12027e63 f i XMLGrammarPoolImpl.obj
 0001:00026e70       ?setAdoptSecond@ContentSpecNode@xercesc_3_1@@QAEX_N@Z 12027e70 f i XMLGrammarPoolImpl.obj
 0001:00026e70       ?setNormalizeData@XMLScanner@xercesc_3_1@@QAEX_N@Z 12027e70 f i XMLValidator.obj
 0001:00026e7d       ?hasAllContent@ContentSpecNode@xercesc_3_1@@QAE_NXZ 12027e7d f i XMLGrammarPoolImpl.obj
 0001:00026e94       ??_FDTDEntityDecl@xercesc_3_1@@QAEXXZ 12027e94 f i XMLGrammarPoolImpl.obj
 0001:00026ea0       ??_EDTDEntityDecl@xercesc_3_1@@UAEPAXI@Z 12027ea0 f i XMLGrammarPoolImpl.obj
 0001:00026f3c       ??0DTDEntityDecl@xercesc_3_1@@QAE@QAVMemoryManager@1@@Z 12027f3c f i XMLGrammarPoolImpl.obj
 0001:00026f60       ??0DTDEntityDecl@xercesc_3_1@@QAE@QB_W_NQAVMemoryManager@1@@Z 12027f60 f i XMLGrammarPoolImpl.obj
 0001:00026f8e       ??0DTDEntityDecl@xercesc_3_1@@QAE@QB_W0_NQAVMemoryManager@1@@Z 12027f8e f i XMLGrammarPoolImpl.obj
 0001:00026fbf       ??0DTDEntityDecl@xercesc_3_1@@QAE@QB_W_W_N2@Z 12027fbf f i XMLGrammarPoolImpl.obj
 0001:00026ff7       ??1DTDEntityDecl@xercesc_3_1@@UAE@XZ 12027ff7 f i XMLGrammarPoolImpl.obj
 0001:00027002       ?getIsParameter@DTDEntityDecl@xercesc_3_1@@UBE_NXZ 12028002 f i XMLGrammarPoolImpl.obj
 0001:00027006       ?getIsSpecialChar@DTDEntityDecl@xercesc_3_1@@UBE_NXZ 12028006 f i XMLGrammarPoolImpl.obj
 0001:0002700a       ?setDeclaredInIntSubset@DTDEntityDecl@xercesc_3_1@@QAEX_N@Z 1202800a f i XMLGrammarPoolImpl.obj
 0001:00027017       ?setIsParameter@DTDEntityDecl@xercesc_3_1@@QAEX_N@Z 12028017 f i XMLGrammarPoolImpl.obj
 0001:00027024       ?setIsSpecialChar@DTDEntityDecl@xercesc_3_1@@QAEX_N@Z 12028024 f i XMLGrammarPoolImpl.obj
 0001:00027031       ??_FXercesGroupInfo@xercesc_3_1@@QAEXXZ 12028031 f i XMLGrammarPoolImpl.obj
 0001:0002703d       ?elementCount@XercesGroupInfo@xercesc_3_1@@QBEKXZ 1202803d f i XMLGrammarPoolImpl.obj
 0001:00027044       ?elementAt@XercesGroupInfo@xercesc_3_1@@QAEPAVSchemaElementDecl@2@K@Z 12028044 f i XMLGrammarPoolImpl.obj
 0001:00027050       ?elementAt@XercesGroupInfo@xercesc_3_1@@QBEPBVSchemaElementDecl@2@K@Z 12028050 f i XMLGrammarPoolImpl.obj
 0001:00027064       ?addElement@XercesGroupInfo@xercesc_3_1@@QAEXQAVSchemaElementDecl@2@@Z 12028064 f i XMLGrammarPoolImpl.obj
 0001:00027088       ??_FXercesAttGroupInfo@xercesc_3_1@@QAEXXZ 12028088 f i XMLGrammarPoolImpl.obj
 0001:00027094       ?anyAttributeCount@XercesAttGroupInfo@xercesc_3_1@@QBEKXZ 12028094 f i XMLGrammarPoolImpl.obj
 0001:000270a2       ?attributeAt@XercesAttGroupInfo@xercesc_3_1@@QBEPBVSchemaAttDef@2@K@Z 120280a2 f i XMLGrammarPoolImpl.obj
 0001:000270be       ?anyAttributeAt@XercesAttGroupInfo@xercesc_3_1@@QAEPAVSchemaAttDef@2@K@Z 120280be f i XMLGrammarPoolImpl.obj
 0001:000270d4       ?anyAttributeAt@XercesAttGroupInfo@xercesc_3_1@@QBEPBVSchemaAttDef@2@K@Z 120280d4 f i XMLGrammarPoolImpl.obj
 0001:000270f0       ?addAttDef@XercesAttGroupInfo@xercesc_3_1@@QAEXQAVSchemaAttDef@2@_N@Z 120280f0 f i XMLGrammarPoolImpl.obj
 0001:0002718a       ?addAnyAttDef@XercesAttGroupInfo@xercesc_3_1@@QAEXQAVSchemaAttDef@2@_N@Z 1202818a f i XMLGrammarPoolImpl.obj
 0001:00027224       ?setCompleteWildCard@XercesAttGroupInfo@xercesc_3_1@@QAEXQAVSchemaAttDef@2@@Z 12028224 f i XMLGrammarPoolImpl.obj
 0001:00027242       ?getAnonTypeCount@SchemaGrammar@xercesc_3_1@@QBEIXZ 12028242 f i XMLGrammarPoolImpl.obj
 0001:00027242       ?getEnumString@AbstractStringValidator@xercesc_3_1@@UBEPBV?$RefArrayVectorOf@_W@2@XZ 12028242 f i AbstractStringValidator.obj
 0001:00027242       ?getEnumeration@AbstractStringValidator@xercesc_3_1@@QBEPAV?$RefArrayVectorOf@_W@2@XZ 12028242 f i XMLGrammarPoolImpl.obj
 0001:00027242       ?getMinInclusive@AbstractNumericFacetValidator@xercesc_3_1@@QBEPAVXMLNumber@2@XZ 12028242 f i AbstractNumericFacetValidator.obj
 0001:00027242       ?getScanner@SAXParser@xercesc_3_1@@IBEABVXMLScanner@2@XZ 12028242 f i SAX2XMLReaderImpl.obj
 0001:00027246       ?setEnumeration@AbstractStringValidator@xercesc_3_1@@IAEXPAV?$RefArrayVectorOf@_W@2@_N@Z 12028246 f i XMLGrammarPoolImpl.obj
 0001:0002727a       ??_FStringDatatypeValidator@xercesc_3_1@@QAEXXZ 1202827a f i XMLGrammarPoolImpl.obj
 0001:00027286       ??_FIDDatatypeValidator@xercesc_3_1@@QAEXXZ 12028286 f i XMLGrammarPoolImpl.obj
 0001:00027292       ??_FDatatypeValidatorFactory@xercesc_3_1@@QAEXXZ 12028292 f i XMLGrammarPoolImpl.obj
 0001:000272a5       ?getDatatypeValidator@DatatypeValidatorFactory@xercesc_3_1@@QBEPAVDatatypeValidator@2@QB_W@Z 120282a5 f i XMLGrammarPoolImpl.obj
 0001:000272f0       ?getBuiltInRegistry@DatatypeValidatorFactory@xercesc_3_1@@SAPAV?$RefHashTableOf@VDatatypeValidator@xercesc_3_1@@UStringHasher@2@@2@XZ 120282f0 f i XMLGrammarPoolImpl.obj
 0001:000272f6       ?cleanUp@DatatypeValidatorFactory@xercesc_3_1@@AAEXXZ 120282f6 f i XMLGrammarPoolImpl.obj
 0001:00027316       ??_FXMLSchemaDescription@xercesc_3_1@@QAEXXZ 12028316 f i XMLGrammarPoolImpl.obj
 0001:00027325       ??_FSchemaGrammar@xercesc_3_1@@QAEXXZ 12028325 f i XMLGrammarPoolImpl.obj
 0001:00027331       ?getElemEnumerator@SchemaGrammar@xercesc_3_1@@QBE?AV?$RefHash3KeysIdPoolEnumerator@VSchemaElementDecl@xercesc_3_1@@UStringHasher@2@@2@XZ 12028331 f i XMLGrammarPoolImpl.obj
 0001:0002734b       ?getNotationEnumerator@SchemaGrammar@xercesc_3_1@@QBE?AV?$NameIdPoolEnumerator@VXMLNotationDecl@xercesc_3_1@@@2@XZ 1202834b f i XMLGrammarPoolImpl.obj
 0001:00027362       ?getDatatypeRegistry@SchemaGrammar@xercesc_3_1@@QAEPAVDatatypeValidatorFactory@2@XZ 12028362 f i XMLGrammarPoolImpl.obj
 0001:00027366       ?getAnnotation@SchemaGrammar@xercesc_3_1@@QAEPAVXSAnnotation@2@QBX@Z 12028366 f i XMLGrammarPoolImpl.obj
 0001:00027366       ?getAnnotation@SchemaGrammar@xercesc_3_1@@QBEPBVXSAnnotation@2@QBX@Z 12028366 f i XMLGrammarPoolImpl.obj
 0001:00027372       ?getAnnotation@SchemaGrammar@xercesc_3_1@@QAEPAVXSAnnotation@2@XZ 12028372 f i XMLGrammarPoolImpl.obj
 0001:00027372       ?getAnnotation@SchemaGrammar@xercesc_3_1@@QBEPBVXSAnnotation@2@XZ 12028372 f i XMLGrammarPoolImpl.obj
 0001:0002737c       ?setTargetNamespace@SchemaGrammar@xercesc_3_1@@QAEXQB_W@Z 1202837c f i XMLGrammarPoolImpl.obj
 0001:000273aa       ?getElemId@SchemaGrammar@xercesc_3_1@@UBEKIQB_W0I@Z 120283aa f i XMLGrammarPoolImpl.obj
 0001:000273e7       ?getElemDecl@SchemaGrammar@xercesc_3_1@@UAEPAVXMLElementDecl@2@IQB_W0I@Z 120283e7 f i XMLGrammarPoolImpl.obj
 0001:000273e7       ?getElemDecl@SchemaGrammar@xercesc_3_1@@UBEPBVXMLElementDecl@2@IQB_W0I@Z 120283e7 f i XMLGrammarPoolImpl.obj
 0001:00027431       ?getElemDecl@SchemaGrammar@xercesc_3_1@@UAEPAVXMLElementDecl@2@I@Z 12028431 f i XMLGrammarPoolImpl.obj
 0001:00027431       ?getElemDecl@SchemaGrammar@xercesc_3_1@@UBEPBVXMLElementDecl@2@I@Z 12028431 f i XMLGrammarPoolImpl.obj
 0001:0002745c       ?putElemDecl@SchemaGrammar@xercesc_3_1@@UAEKQAVXMLElementDecl@2@_N@Z 1202845c f i XMLGrammarPoolImpl.obj
 0001:000274da       ?putGroupElemDecl@SchemaGrammar@xercesc_3_1@@QBEKQAVXMLElementDecl@2@@Z 120284da f i XMLGrammarPoolImpl.obj
 0001:000274f9       ?getNotationDecl@DTDGrammar@xercesc_3_1@@UAEPAVXMLNotationDecl@2@QB_W@Z 120284f9 f i XMLGrammarPoolImpl.obj
 0001:000274f9       ?getNotationDecl@DTDGrammar@xercesc_3_1@@UBEPBVXMLNotationDecl@2@QB_W@Z 120284f9 f i XMLGrammarPoolImpl.obj
 0001:000274f9       ?getNotationDecl@SchemaGrammar@xercesc_3_1@@UAEPAVXMLNotationDecl@2@QB_W@Z 120284f9 f i XMLGrammarPoolImpl.obj
 0001:000274f9       ?getNotationDecl@SchemaGrammar@xercesc_3_1@@UBEPBVXMLNotationDecl@2@QB_W@Z 120284f9 f i XMLGrammarPoolImpl.obj
 0001:00027505       ?putNotationDecl@DTDGrammar@xercesc_3_1@@UBEKQAVXMLNotationDecl@2@@Z 12028505 f i XMLGrammarPoolImpl.obj
 0001:00027505       ?putNotationDecl@SchemaGrammar@xercesc_3_1@@UBEKQAVXMLNotationDecl@2@@Z 12028505 f i XMLGrammarPoolImpl.obj
 0001:00027511       ?getValidated@SchemaGrammar@xercesc_3_1@@UBE_NXZ 12028511 f i XMLGrammarPoolImpl.obj
 0001:00027515       ?setValidated@SchemaGrammar@xercesc_3_1@@UAEX_N@Z 12028515 f i XMLGrammarPoolImpl.obj
 0001:00027522       ?getAttDefList@ComplexTypeInfo@xercesc_3_1@@QBEAAVXMLAttDefList@2@XZ 12028522 f i ComplexTypeInfo.obj
 0001:00027522       ?getMaxExclusive@AbstractNumericFacetValidator@xercesc_3_1@@QBEPAVXMLNumber@2@XZ 12028522 f i AbstractNumericFacetValidator.obj
 0001:00027522       ?getScopeCount@SchemaGrammar@xercesc_3_1@@QBEIXZ 12028522 f i XMLGrammarPoolImpl.obj
 0001:00027526       ?setScopeCount@SchemaGrammar@xercesc_3_1@@QAEXI@Z 12028526 f i XMLGrammarPoolImpl.obj
 0001:00027533       ?setAnonTypeCount@SchemaGrammar@xercesc_3_1@@QAEXI@Z 12028533 f i XMLGrammarPoolImpl.obj
 0001:00027540       ??0XercesNamespaceResolver@xercesc_3_1@@QAE@XZ 12028540 f i XMLGrammarPoolImpl.obj
 0001:00027549       ??0XercesNamespaceResolver@xercesc_3_1@@QAE@$$QAV01@@Z 12028549 f i XMLGrammarPoolImpl.obj
 0001:00027549       ??0XercesNamespaceResolver@xercesc_3_1@@QAE@ABV01@@Z 12028549 f i XMLGrammarPoolImpl.obj
 0001:00027554       ??_FNamespaceScope@xercesc_3_1@@QAEXXZ 12028554 f i XMLGrammarPoolImpl.obj
 0001:00027560       ?isEmpty@NamespaceScope@xercesc_3_1@@QBE_NXZ 12028560 f i XMLGrammarPoolImpl.obj
 0001:00027560       ?isEmpty@WFElemStack@xercesc_3_1@@QBE_NXZ 12028560 f i XMLValidator.obj
 0001:00027568       ??1XercesNodeTest@xercesc_3_1@@UAE@XZ 12028568 f i XMLGrammarPoolImpl.obj
 0001:00027586       ?getAxisType@XercesStep@xercesc_3_1@@QBEGXZ 12028586 f i XMLGrammarPoolImpl.obj
 0001:00027586       ?getType@XercesNodeTest@xercesc_3_1@@QBEFXZ 12028586 f i XMLGrammarPoolImpl.obj
 0001:0002758b       ??_FXercesNodeTest@xercesc_3_1@@QAEXXZ 1202858b f i XMLGrammarPoolImpl.obj
 0001:0002759d       ??_EXercesNodeTest@xercesc_3_1@@UAEPAXI@Z 1202859d f i XMLGrammarPoolImpl.obj
 0001:00027633       ??1XercesStep@xercesc_3_1@@UAE@XZ 12028633 f i XMLGrammarPoolImpl.obj
 0001:00027651       ??_FXercesStep@xercesc_3_1@@QAEXXZ 12028651 f i XMLGrammarPoolImpl.obj
 0001:00027663       ??_EXercesStep@xercesc_3_1@@UAEPAXI@Z 12028663 f i XMLGrammarPoolImpl.obj
 0001:000276f9       ??1XercesLocationPath@xercesc_3_1@@UAE@XZ 120286f9 f i XMLGrammarPoolImpl.obj
 0001:00027717       ??_FXercesLocationPath@xercesc_3_1@@QAEXXZ 12028717 f i XMLGrammarPoolImpl.obj
 0001:00027722       ??_EXercesLocationPath@xercesc_3_1@@UAEPAXI@Z 12028722 f i XMLGrammarPoolImpl.obj
 0001:000277bb       ??_FXercesXPath@xercesc_3_1@@QAEXXZ 120287bb f i XMLGrammarPoolImpl.obj
 0001:000277c7       ??1XPathScanner@xercesc_3_1@@UAE@XZ 120287c7 f i XMLGrammarPoolImpl.obj
 0001:000277c7       ??1XPathScannerForSchema@xercesc_3_1@@UAE@XZ 120287c7 f i XMLGrammarPoolImpl.obj
 0001:000277ce       ??_EXPathScanner@xercesc_3_1@@UAEPAXI@Z 120287ce f i XMLGrammarPoolImpl.obj
 0001:000277ce       ??_EXPathScannerForSchema@xercesc_3_1@@UAEPAXI@Z 120287ce f i XMLGrammarPoolImpl.obj
 0001:00027865       ?getLength@DOMAttrMapImpl@xercesc_3_1@@UBEKXZ 12028865 f i DOMAttrMapImpl.obj
 0001:00027865       ?getStepSize@XercesLocationPath@xercesc_3_1@@QBEKXZ 12028865 f i XMLGrammarPoolImpl.obj
 0001:00027873       ?add@DOMStringListImpl@xercesc_3_1@@QAEXPB_W@Z 12028873 f i DOMStringListImpl.obj
 0001:00027873       ?addStep@XercesLocationPath@xercesc_3_1@@QAEXQAVXercesStep@2@@Z 12028873 f i XMLGrammarPoolImpl.obj
 0001:0002787f       ?getStep@XercesLocationPath@xercesc_3_1@@QBEPAVXercesStep@2@K@Z 1202887f f i XMLGrammarPoolImpl.obj
 0001:0002789b       ?addToken@XPathScanner@xercesc_3_1@@MAEXQAV?$ValueVectorOf@H@2@H@Z 1202889b f i XMLGrammarPoolImpl.obj
 0001:000278ae       ?getLineCol@XSAnnotation@xercesc_3_1@@QBEXAA_K0@Z 120288ae f i XMLGrammarPoolImpl.obj
 0001:000278d3       ?setLineCol@XSAnnotation@xercesc_3_1@@QAEX_K0@Z 120288d3 f i XMLGrammarPoolImpl.obj
 0001:000278f2       ??_FDTDGrammar@xercesc_3_1@@QAEXXZ 120288f2 f i XMLGrammarPoolImpl.obj
 0001:000278fe       ?getElemEnumerator@DTDGrammar@xercesc_3_1@@QBE?AV?$NameIdPoolEnumerator@VDTDElementDecl@xercesc_3_1@@@2@XZ 120288fe f i XMLGrammarPoolImpl.obj
 0001:00027925       ?getEntityEnumerator@DTDGrammar@xercesc_3_1@@QBE?AV?$NameIdPoolEnumerator@VDTDEntityDecl@xercesc_3_1@@@2@XZ 12028925 f i XMLGrammarPoolImpl.obj
 0001:0002794c       ?getNotationEnumerator@DTDGrammar@xercesc_3_1@@QBE?AV?$NameIdPoolEnumerator@VXMLNotationDecl@xercesc_3_1@@@2@XZ 1202894c f i XMLGrammarPoolImpl.obj
 0001:00027963       ?getEntityDecl@DTDGrammar@xercesc_3_1@@QAEPAVDTDEntityDecl@2@QB_W@Z 12028963 f i XMLGrammarPoolImpl.obj
 0001:00027963       ?getEntityDecl@DTDGrammar@xercesc_3_1@@QBEPBVDTDEntityDecl@2@QB_W@Z 12028963 f i XMLGrammarPoolImpl.obj
 0001:0002798b       ?putEntityDecl@DTDGrammar@xercesc_3_1@@QBEKQAVDTDEntityDecl@2@@Z 1202898b f i XMLGrammarPoolImpl.obj
 0001:0002799f       ?getTargetNamespace@DTDGrammar@xercesc_3_1@@UBEPB_WXZ 1202899f f i XMLGrammarPoolImpl.obj
 0001:000279a5       ?getElemId@DTDGrammar@xercesc_3_1@@UBEKIQB_W0I@Z 120289a5 f i XMLGrammarPoolImpl.obj
 0001:000279c3       ?getElemDecl@DTDGrammar@xercesc_3_1@@UAEPAVXMLElementDecl@2@IQB_W0I@Z 120289c3 f i XMLGrammarPoolImpl.obj
 0001:000279c3       ?getElemDecl@DTDGrammar@xercesc_3_1@@UBEPBVXMLElementDecl@2@IQB_W0I@Z 120289c3 f i XMLGrammarPoolImpl.obj
 0001:000279ec       ?getElemDecl@DTDGrammar@xercesc_3_1@@UAEPAVXMLElementDecl@2@I@Z 120289ec f i XMLGrammarPoolImpl.obj
 0001:000279ec       ?getElemDecl@DTDGrammar@xercesc_3_1@@UBEPBVXMLElementDecl@2@I@Z 120289ec f i XMLGrammarPoolImpl.obj
 0001:000279f8       ?putElemDecl@DTDGrammar@xercesc_3_1@@UAEKQAVXMLElementDecl@2@_N@Z 120289f8 f i XMLGrammarPoolImpl.obj
 0001:00027a5d       ??_FXMLDTDDescriptionImpl@xercesc_3_1@@QAEXXZ 12028a5d f i XMLGrammarPoolImpl.obj
 0001:00027a74       ??_FXMLSchemaDescriptionImpl@xercesc_3_1@@QAEXXZ 12028a74 f i XMLGrammarPoolImpl.obj
 0001:00027a80       ?createXSModel@XMLGrammarPoolImpl@xercesc_3_1@@EAEXXZ 12028a80 f   XMLGrammarPoolImpl.obj
 0001:00027adf       ??_GXSModel@xercesc_3_1@@QAEPAXI@Z 12028adf f i XMLGrammarPoolImpl.obj
 0001:00027af4       ??1XMLGrammarPoolImpl@xercesc_3_1@@UAE@XZ 12028af4 f   XMLGrammarPoolImpl.obj
 0001:00027b4b       ??0XMLGrammarPoolImpl@xercesc_3_1@@QAE@QAVMemoryManager@1@@Z 12028b4b f   XMLGrammarPoolImpl.obj
 0001:00027bd9       ?cacheGrammar@XMLGrammarPoolImpl@xercesc_3_1@@UAE_NQAVGrammar@2@@Z 12028bd9 f   XMLGrammarPoolImpl.obj
 0001:00027c38       ?retrieveGrammar@XMLGrammarPoolImpl@xercesc_3_1@@UAEPAVGrammar@2@QAVXMLGrammarDescription@2@@Z 12028c38 f   XMLGrammarPoolImpl.obj
 0001:00027c66       ?orphanGrammar@XMLGrammarPoolImpl@xercesc_3_1@@UAEPAVGrammar@2@QB_W@Z 12028c66 f   XMLGrammarPoolImpl.obj
 0001:00027ca6       ?getGrammarEnumerator@XMLGrammarPoolImpl@xercesc_3_1@@UBE?AV?$RefHashTableOfEnumerator@VGrammar@xercesc_3_1@@UStringHasher@2@@2@XZ 12028ca6 f   XMLGrammarPoolImpl.obj
 0001:00027cc0       ?clear@XMLGrammarPoolImpl@xercesc_3_1@@UAE_NXZ 12028cc0 f   XMLGrammarPoolImpl.obj
 0001:00027cf8       ?lockPool@XMLGrammarPoolImpl@xercesc_3_1@@UAEXXZ 12028cf8 f   XMLGrammarPoolImpl.obj
 0001:00027d5a       ?unlockPool@XMLGrammarPoolImpl@xercesc_3_1@@UAEXXZ 12028d5a f   XMLGrammarPoolImpl.obj
 0001:00027da5       ?createDTDGrammar@XMLGrammarPoolImpl@xercesc_3_1@@UAEPAVDTDGrammar@2@XZ 12028da5 f   XMLGrammarPoolImpl.obj
 0001:00027ddf       ?createSchemaGrammar@XMLGrammarPoolImpl@xercesc_3_1@@UAEPAVSchemaGrammar@2@XZ 12028ddf f   XMLGrammarPoolImpl.obj
 0001:00027e19       ?createDTDDescription@XMLGrammarPoolImpl@xercesc_3_1@@UAEPAVXMLDTDDescription@2@QB_W@Z 12028e19 f   XMLGrammarPoolImpl.obj
 0001:00027e58       ?createSchemaDescription@XMLGrammarPoolImpl@xercesc_3_1@@UAEPAVXMLSchemaDescription@2@QB_W@Z 12028e58 f   XMLGrammarPoolImpl.obj
 0001:00027e97       ?getXSModel@XMLGrammarPoolImpl@xercesc_3_1@@UAEPAVXSModel@2@AA_N@Z 12028e97 f   XMLGrammarPoolImpl.obj
 0001:00027ec1       ?getURIStringPool@XMLGrammarPoolImpl@xercesc_3_1@@UAEPAVXMLStringPool@2@XZ 12028ec1 f   XMLGrammarPoolImpl.obj
 0001:00027ecf       ?serializeGrammars@XMLGrammarPoolImpl@xercesc_3_1@@UAEXQAVBinOutputStream@2@@Z 12028ecf f   XMLGrammarPoolImpl.obj
 0001:00027f8a       ?deserializeGrammars@XMLGrammarPoolImpl@xercesc_3_1@@UAEXQAVBinInputStream@2@@Z 12028f8a f   XMLGrammarPoolImpl.obj
 0001:0002814a       ?cleanUp@XMLGrammarPoolImpl@xercesc_3_1@@AAEXXZ 1202914a f   XMLGrammarPoolImpl.obj
 0001:00028153       ??1?$XMLEnumerator@VGrammar@xercesc_3_1@@@xercesc_3_1@@UAE@XZ 12029153 f i XMLGrammarPoolImpl.obj
 0001:0002815a       ??1?$XMLEnumerator@VSchemaElementDecl@xercesc_3_1@@@xercesc_3_1@@UAE@XZ 1202915a f i XMLGrammarPoolImpl.obj
 0001:00028161       ??_E?$XMLEnumerator@VGrammar@xercesc_3_1@@@xercesc_3_1@@UAEPAXI@Z 12029161 f i * CIL library *:* CIL module *
 0001:00028161       ??_G?$XMLEnumerator@VGrammar@xercesc_3_1@@@xercesc_3_1@@UAEPAXI@Z 12029161 f i XMLGrammarPoolImpl.obj
 0001:00028184       ??_E?$XMLEnumerator@VDTDEntityDecl@xercesc_3_1@@@xercesc_3_1@@UAEPAXI@Z 12029184 f i * CIL library *:* CIL module *
 0001:00028184       ??_G?$XMLEnumerator@VDTDEntityDecl@xercesc_3_1@@@xercesc_3_1@@UAEPAXI@Z 12029184 f i XMLGrammarPoolImpl.obj
 0001:000281a7       ??_E?$XMLEnumerator@VDTDElementDecl@xercesc_3_1@@@xercesc_3_1@@UAEPAXI@Z 120291a7 f i * CIL library *:* CIL module *
 0001:000281a7       ??_G?$XMLEnumerator@VDTDElementDecl@xercesc_3_1@@@xercesc_3_1@@UAEPAXI@Z 120291a7 f i XMLGrammarPoolImpl.obj
 0001:000281ca       ??_E?$XMLEnumerator@VXMLNotationDecl@xercesc_3_1@@@xercesc_3_1@@UAEPAXI@Z 120291ca f i * CIL library *:* CIL module *
 0001:000281ca       ??_G?$XMLEnumerator@VXMLNotationDecl@xercesc_3_1@@@xercesc_3_1@@UAEPAXI@Z 120291ca f i XMLGrammarPoolImpl.obj
 0001:000281ed       ??_E?$XMLEnumerator@VSchemaElementDecl@xercesc_3_1@@@xercesc_3_1@@UAEPAXI@Z 120291ed f i * CIL library *:* CIL module *
 0001:000281ed       ??_G?$XMLEnumerator@VSchemaElementDecl@xercesc_3_1@@@xercesc_3_1@@UAEPAXI@Z 120291ed f i XMLGrammarPoolImpl.obj
 0001:00028210       ?getByKey@?$NameIdPool@VDTDElementDecl@xercesc_3_1@@@xercesc_3_1@@QAEPAVDTDElementDecl@2@QB_W@Z 12029210 f i XMLGrammarPoolImpl.obj
 0001:00028210       ?getByKey@?$NameIdPool@VDTDEntityDecl@xercesc_3_1@@@xercesc_3_1@@QAEPAVDTDEntityDecl@2@QB_W@Z 12029210 f i XMLGrammarPoolImpl.obj
 0001:00028210       ?getByKey@?$NameIdPool@VXMLNotationDecl@xercesc_3_1@@@xercesc_3_1@@QAEPAVXMLNotationDecl@2@QB_W@Z 12029210 f i XMLGrammarPoolImpl.obj
 0001:0002823c       ?put@?$NameIdPool@VDTDEntityDecl@xercesc_3_1@@@xercesc_3_1@@QAEKQAVDTDEntityDecl@2@@Z 1202923c f i XMLGrammarPoolImpl.obj
 0001:00028324       ??1?$RefHashTableOf@VDTDElementDecl@xercesc_3_1@@UStringHasher@2@@xercesc_3_1@@QAE@XZ 12029324 f i XMLGrammarPoolImpl.obj
 0001:00028324       ??1?$RefHashTableOf@VDTDEntityDecl@xercesc_3_1@@UStringHasher@2@@xercesc_3_1@@QAE@XZ 12029324 f i XTemplateSerializer.obj
 0001:00028324       ??1?$RefHashTableOf@VDatatypeValidator@xercesc_3_1@@UStringHasher@2@@xercesc_3_1@@QAE@XZ 12029324 f i XMLGrammarPoolImpl.obj
 0001:00028324       ??1?$RefHashTableOf@VGrammar@xercesc_3_1@@UStringHasher@2@@xercesc_3_1@@QAE@XZ 12029324 f i XMLGrammarPoolImpl.obj
 0001:00028324       ??1?$RefHashTableOf@VXMLElementDecl@xercesc_3_1@@UStringHasher@2@@xercesc_3_1@@QAE@XZ 12029324 f i WFXMLScanner.obj
 0001:00028324       ??1?$RefHashTableOf@VXMLNotationDecl@xercesc_3_1@@UStringHasher@2@@xercesc_3_1@@QAE@XZ 12029324 f i XTemplateSerializer.obj
 0001:00028324       ??1?$RefHashTableOf@VXMLRefInfo@xercesc_3_1@@UStringHasher@2@@xercesc_3_1@@QAE@XZ 12029324 f i ValidationContextImpl.obj
 0001:00028324       ??1?$RefHashTableOf@VXSAnnotation@xercesc_3_1@@UPtrHasher@2@@xercesc_3_1@@QAE@XZ 12029324 f i XTemplateSerializer.obj
 0001:0002836f       ?get@?$RefHashTableOf@VComplexTypeInfo@xercesc_3_1@@UStringHasher@2@@xercesc_3_1@@QAEPAVComplexTypeInfo@2@QBX@Z 1202936f f i XTemplateSerializer.obj
 0001:0002836f       ?get@?$RefHashTableOf@VDatatypeValidator@xercesc_3_1@@UStringHasher@2@@xercesc_3_1@@QAEPAVDatatypeValidator@2@QBX@Z 1202936f f i XMLGrammarPoolImpl.obj
 0001:0002836f       ?get@?$RefHashTableOf@VKVStringPair@xercesc_3_1@@UStringHasher@2@@xercesc_3_1@@QAEPAVKVStringPair@2@QBX@Z 1202936f f i XTemplateSerializer.obj
 0001:0002838d       ??0?$RefHashTableOfEnumerator@VGrammar@xercesc_3_1@@UStringHasher@2@@xercesc_3_1@@QAE@QAV?$RefHashTableOf@VGrammar@xercesc_3_1@@UStringHasher@2@@1@_NQAVMemoryManager@1@@Z 1202938d f i XMLGrammarPoolImpl.obj
 0001:000283f9       ??1?$RefHashTableOfEnumerator@VGrammar@xercesc_3_1@@UStringHasher@2@@xercesc_3_1@@UAE@XZ 120293f9 f i XMLGrammarPoolImpl.obj
 0001:00028427       ?nextElement@?$RefHashTableOfEnumerator@VComplexTypeInfo@xercesc_3_1@@UStringHasher@2@@xercesc_3_1@@UAEAAVComplexTypeInfo@2@XZ 12029427 f i XSModel.obj
 0001:00028427       ?nextElement@?$RefHashTableOfEnumerator@VDTDAttDef@xercesc_3_1@@UStringHasher@2@@xercesc_3_1@@UAEAAVDTDAttDef@2@XZ 12029427 f i XTemplateSerializer.obj
 0001:00028427       ?nextElement@?$RefHashTableOfEnumerator@VDatatypeValidator@xercesc_3_1@@UStringHasher@2@@xercesc_3_1@@UAEAAVDatatypeValidator@2@XZ 12029427 f i XSModel.obj
 0001:00028427       ?nextElement@?$RefHashTableOfEnumerator@VFieldValueMap@xercesc_3_1@@UICValueHasher@2@@xercesc_3_1@@UAEAAVFieldValueMap@2@XZ 12029427 f i ValueStore.obj
 0001:00028427       ?nextElement@?$RefHashTableOfEnumerator@VGrammar@xercesc_3_1@@UStringHasher@2@@xercesc_3_1@@UAEAAVGrammar@2@XZ 12029427 f i XMLGrammarPoolImpl.obj
 0001:00028427       ?nextElement@?$RefHashTableOfEnumerator@VKVStringPair@xercesc_3_1@@UStringHasher@2@@xercesc_3_1@@UAEAAVKVStringPair@2@XZ 12029427 f i XSObjectFactory.obj
 0001:00028427       ?nextElement@?$RefHashTableOfEnumerator@VValueStore@xercesc_3_1@@UPtrHasher@2@@xercesc_3_1@@UAEAAVValueStore@2@XZ 12029427 f i ValueStoreCache.obj
 0001:00028427       ?nextElement@?$RefHashTableOfEnumerator@VXMLAttDef@xercesc_3_1@@UStringHasher@2@@xercesc_3_1@@UAEAAVXMLAttDef@2@XZ 12029427 f i XSModel.obj
 0001:00028427       ?nextElement@?$RefHashTableOfEnumerator@VXMLRefInfo@xercesc_3_1@@UStringHasher@2@@xercesc_3_1@@UAEAAVXMLRefInfo@2@XZ 12029427 f i XMLScanner.obj
 0001:00028427       ?nextElement@?$RefHashTableOfEnumerator@VXSAnnotation@xercesc_3_1@@UPtrHasher@2@@xercesc_3_1@@UAEAAVXSAnnotation@2@XZ 12029427 f i XTemplateSerializer.obj
 0001:00028427       ?nextElement@?$RefHashTableOfEnumerator@VXercesAttGroupInfo@xercesc_3_1@@UStringHasher@2@@xercesc_3_1@@UAEAAVXercesAttGroupInfo@2@XZ 12029427 f i XSModel.obj
 0001:00028427       ?nextElement@?$RefHashTableOfEnumerator@VXercesGroupInfo@xercesc_3_1@@UStringHasher@2@@xercesc_3_1@@UAEAAVXercesGroupInfo@2@XZ 12029427 f i XSModel.obj
 0001:00028427       ?nextElement@?$RefHashTableOfEnumerator@_WUStringHasher@xercesc_3_1@@@xercesc_3_1@@UAEAA_WXZ 12029427 f i DOMNormalizer.obj
 0001:00028472       ?Reset@?$RefHashTableOfEnumerator@VComplexTypeInfo@xercesc_3_1@@UStringHasher@2@@xercesc_3_1@@UAEXXZ 12029472 f i XSModel.obj
 0001:00028472       ?Reset@?$RefHashTableOfEnumerator@VDTDAttDef@xercesc_3_1@@UStringHasher@2@@xercesc_3_1@@UAEXXZ 12029472 f i XTemplateSerializer.obj
 0001:00028472       ?Reset@?$RefHashTableOfEnumerator@VDatatypeValidator@xercesc_3_1@@UStringHasher@2@@xercesc_3_1@@UAEXXZ 12029472 f i XSModel.obj
 0001:00028472       ?Reset@?$RefHashTableOfEnumerator@VFieldValueMap@xercesc_3_1@@UICValueHasher@2@@xercesc_3_1@@UAEXXZ 12029472 f i ValueStore.obj
 0001:00028472       ?Reset@?$RefHashTableOfEnumerator@VGrammar@xercesc_3_1@@UStringHasher@2@@xercesc_3_1@@UAEXXZ 12029472 f i XMLGrammarPoolImpl.obj
 0001:00028472       ?Reset@?$RefHashTableOfEnumerator@VKVStringPair@xercesc_3_1@@UStringHasher@2@@xercesc_3_1@@UAEXXZ 12029472 f i XSObjectFactory.obj
 0001:00028472       ?Reset@?$RefHashTableOfEnumerator@VValueStore@xercesc_3_1@@UPtrHasher@2@@xercesc_3_1@@UAEXXZ 12029472 f i ValueStoreCache.obj
 0001:00028472       ?Reset@?$RefHashTableOfEnumerator@VXMLAttDef@xercesc_3_1@@UStringHasher@2@@xercesc_3_1@@UAEXXZ 12029472 f i XSModel.obj
 0001:00028472       ?Reset@?$RefHashTableOfEnumerator@VXMLRefInfo@xercesc_3_1@@UStringHasher@2@@xercesc_3_1@@UAEXXZ 12029472 f i XMLScanner.obj
 0001:00028472       ?Reset@?$RefHashTableOfEnumerator@VXSAnnotation@xercesc_3_1@@UPtrHasher@2@@xercesc_3_1@@UAEXXZ 12029472 f i XTemplateSerializer.obj
 0001:00028472       ?Reset@?$RefHashTableOfEnumerator@VXercesAttGroupInfo@xercesc_3_1@@UStringHasher@2@@xercesc_3_1@@UAEXXZ 12029472 f i XSModel.obj
 0001:00028472       ?Reset@?$RefHashTableOfEnumerator@VXercesGroupInfo@xercesc_3_1@@UStringHasher@2@@xercesc_3_1@@UAEXXZ 12029472 f i XSModel.obj
 0001:00028472       ?Reset@?$RefHashTableOfEnumerator@_WUStringHasher@xercesc_3_1@@@xercesc_3_1@@UAEXXZ 12029472 f i DOMNormalizer.obj
 0001:0002847f       ??0?$RefHashTableOf@VDTDAttDef@xercesc_3_1@@UStringHasher@2@@xercesc_3_1@@QAE@K_NQAVMemoryManager@1@@Z 1202947f f i XTemplateSerializer.obj
 0001:0002847f       ??0?$RefHashTableOf@VGrammar@xercesc_3_1@@UStringHasher@2@@xercesc_3_1@@QAE@K_NQAVMemoryManager@1@@Z 1202947f f i XMLGrammarPoolImpl.obj
 0001:0002847f       ??0?$RefHashTableOf@VXSAnnotation@xercesc_3_1@@UPtrHasher@2@@xercesc_3_1@@QAE@K_NQAVMemoryManager@1@@Z 1202947f f i XTemplateSerializer.obj
 0001:000284f2       ?removeAll@?$RefHashTableOf@VDTDElementDecl@xercesc_3_1@@UStringHasher@2@@xercesc_3_1@@QAEXXZ 120294f2 f i XMLGrammarPoolImpl.obj
 0001:000284f2       ?removeAll@?$RefHashTableOf@VDTDEntityDecl@xercesc_3_1@@UStringHasher@2@@xercesc_3_1@@QAEXXZ 120294f2 f i XTemplateSerializer.obj
 0001:000284f2       ?removeAll@?$RefHashTableOf@VDatatypeValidator@xercesc_3_1@@UStringHasher@2@@xercesc_3_1@@QAEXXZ 120294f2 f i XMLGrammarPoolImpl.obj
 0001:000284f2       ?removeAll@?$RefHashTableOf@VGrammar@xercesc_3_1@@UStringHasher@2@@xercesc_3_1@@QAEXXZ 120294f2 f i XMLGrammarPoolImpl.obj
 0001:000284f2       ?removeAll@?$RefHashTableOf@VXMLElementDecl@xercesc_3_1@@UStringHasher@2@@xercesc_3_1@@QAEXXZ 120294f2 f i WFXMLScanner.obj
 0001:000284f2       ?removeAll@?$RefHashTableOf@VXMLNotationDecl@xercesc_3_1@@UStringHasher@2@@xercesc_3_1@@QAEXXZ 120294f2 f i XTemplateSerializer.obj
 0001:000284f2       ?removeAll@?$RefHashTableOf@VXMLRefInfo@xercesc_3_1@@UStringHasher@2@@xercesc_3_1@@QAEXXZ 120294f2 f i ValidationContextImpl.obj
 0001:000284f2       ?removeAll@?$RefHashTableOf@VXSAnnotation@xercesc_3_1@@UPtrHasher@2@@xercesc_3_1@@QAEXXZ 120294f2 f i XTemplateSerializer.obj
 0001:00028551       ?orphanKey@?$RefHashTableOf@VGrammar@xercesc_3_1@@UStringHasher@2@@xercesc_3_1@@QAEPAVGrammar@2@QBX@Z 12029551 f i XMLGrammarPoolImpl.obj
 0001:000285ec       ??0?$RefVectorOf@VSchemaAttDef@xercesc_3_1@@@xercesc_3_1@@QAE@K_NQAVMemoryManager@1@@Z 120295ec f i XMLGrammarPoolImpl.obj
 0001:00028686       ??1?$RefVectorOf@VSchemaAttDef@xercesc_3_1@@@xercesc_3_1@@UAE@XZ 12029686 f i XMLGrammarPoolImpl.obj
 0001:000286fa       ??0?$RefHash3KeysIdPoolEnumerator@VSchemaElementDecl@xercesc_3_1@@UStringHasher@2@@xercesc_3_1@@QAE@QAV?$RefHash3KeysIdPool@VSchemaElementDecl@xercesc_3_1@@UStringHasher@2@@1@_NQAVMemoryManager@1@@Z 120296fa f i XMLGrammarPoolImpl.obj
 0001:00028774       ??1?$RefHash3KeysIdPoolEnumerator@VSchemaElementDecl@xercesc_3_1@@UStringHasher@2@@xercesc_3_1@@UAE@XZ 12029774 f i XMLGrammarPoolImpl.obj
 0001:000287a2       ?hasMoreElements@?$RefHash3KeysIdPoolEnumerator@VSchemaElementDecl@xercesc_3_1@@UStringHasher@2@@xercesc_3_1@@UBE_NXZ 120297a2 f i XMLGrammarPoolImpl.obj
 0001:000287b7       ?nextElement@?$RefHash3KeysIdPoolEnumerator@VSchemaElementDecl@xercesc_3_1@@UStringHasher@2@@xercesc_3_1@@UAEAAVSchemaElementDecl@2@XZ 120297b7 f i XMLGrammarPoolImpl.obj
 0001:00028802       ?Reset@?$RefHash3KeysIdPoolEnumerator@VSchemaElementDecl@xercesc_3_1@@UStringHasher@2@@xercesc_3_1@@UAEXXZ 12029802 f i XMLGrammarPoolImpl.obj
 0001:00028811       ??0?$NameIdPoolEnumerator@VXMLNotationDecl@xercesc_3_1@@@xercesc_3_1@@QAE@QAV?$NameIdPool@VXMLNotationDecl@xercesc_3_1@@@1@QAVMemoryManager@1@@Z 12029811 f i XMLGrammarPoolImpl.obj
 0001:0002883b       ??1?$NameIdPoolEnumerator@VXMLNotationDecl@xercesc_3_1@@@xercesc_3_1@@UAE@XZ 1202983b f i XMLGrammarPoolImpl.obj
 0001:00028842       ?hasMoreElements@?$NameIdPoolEnumerator@VDTDElementDecl@xercesc_3_1@@@xercesc_3_1@@UBE_NXZ 12029842 f i XMLGrammarPoolImpl.obj
 0001:00028842       ?hasMoreElements@?$NameIdPoolEnumerator@VDTDEntityDecl@xercesc_3_1@@@xercesc_3_1@@UBE_NXZ 12029842 f i XMLGrammarPoolImpl.obj
 0001:00028842       ?hasMoreElements@?$NameIdPoolEnumerator@VXMLNotationDecl@xercesc_3_1@@@xercesc_3_1@@UBE_NXZ 12029842 f i XMLGrammarPoolImpl.obj
 0001:00028857       ?nextElement@?$NameIdPoolEnumerator@VDTDElementDecl@xercesc_3_1@@@xercesc_3_1@@UAEAAVDTDElementDecl@2@XZ 12029857 f i XMLGrammarPoolImpl.obj
 0001:00028857       ?nextElement@?$NameIdPoolEnumerator@VDTDEntityDecl@xercesc_3_1@@@xercesc_3_1@@UAEAAVDTDEntityDecl@2@XZ 12029857 f i XMLGrammarPoolImpl.obj
 0001:00028857       ?nextElement@?$NameIdPoolEnumerator@VXMLNotationDecl@xercesc_3_1@@@xercesc_3_1@@UAEAAVXMLNotationDecl@2@XZ 12029857 f i XMLGrammarPoolImpl.obj
 0001:000288a2       ?Reset@?$NameIdPoolEnumerator@VDTDElementDecl@xercesc_3_1@@@xercesc_3_1@@UAEXXZ 120298a2 f i XMLGrammarPoolImpl.obj
 0001:000288a2       ?Reset@?$NameIdPoolEnumerator@VDTDEntityDecl@xercesc_3_1@@@xercesc_3_1@@UAEXXZ 120298a2 f i XMLGrammarPoolImpl.obj
 0001:000288a2       ?Reset@?$NameIdPoolEnumerator@VXMLNotationDecl@xercesc_3_1@@@xercesc_3_1@@UAEXXZ 120298a2 f i XMLGrammarPoolImpl.obj
 0001:000288b1       ?get@?$RefHashTableOf@IUPtrHasher@xercesc_3_1@@@xercesc_3_1@@QAEPAIQBX@Z 120298b1 f i DGXMLScanner.obj
 0001:000288b1       ?get@?$RefHashTableOf@VSchemaInfo@xercesc_3_1@@UPtrHasher@2@@xercesc_3_1@@QAEPAVSchemaInfo@2@QBX@Z 120298b1 f i TraverseSchema.obj
 0001:000288b1       ?get@?$RefHashTableOf@VValueStore@xercesc_3_1@@UPtrHasher@2@@xercesc_3_1@@QAEPAVValueStore@2@QBX@Z 120298b1 f i IGXMLScanner.obj
 0001:000288b1       ?get@?$RefHashTableOf@VXSAnnotation@xercesc_3_1@@UPtrHasher@2@@xercesc_3_1@@QAEPAVXSAnnotation@2@QBX@Z 120298b1 f i XMLGrammarPoolImpl.obj
 0001:000288e2       ??0?$RefHash3KeysIdPool@VSchemaElementDecl@xercesc_3_1@@UStringHasher@2@@xercesc_3_1@@QAE@K_NKQAVMemoryManager@1@@Z 120298e2 f i XMLGrammarPoolImpl.obj
 0001:00028980       ?getByKey@?$RefHash3KeysIdPool@VSchemaElementDecl@xercesc_3_1@@UStringHasher@2@@xercesc_3_1@@QAEPAVSchemaElementDecl@2@QBXHH@Z 12029980 f i XMLGrammarPoolImpl.obj
 0001:000289a0       ?getById@?$RefHash3KeysIdPool@VSchemaElementDecl@xercesc_3_1@@UStringHasher@2@@xercesc_3_1@@QAEPAVSchemaElementDecl@2@I@Z 120299a0 f i XMLGrammarPoolImpl.obj
 0001:000289e3       ?put@?$RefHash3KeysIdPool@VSchemaElementDecl@xercesc_3_1@@UStringHasher@2@@xercesc_3_1@@QAEKPAXHHQAVSchemaElementDecl@2@@Z 120299e3 f i XMLGrammarPoolImpl.obj
 0001:00028ae3       ?put@?$NameIdPool@VXMLNotationDecl@xercesc_3_1@@@xercesc_3_1@@QAEKQAVXMLNotationDecl@2@@Z 12029ae3 f i XMLGrammarPoolImpl.obj
 0001:00028be1       ?addElement@?$ValueVectorOf@H@xercesc_3_1@@QAEXABH@Z 12029be1 f i XMLGrammarPoolImpl.obj
 0001:00028be1       ?addElement@?$ValueVectorOf@I@xercesc_3_1@@QAEXABI@Z 12029be1 f i XTemplateSerializer.obj
 0001:00028be1       ?addElement@?$ValueVectorOf@K@xercesc_3_1@@QAEXABK@Z 12029be1 f i WFXMLScanner.obj
 0001:00028be1       ?addElement@?$ValueVectorOf@PAUPrefMapElem@xercesc_3_1@@@xercesc_3_1@@QAEXABQAUPrefMapElem@2@@Z 12029be1 f i ElemStack.obj
 0001:00028be1       ?addElement@?$ValueVectorOf@PAVComplexTypeInfo@xercesc_3_1@@@xercesc_3_1@@QAEXABQAVComplexTypeInfo@2@@Z 12029be1 f i SchemaValidator.obj
 0001:00028be1       ?addElement@?$ValueVectorOf@PAVContentSpecNode@xercesc_3_1@@@xercesc_3_1@@QAEXABQAVContentSpecNode@2@@Z 12029be1 f i SchemaValidator.obj
 0001:00028be1       ?addElement@?$ValueVectorOf@PAVDOMElement@xercesc_3_1@@@xercesc_3_1@@QAEXABQAVDOMElement@2@@Z 12029be1 f i TraverseSchema.obj
 0001:00028be1       ?addElement@?$ValueVectorOf@PAVDOMNode@xercesc_3_1@@@xercesc_3_1@@QAEXABQAVDOMNode@2@@Z 12029be1 f i GeneralAttributeCheck.obj
 0001:00028be1       ?addElement@?$ValueVectorOf@PAVDatatypeValidator@xercesc_3_1@@@xercesc_3_1@@QAEXABQAVDatatypeValidator@2@@Z 12029be1 f i IGXMLScanner2.obj
 0001:00028be1       ?addElement@?$ValueVectorOf@PAVIC_Field@xercesc_3_1@@@xercesc_3_1@@QAEXABQAVIC_Field@2@@Z 12029be1 f i IGXMLScanner2.obj
 0001:00028be1       ?addElement@?$ValueVectorOf@PAVQName@xercesc_3_1@@@xercesc_3_1@@QAEXABQAVQName@2@@Z 12029be1 f i AllContentModel.obj
 0001:00028be1       ?addElement@?$ValueVectorOf@PAVSchemaElementDecl@xercesc_3_1@@@xercesc_3_1@@QAEXABQAVSchemaElementDecl@2@@Z 12029be1 f i XTemplateSerializer.obj
 0001:00028be1       ?addElement@?$ValueVectorOf@PAVSchemaGrammar@xercesc_3_1@@@xercesc_3_1@@QAEXABQAVSchemaGrammar@2@@Z 12029be1 f i GrammarResolver.obj
 0001:00028be1       ?addElement@?$ValueVectorOf@PAVXMLAttr@xercesc_3_1@@@xercesc_3_1@@QAEXABQAVXMLAttr@2@@Z 12029be1 f i DGXMLScanner.obj
 0001:00028be1       ?addElement@?$ValueVectorOf@PAVXercesAttGroupInfo@xercesc_3_1@@@xercesc_3_1@@QAEXABQAVXercesAttGroupInfo@2@@Z 12029be1 f i TraverseSchema.obj
 0001:00028be1       ?addElement@?$ValueVectorOf@PAX@xercesc_3_1@@QAEXABQAX@Z 12029be1 f i XSerializeEngine.obj
 0001:00028be1       ?addElement@?$ValueVectorOf@PA_W@xercesc_3_1@@QAEXABQA_W@Z 12029be1 f i IGXMLScanner.obj
 0001:00028be1       ?addElement@?$ValueVectorOf@PBVDOMElement@xercesc_3_1@@@xercesc_3_1@@QAEXABQBVDOMElement@2@@Z 12029be1 f i IGXMLScanner.obj
 0001:00028be1       ?addElement@?$ValueVectorOf@PB_W@xercesc_3_1@@QAEXABQB_W@Z 12029be1 f i IGXMLScanner.obj
 0001:00028be1       ?addElement@?$ValueVectorOf@W4NodeTypes@ContentSpecNode@xercesc_3_1@@@xercesc_3_1@@QAEXABW4NodeTypes@ContentSpecNode@2@@Z 12029be1 f i MixedContentModel.obj
 0001:00028c6b       ??0?$NameIdPool@VDTDElementDecl@xercesc_3_1@@@xercesc_3_1@@QAE@KKQAVMemoryManager@1@@Z 12029c6b f i XMLGrammarPoolImpl.obj
 0001:00028c6b       ??0?$NameIdPool@VDTDEntityDecl@xercesc_3_1@@@xercesc_3_1@@QAE@KKQAVMemoryManager@1@@Z 12029c6b f i XTemplateSerializer.obj
 0001:00028c6b       ??0?$NameIdPool@VXMLNotationDecl@xercesc_3_1@@@xercesc_3_1@@QAE@KKQAVMemoryManager@1@@Z 12029c6b f i XTemplateSerializer.obj
 0001:00028d16       ?getById@?$NameIdPool@VDTDElementDecl@xercesc_3_1@@@xercesc_3_1@@QAEPAVDTDElementDecl@2@K@Z 12029d16 f i XMLGrammarPoolImpl.obj
 0001:00028d56       ?put@?$NameIdPool@VDTDElementDecl@xercesc_3_1@@@xercesc_3_1@@QAEKQAVDTDElementDecl@2@@Z 12029d56 f i XMLGrammarPoolImpl.obj
 0001:00028e63       ??1?$NameIdPoolEnumerator@VDTDElementDecl@xercesc_3_1@@@xercesc_3_1@@UAE@XZ 12029e63 f i XMLGrammarPoolImpl.obj
 0001:00028e6a       ??1?$NameIdPoolEnumerator@VDTDEntityDecl@xercesc_3_1@@@xercesc_3_1@@UAE@XZ 12029e6a f i XMLGrammarPoolImpl.obj
 0001:00028e71       ??_E?$RefHashTableOfEnumerator@VGrammar@xercesc_3_1@@UStringHasher@2@@xercesc_3_1@@UAEPAXI@Z 12029e71 f i * CIL library *:* CIL module *
 0001:00028e71       ??_G?$RefHashTableOfEnumerator@VGrammar@xercesc_3_1@@UStringHasher@2@@xercesc_3_1@@UAEPAXI@Z 12029e71 f i XMLGrammarPoolImpl.obj
 0001:00028ea1       ??_E?$RefVectorOf@VSchemaAttDef@xercesc_3_1@@@xercesc_3_1@@UAEPAXI@Z 12029ea1 f i * CIL library *:* CIL module *
 0001:00028ea1       ??_G?$RefVectorOf@VSchemaAttDef@xercesc_3_1@@@xercesc_3_1@@UAEPAXI@Z 12029ea1 f i XMLGrammarPoolImpl.obj
 0001:00028ed1       ??_E?$BaseRefVectorOf@VSchemaAttDef@xercesc_3_1@@@xercesc_3_1@@UAEPAXI@Z 12029ed1 f i * CIL library *:* CIL module *
 0001:00028ed1       ??_G?$BaseRefVectorOf@VSchemaAttDef@xercesc_3_1@@@xercesc_3_1@@UAEPAXI@Z 12029ed1 f i XMLGrammarPoolImpl.obj
 0001:00028f02       ??_E?$RefHash3KeysIdPoolEnumerator@VSchemaElementDecl@xercesc_3_1@@UStringHasher@2@@xercesc_3_1@@UAEPAXI@Z 12029f02 f i * CIL library *:* CIL module *
 0001:00028f02       ??_G?$RefHash3KeysIdPoolEnumerator@VSchemaElementDecl@xercesc_3_1@@UStringHasher@2@@xercesc_3_1@@UAEPAXI@Z 12029f02 f i XMLGrammarPoolImpl.obj
 0001:00028f32       ??_E?$NameIdPoolEnumerator@VXMLNotationDecl@xercesc_3_1@@@xercesc_3_1@@UAEPAXI@Z 12029f32 f i * CIL library *:* CIL module *
 0001:00028f32       ??_G?$NameIdPoolEnumerator@VXMLNotationDecl@xercesc_3_1@@@xercesc_3_1@@UAEPAXI@Z 12029f32 f i XMLGrammarPoolImpl.obj
 0001:00028f63       ??_E?$NameIdPoolEnumerator@VDTDElementDecl@xercesc_3_1@@@xercesc_3_1@@UAEPAXI@Z 12029f63 f i * CIL library *:* CIL module *
 0001:00028f63       ??_G?$NameIdPoolEnumerator@VDTDElementDecl@xercesc_3_1@@@xercesc_3_1@@UAEPAXI@Z 12029f63 f i XMLGrammarPoolImpl.obj
 0001:00028f94       ??_E?$NameIdPoolEnumerator@VDTDEntityDecl@xercesc_3_1@@@xercesc_3_1@@UAEPAXI@Z 12029f94 f i * CIL library *:* CIL module *
 0001:00028f94       ??_G?$NameIdPoolEnumerator@VDTDEntityDecl@xercesc_3_1@@@xercesc_3_1@@UAEPAXI@Z 12029f94 f i XMLGrammarPoolImpl.obj
 0001:00028fc5       ?findNext@?$RefHashTableOfEnumerator@VComplexTypeInfo@xercesc_3_1@@UStringHasher@2@@xercesc_3_1@@AAEXXZ 12029fc5 f i XSModel.obj
 0001:00028fc5       ?findNext@?$RefHashTableOfEnumerator@VDTDAttDef@xercesc_3_1@@UStringHasher@2@@xercesc_3_1@@AAEXXZ 12029fc5 f i XTemplateSerializer.obj
 0001:00028fc5       ?findNext@?$RefHashTableOfEnumerator@VDatatypeValidator@xercesc_3_1@@UStringHasher@2@@xercesc_3_1@@AAEXXZ 12029fc5 f i XSModel.obj
 0001:00028fc5       ?findNext@?$RefHashTableOfEnumerator@VFieldValueMap@xercesc_3_1@@UICValueHasher@2@@xercesc_3_1@@AAEXXZ 12029fc5 f i ValueStore.obj
 0001:00028fc5       ?findNext@?$RefHashTableOfEnumerator@VGrammar@xercesc_3_1@@UStringHasher@2@@xercesc_3_1@@AAEXXZ 12029fc5 f i XMLGrammarPoolImpl.obj
 0001:00028fc5       ?findNext@?$RefHashTableOfEnumerator@VKVStringPair@xercesc_3_1@@UStringHasher@2@@xercesc_3_1@@AAEXXZ 12029fc5 f i XSObjectFactory.obj
 0001:00028fc5       ?findNext@?$RefHashTableOfEnumerator@VValueStore@xercesc_3_1@@UPtrHasher@2@@xercesc_3_1@@AAEXXZ 12029fc5 f i ValueStoreCache.obj
 0001:00028fc5       ?findNext@?$RefHashTableOfEnumerator@VXMLAttDef@xercesc_3_1@@UStringHasher@2@@xercesc_3_1@@AAEXXZ 12029fc5 f i XSModel.obj
 0001:00028fc5       ?findNext@?$RefHashTableOfEnumerator@VXMLRefInfo@xercesc_3_1@@UStringHasher@2@@xercesc_3_1@@AAEXXZ 12029fc5 f i XMLScanner.obj
 0001:00028fc5       ?findNext@?$RefHashTableOfEnumerator@VXSAnnotation@xercesc_3_1@@UPtrHasher@2@@xercesc_3_1@@AAEXXZ 12029fc5 f i XTemplateSerializer.obj
 0001:00028fc5       ?findNext@?$RefHashTableOfEnumerator@VXercesAttGroupInfo@xercesc_3_1@@UStringHasher@2@@xercesc_3_1@@AAEXXZ 12029fc5 f i XSModel.obj
 0001:00028fc5       ?findNext@?$RefHashTableOfEnumerator@VXercesGroupInfo@xercesc_3_1@@UStringHasher@2@@xercesc_3_1@@AAEXXZ 12029fc5 f i XSModel.obj
 0001:00028fc5       ?findNext@?$RefHashTableOfEnumerator@_WUStringHasher@xercesc_3_1@@@xercesc_3_1@@AAEXXZ 12029fc5 f i DOMNormalizer.obj
 0001:00029016       ??1?$RefHash3KeysIdPool@VSchemaElementDecl@xercesc_3_1@@UStringHasher@2@@xercesc_3_1@@QAE@XZ 1202a016 f i XMLGrammarPoolImpl.obj
 0001:0002906f       ?findBucketElem@?$RefHash3KeysIdPool@VSchemaElementDecl@xercesc_3_1@@UStringHasher@2@@xercesc_3_1@@AAEPAU?$RefHash3KeysTableBucketElem@VSchemaElementDecl@xercesc_3_1@@@2@QBXHHAAK@Z 1202a06f f i XMLGrammarPoolImpl.obj
 0001:000290c8       ?findNext@?$RefHash3KeysIdPoolEnumerator@VSchemaElementDecl@xercesc_3_1@@UStringHasher@2@@xercesc_3_1@@AAEXXZ 1202a0c8 f i XMLGrammarPoolImpl.obj
 0001:00029119       ?removeAll@?$RefHash3KeysIdPool@VSchemaElementDecl@xercesc_3_1@@UStringHasher@2@@xercesc_3_1@@QAEXXZ 1202a119 f i XMLGrammarPoolImpl.obj
 0001:00029178       ??_EXMLNotationDecl@xercesc_3_1@@UAEPAXI@Z 1202a178 f i XMLNotationDecl.obj
 0001:00029210       ??0XMLNotationDecl@xercesc_3_1@@QAE@QAVMemoryManager@1@@Z 1202a210 f   XMLNotationDecl.obj
 0001:00029239       ??0XMLNotationDecl@xercesc_3_1@@QAE@QB_W000QAVMemoryManager@1@@Z 1202a239 f   XMLNotationDecl.obj
 0001:000292d8       ??1XMLNotationDecl@xercesc_3_1@@UAE@XZ 1202a2d8 f   XMLNotationDecl.obj
 0001:00029321       ?setName@XMLNotationDecl@xercesc_3_1@@QAEXQB_W@Z 1202a321 f   XMLNotationDecl.obj
 0001:0002934f       ?cleanUp@XMLNotationDecl@xercesc_3_1@@AAEXXZ 1202a34f f   XMLNotationDecl.obj
 0001:00029380       ?createObject@XMLNotationDecl@xercesc_3_1@@SAPAVXSerializable@2@PAVMemoryManager@2@@Z 1202a380 f   XMLNotationDecl.obj
 0001:000293a7       ?getProtoType@XMLNotationDecl@xercesc_3_1@@UBEPAVXProtoType@2@XZ 1202a3a7 f   XMLNotationDecl.obj
 0001:000293ad       ?serialize@XMLNotationDecl@xercesc_3_1@@UAEXAAVXSerializeEngine@2@@Z 1202a3ad f   XMLNotationDecl.obj
 0001:0002948a       ?basicEncodingProbe@XMLRecognizer@xercesc_3_1@@SA?AW4Encodings@12@QBEK@Z 1202a48a f   XMLRecognizer.obj
 0001:000295bf       ?encodingForName@XMLRecognizer@xercesc_3_1@@SA?AW4Encodings@12@QB_W@Z 1202a5bf f   XMLRecognizer.obj
 0001:0002975f       ?nameForEncoding@XMLRecognizer@xercesc_3_1@@SAPB_WW4Encodings@12@QAVMemoryManager@2@@Z 1202a75f f   XMLRecognizer.obj
 0001:0002979e       ?createObject@XMLRefInfo@xercesc_3_1@@SAPAVXSerializable@2@PAVMemoryManager@2@@Z 1202a79e f   XMLRefInfo.obj
 0001:000297d0       ?getProtoType@XMLRefInfo@xercesc_3_1@@UBEPAVXProtoType@2@XZ 1202a7d0 f   XMLRefInfo.obj
 0001:000297d6       ?serialize@XMLRefInfo@xercesc_3_1@@UAEXAAVXSerializeEngine@2@@Z 1202a7d6 f   XMLRefInfo.obj
 0001:0002983c       ??0XMLRefInfo@xercesc_3_1@@QAE@QAVMemoryManager@1@@Z 1202a83c f   XMLRefInfo.obj
 0001:0002985a       ??0XMLSchemaDescription@xercesc_3_1@@IAE@QAVMemoryManager@1@@Z 1202a85a f   XMLSchemaDescription.obj
 0001:0002986f       ?getProtoType@XMLSchemaDescription@xercesc_3_1@@UBEPAVXProtoType@2@XZ 1202a86f f   XMLSchemaDescription.obj
 0001:00029875       ?errorType@XMLValid@xercesc_3_1@@SA?AW4ErrTypes@XMLErrorReporter@2@W4Codes@12@@Z 1202a875 f i XMLValidator.obj
 0001:0002989b       ??1DTDValidator@xercesc_3_1@@UAE@XZ 1202a89b f i DTDValidator.obj
 0001:0002989b       ??1XMLValidator@xercesc_3_1@@UAE@XZ 1202a89b f i XMLValidator.obj
 0001:000298a2       ??_FXMLValidator@xercesc_3_1@@QAEXXZ 1202a8a2 f i XMLValidator.obj
 0001:000298b7       ??_EXMLValidator@xercesc_3_1@@UAEPAXI@Z 1202a8b7 f i XMLValidator.obj
 0001:0002994e       ?setScannerInfo@XMLValidator@xercesc_3_1@@QAEXQAVXMLScanner@2@QAVReaderMgr@2@QAVXMLBufferMgr@2@@Z 1202a94e f i XMLValidator.obj
 0001:00029967       ??0SecurityManager@xercesc_3_1@@QAE@XZ 1202a967 f i XMLValidator.obj
 0001:00029977       ??1SecurityManager@xercesc_3_1@@UAE@XZ 1202a977 f i XMLValidator.obj
 0001:0002997e       ??_ESecurityManager@xercesc_3_1@@UAEPAXI@Z 1202a97e f i XMLValidator.obj
 0001:00029a0a       ??0Locator@xercesc_3_1@@QAE@XZ 1202aa0a f i XMLValidator.obj
 0001:00029a13       ??1Locator@xercesc_3_1@@UAE@XZ 1202aa13 f i XMLValidator.obj
 0001:00029a13       ??1XSDLocator@xercesc_3_1@@UAE@XZ 1202aa13 f i IGXMLScanner2.obj
 0001:00029a1a       ??_ELocator@xercesc_3_1@@UAEPAXI@Z 1202aa1a f i XMLValidator.obj
 0001:00029aa6       ??_FReaderMgr@xercesc_3_1@@QAEXXZ 1202aaa6 f i XMLValidator.obj
 0001:00029ab2       ?getCurrentReaderNum@ReaderMgr@xercesc_3_1@@QBEKXZ 1202aab2 f i XMLValidator.obj
 0001:00029abc       ?getName@ReaderMgr@xercesc_3_1@@QAE_NAAVXMLBuffer@2@@Z 1202aabc f i XMLValidator.obj
 0001:00029ad4       ?getQName@ReaderMgr@xercesc_3_1@@QAE_NAAVXMLBuffer@2@PAH@Z 1202aad4 f i XMLValidator.obj
 0001:00029aed       ?getNameToken@ReaderMgr@xercesc_3_1@@QAE_NAAVXMLBuffer@2@@Z 1202aaed f i XMLValidator.obj
 0001:00029b05       ?getNextCharIfNot@ReaderMgr@xercesc_3_1@@QAE_N_WAA_W@Z 1202ab05 f i XMLValidator.obj
 0001:00029b11       ?movePlainContentChars@ReaderMgr@xercesc_3_1@@QAEXAAVXMLBuffer@2@@Z 1202ab11 f i XMLValidator.obj
 0001:00029b25       ?getSrcOffset@ReaderMgr@xercesc_3_1@@QBE_KXZ 1202ab25 f i XMLValidator.obj
 0001:00029b48       ?lookingAtChar@ReaderMgr@xercesc_3_1@@QAE_N_W@Z 1202ab48 f i XMLValidator.obj
 0001:00029b5d       ?lookingAtSpace@ReaderMgr@xercesc_3_1@@QAE_NXZ 1202ab5d f i XMLValidator.obj
 0001:00029b79       ?skippedString@ReaderMgr@xercesc_3_1@@QAE_NQB_W@Z 1202ab79 f i XMLValidator.obj
 0001:00029b8d       ?skippedStringLong@ReaderMgr@xercesc_3_1@@QAE_NQB_W@Z 1202ab8d f i XMLValidator.obj
 0001:00029ba1       ?skipPastChar@ReaderMgr@xercesc_3_1@@QAEX_W@Z 1202aba1 f i XMLValidator.obj
 0001:00029ba1       ?skipToChar@ReaderMgr@xercesc_3_1@@QAEX_W@Z 1202aba1 f i XMLValidator.obj
 0001:00029bc1       ?peekString@ReaderMgr@xercesc_3_1@@QAE_NQB_W@Z 1202abc1 f i XMLValidator.obj
 0001:00029bd5       ?setXMLVersion@ReaderMgr@xercesc_3_1@@QAEXW4XMLVersion@XMLReader@2@@Z 1202abd5 f i XMLValidator.obj
 0001:00029beb       ??0ThrowEOEJanitor@xercesc_3_1@@QAE@PAVReaderMgr@1@_N@Z 1202abeb f i XMLValidator.obj
 0001:00029c05       ??1ThrowEOEJanitor@xercesc_3_1@@QAE@XZ 1202ac05 f i XMLValidator.obj
 0001:00029c0e       ??_FElemStack@xercesc_3_1@@QAEXXZ 1202ac0e f i XMLValidator.obj
 0001:00029c1a       ??_FWFElemStack@xercesc_3_1@@QAEXXZ 1202ac1a f i XMLValidator.obj
 0001:00029c26       ?isEmpty@ElemStack@xercesc_3_1@@QBE_NXZ 1202ac26 f i XMLValidator.obj
 0001:00029c2e       ?getValidationFlag@ElemStack@xercesc_3_1@@QAE_NXZ 1202ac2e f i XMLValidator.obj
 0001:00029c3c       ?setValidationFlag@ElemStack@xercesc_3_1@@QAEX_N@Z 1202ac3c f i XMLValidator.obj
 0001:00029c53       ?getCommentOrPISeen@ElemStack@xercesc_3_1@@QBE_NXZ 1202ac53 f i XMLValidator.obj
 0001:00029c61       ?setCommentOrPISeen@ElemStack@xercesc_3_1@@QAEXXZ 1202ac61 f i XMLValidator.obj
 0001:00029c70       ?getReferenceEscaped@ElemStack@xercesc_3_1@@QBE_NXZ 1202ac70 f i XMLValidator.obj
 0001:00029c7e       ?setReferenceEscaped@ElemStack@xercesc_3_1@@QAEXXZ 1202ac7e f i XMLValidator.obj
 0001:00029c8d       ?setCurrentSchemaElemName@ElemStack@xercesc_3_1@@QAEXQB_W@Z 1202ac8d f i XMLValidator.obj
 0001:00029cf8       ?getCurrentSchemaElemName@ElemStack@xercesc_3_1@@QAEPA_WXZ 1202acf8 f i XMLValidator.obj
 0001:00029d06       ?getCurrentScope@ElemStack@xercesc_3_1@@QAEHXZ 1202ad06 f i XMLValidator.obj
 0001:00029d14       ?setCurrentScope@ElemStack@xercesc_3_1@@QAEXH@Z 1202ad14 f i XMLValidator.obj
 0001:00029d2b       ?getCurrentGrammar@ElemStack@xercesc_3_1@@QAEPAVGrammar@2@XZ 1202ad2b f i XMLValidator.obj
 0001:00029d39       ?setCurrentGrammar@ElemStack@xercesc_3_1@@QAEXPAVGrammar@2@@Z 1202ad39 f i XMLValidator.obj
 0001:00029d50       ?getCurrentURI@ElemStack@xercesc_3_1@@QAEIXZ 1202ad50 f i XMLValidator.obj
 0001:00029d5e       ?setCurrentURI@ElemStack@xercesc_3_1@@QAEXI@Z 1202ad5e f i XMLValidator.obj
 0001:00029d75       ?getPrefixId@ElemStack@xercesc_3_1@@QBEIQB_W@Z 1202ad75 f i XMLValidator.obj
 0001:00029d81       ?getPrefixForId@ElemStack@xercesc_3_1@@QBEPB_WI@Z 1202ad81 f i XMLValidator.obj
 0001:00029d8d       ?setPrefixColonPos@ElemStack@xercesc_3_1@@QAEXH@Z 1202ad8d f i XMLValidator.obj
 0001:00029da4       ?getPrefixColonPos@ElemStack@xercesc_3_1@@QBEHXZ 1202ada4 f i XMLValidator.obj
 0001:00029db2       ?getCurrentURI@WFElemStack@xercesc_3_1@@QAEIXZ 1202adb2 f i XMLValidator.obj
 0001:00029dc0       ?setCurrentURI@WFElemStack@xercesc_3_1@@QAEXI@Z 1202adc0 f i XMLValidator.obj
 0001:00029dd7       ?setProcessed@SchemaInfo@xercesc_3_1@@QAEX_N@Z 1202add7 f i IGXMLScanner.obj
 0001:00029dd7       ?useCachedGrammarInParse@GrammarResolver@xercesc_3_1@@QAEX_N@Z 1202add7 f i XMLValidator.obj
 0001:00029de4       ?getGrammarPoolMemoryManager@GrammarResolver@xercesc_3_1@@QBEPAVMemoryManager@2@XZ 1202ade4 f i XMLValidator.obj
 0001:00029deb       ?bufferFull@XMLScanner@xercesc_3_1@@UAE_NAAVXMLBuffer@2@@Z 1202adeb f i XMLValidator.obj
 0001:00029dfc       ?getEscapedHRefAttrValue@XIncludeUtils@xercesc_3_1@@AAEPB_WPB_WAA_N@Z 1202adfc f i XIncludeUtils.obj
 0001:00029dfc       ?getFeature@DOMCDATASectionImpl@xercesc_3_1@@UBEPAXPB_W0@Z 1202adfc f i DOMCDATASectionImpl.obj
 0001:00029dfc       ?getFeature@DOMCommentImpl@xercesc_3_1@@UBEPAXPB_W0@Z 1202adfc f i DOMCommentImpl.obj
 0001:00029dfc       ?getFeature@DOMDocumentFragmentImpl@xercesc_3_1@@UBEPAXPB_W0@Z 1202adfc f i DOMDocumentFragmentImpl.obj
 0001:00029dfc       ?getFeature@DOMElementImpl@xercesc_3_1@@UBEPAXPB_W0@Z 1202adfc f i DOMElementImpl.obj
 0001:00029dfc       ?getFeature@DOMEntityImpl@xercesc_3_1@@UBEPAXPB_W0@Z 1202adfc f i DOMEntityImpl.obj
 0001:00029dfc       ?getFeature@DOMEntityReferenceImpl@xercesc_3_1@@UBEPAXPB_W0@Z 1202adfc f i DOMEntityReferenceImpl.obj
 0001:00029dfc       ?getFeature@DOMImplementationImpl@xercesc_3_1@@UBEPAXPB_W0@Z 1202adfc f i DOMImplementationImpl.obj
 0001:00029dfc       ?getFeature@DOMNodeImpl@xercesc_3_1@@QBEPAXPB_W0@Z 1202adfc f i DOMNodeImpl.obj
 0001:00029dfc       ?getFeature@DOMNotationImpl@xercesc_3_1@@UBEPAXPB_W0@Z 1202adfc f i DOMNotationImpl.obj
 0001:00029dfc       ?getFeature@DOMProcessingInstructionImpl@xercesc_3_1@@UBEPAXPB_W0@Z 1202adfc f i DOMProcessingInstructionImpl.obj
 0001:00029dfc       ?getFeature@DOMTextImpl@xercesc_3_1@@UBEPAXPB_W0@Z 1202adfc f i DOMTextImpl.obj
 0001:00029dfc       ?resolveEntity@DefaultHandler@xercesc_3_1@@UAEPAVInputSource@2@QB_W0@Z 1202adfc f i sax2Dummy.obj
 0001:00029dfc       ?resolveEntity@HandlerBase@xercesc_3_1@@UAEPAVInputSource@2@QB_W0@Z 1202adfc f i Dummy.obj
 0001:00029dfc       ?resolveSystemId@WFXMLScanner@xercesc_3_1@@EAEPAVInputSource@2@QB_W0@Z 1202adfc f i WFXMLScanner.obj
 0001:00029dfc       ?resolveSystemId@XMLScanner@xercesc_3_1@@MAEPAVInputSource@2@QB_W0@Z 1202adfc f i XMLValidator.obj
 0001:00029e01       ?getDocHandler@XMLScanner@xercesc_3_1@@QAEPAVXMLDocumentHandler@2@XZ 1202ae01 f i XMLValidator.obj
 0001:00029e01       ?getDocHandler@XMLScanner@xercesc_3_1@@QBEPBVXMLDocumentHandler@2@XZ 1202ae01 f i XMLValidator.obj
 0001:00029e01       ?getLexicalHandler@SAX2XMLReaderImpl@xercesc_3_1@@UBEPAVLexicalHandler@2@XZ 1202ae01 f i SAX2XMLReaderImpl.obj
 0001:00029e01       ?getXMLEntityResolver@XercesDOMParser@xercesc_3_1@@QAEPAVXMLEntityResolver@2@XZ 1202ae01 f i XSAnnotation.obj
 0001:00029e01       ?getXMLEntityResolver@XercesDOMParser@xercesc_3_1@@QBEPBVXMLEntityResolver@2@XZ 1202ae01 f i XSAnnotation.obj
 0001:00029e05       ?getDeclarationHandler@SAX2XMLReaderImpl@xercesc_3_1@@UBEPAVDeclHandler@2@XZ 1202ae05 f i SAX2XMLReaderImpl.obj
 0001:00029e05       ?getDocTypeHandler@XMLScanner@xercesc_3_1@@QAEPAVDocTypeHandler@2@XZ 1202ae05 f i XMLValidator.obj
 0001:00029e05       ?getDocTypeHandler@XMLScanner@xercesc_3_1@@QBEPBVDocTypeHandler@2@XZ 1202ae05 f i XMLValidator.obj
 0001:00029e05       ?getErrorHandler@XercesDOMParser@xercesc_3_1@@QAEPAVErrorHandler@2@XZ 1202ae05 f i XSAnnotation.obj
 0001:00029e05       ?getErrorHandler@XercesDOMParser@xercesc_3_1@@QBEPBVErrorHandler@2@XZ 1202ae05 f i XSAnnotation.obj
 0001:00029e09       ?getDoNamespaces@XMLScanner@xercesc_3_1@@QBE_NXZ 1202ae09 f i XMLValidator.obj
 0001:00029e0d       ?getEntityHandler@XMLScanner@xercesc_3_1@@QAEPAVXMLEntityHandler@2@XZ 1202ae0d f i XMLValidator.obj
 0001:00029e0d       ?getEntityHandler@XMLScanner@xercesc_3_1@@QBEPBVXMLEntityHandler@2@XZ 1202ae0d f i XMLValidator.obj
 0001:00029e0d       ?getNonXSAttList@SchemaInfo@xercesc_3_1@@QBEPAV?$ValueVectorOf@PAVDOMNode@xercesc_3_1@@@2@XZ 1202ae0d f i IGXMLScanner.obj
 0001:00029e11       ?getErrorReporter@XMLScanner@xercesc_3_1@@QAEPAVXMLErrorReporter@2@XZ 1202ae11 f i XMLValidator.obj
 0001:00029e11       ?getErrorReporter@XMLScanner@xercesc_3_1@@QBEPBVXMLErrorReporter@2@XZ 1202ae11 f i XMLValidator.obj
 0001:00029e11       ?getMemoryAllocationBlockSize@DOMDocumentImpl@xercesc_3_1@@UBEKXZ 1202ae11 f i DOMDocumentImpl.obj
 0001:00029e11       ?getValidationContext@SchemaInfo@xercesc_3_1@@QBEPAVValidationContext@2@XZ 1202ae11 f i IGXMLScanner.obj
 0001:00029e15       ?getErrorHandler@XMLScanner@xercesc_3_1@@QAEPAVErrorHandler@2@XZ 1202ae15 f i XMLValidator.obj
 0001:00029e15       ?getErrorHandler@XMLScanner@xercesc_3_1@@QBEPBVErrorHandler@2@XZ 1202ae15 f i XMLValidator.obj
 0001:00029e19       ?getExitOnFirstFatal@XMLScanner@xercesc_3_1@@QBE_NXZ 1202ae19 f i XMLValidator.obj
 0001:00029e1d       ?getInException@XMLScanner@xercesc_3_1@@QBE_NXZ 1202ae1d f i XMLValidator.obj
 0001:00029e21       ?getIDRefList@XMLScanner@xercesc_3_1@@QAEPAV?$RefHashTableOf@VXMLRefInfo@xercesc_3_1@@UStringHasher@2@@2@XZ 1202ae21 f i XMLValidator.obj
 0001:00029e21       ?getIDRefList@XMLScanner@xercesc_3_1@@QBEPBV?$RefHashTableOf@VXMLRefInfo@xercesc_3_1@@UStringHasher@2@@2@XZ 1202ae21 f i XMLValidator.obj
 0001:00029e2c       ?getValidationContext@XMLScanner@xercesc_3_1@@QAEPAVValidationContext@2@XZ 1202ae2c f i XMLValidator.obj
 0001:00029e5c       ?getLocator@XMLScanner@xercesc_3_1@@QBEPBVLocator@2@XZ 1202ae5c f i XMLValidator.obj
 0001:00029e5c       ?getReaderMgr@XMLScanner@xercesc_3_1@@QBEPBVReaderMgr@2@XZ 1202ae5c f i XMLValidator.obj
 0001:00029e63       ?getSrcOffset@XMLScanner@xercesc_3_1@@QBE_KXZ 1202ae63 f i XMLValidator.obj
 0001:00029e6e       ?getStandalone@XMLScanner@xercesc_3_1@@QBE_NXZ 1202ae6e f i XMLValidator.obj
 0001:00029e72       ?getValidationScheme@XMLScanner@xercesc_3_1@@QBE?AW4ValSchemes@12@XZ 1202ae72 f i XMLValidator.obj
 0001:00029e79       ?getValidator@XMLScanner@xercesc_3_1@@QAEPAVXMLValidator@2@XZ 1202ae79 f i XMLValidator.obj
 0001:00029e79       ?getValidator@XMLScanner@xercesc_3_1@@QBEPBVXMLValidator@2@XZ 1202ae79 f i XMLValidator.obj
 0001:00029e80       ?getDoSchema@XMLScanner@xercesc_3_1@@QBE_NXZ 1202ae80 f i XMLValidator.obj
 0001:00029e84       ?getParseInProgress@AbstractDOMParser@xercesc_3_1@@IBE_NXZ 1202ae84 f i XSAnnotation.obj
 0001:00029e84       ?getValidationSchemaFullChecking@XMLScanner@xercesc_3_1@@QBE_NXZ 1202ae84 f i XMLValidator.obj
 0001:00029e88       ?getCreateCommentNodes@AbstractDOMParser@xercesc_3_1@@QBE_NXZ 1202ae88 f i XSAnnotation.obj
 0001:00029e88       ?getIdentityConstraintChecking@XMLScanner@xercesc_3_1@@QBE_NXZ 1202ae88 f i XMLValidator.obj
 0001:00029e88       ?isFixed@XSFacet@xercesc_3_1@@QBE_NXZ 1202ae88 f i XSFacet.obj
 0001:00029e88       ?isFixed@XSMultiValueFacet@xercesc_3_1@@QBE_NXZ 1202ae88 f i XSMultiValueFacet.obj
 0001:00029e8c       ?getURIStringPool@XMLScanner@xercesc_3_1@@QAEPAVXMLStringPool@2@XZ 1202ae8c f i XMLValidator.obj
 0001:00029e8c       ?getURIStringPool@XMLScanner@xercesc_3_1@@QBEPBVXMLStringPool@2@XZ 1202ae8c f i XMLValidator.obj
 0001:00029e93       ?getHasNoDTD@XMLScanner@xercesc_3_1@@QBE_NXZ 1202ae93 f i XMLValidator.obj
 0001:00029e97       ?getExternalSchemaLocation@XMLScanner@xercesc_3_1@@QBEPA_WXZ 1202ae97 f i XMLValidator.obj
 0001:00029e9e       ?getExternalNoNamespaceSchemaLocation@XMLScanner@xercesc_3_1@@QBEPA_WXZ 1202ae9e f i XMLValidator.obj
 0001:00029ea5       ?getSecurityManager@XMLScanner@xercesc_3_1@@QBEPAVSecurityManager@2@XZ 1202aea5 f i XMLValidator.obj
 0001:00029eac       ?getDoXInclude@AbstractDOMParser@xercesc_3_1@@QBE_NXZ 1202aeac f i XSAnnotation.obj
 0001:00029eac       ?getLoadExternalDTD@XMLScanner@xercesc_3_1@@QBE_NXZ 1202aeac f i XMLValidator.obj
 0001:00029eb0       ?isCachingGrammarFromParse@XMLScanner@xercesc_3_1@@QBE_NXZ 1202aeb0 f i XMLValidator.obj
 0001:00029eb0       ?isDocumentAdopted@AbstractDOMParser@xercesc_3_1@@IBE_NXZ 1202aeb0 f i AbstractDOMParser.obj
 0001:00029eb4       ?getCreateSchemaInfo@AbstractDOMParser@xercesc_3_1@@QBE_NXZ 1202aeb4 f i XSAnnotation.obj
 0001:00029eb4       ?isUsingCachedGrammarInParse@XMLScanner@xercesc_3_1@@QBE_NXZ 1202aeb4 f i XMLValidator.obj
 0001:00029eb8       ?getCalculateSrcOfs@XMLScanner@xercesc_3_1@@QBE_NXZ 1202aeb8 f i XMLValidator.obj
 0001:00029ebc       ?getRootGrammar@XMLScanner@xercesc_3_1@@QBEPAVGrammar@2@XZ 1202aebc f i XMLValidator.obj
 0001:00029ec3       ?getXMLVersion@XMLScanner@xercesc_3_1@@QBE?AW4XMLVersion@XMLReader@2@XZ 1202aec3 f i XMLValidator.obj
 0001:00029eca       ?getMemoryManager@XMLScanner@xercesc_3_1@@QBEPAVMemoryManager@2@XZ 1202aeca f i XMLValidator.obj
 0001:00029ed1       ?getNamespaceContext@XMLScanner@xercesc_3_1@@QBEPAV?$ValueVectorOf@PAUPrefMapElem@xercesc_3_1@@@2@XZ 1202aed1 f i XMLValidator.obj
 0001:00029edc       ?getPrefixId@XMLScanner@xercesc_3_1@@QBEIQB_W@Z 1202aedc f i XMLValidator.obj
 0001:00029eeb       ?getPrefixForId@XMLScanner@xercesc_3_1@@QBEPB_WI@Z 1202aeeb f i XMLValidator.obj
 0001:00029efa       ?getGenerateSyntheticAnnotations@XMLScanner@xercesc_3_1@@QBE_NXZ 1202aefa f i XMLValidator.obj
 0001:00029efe       ?getValidateAnnotations@XMLScanner@xercesc_3_1@@QBE_NXZ 1202aefe f i XMLValidator.obj
 0001:00029f02       ?getLowWaterMark@XMLScanner@xercesc_3_1@@QBEABKXZ 1202af02 f i XMLValidator.obj
 0001:00029f06       ?getIgnoreCachedDTD@XMLScanner@xercesc_3_1@@QBE_NXZ 1202af06 f i XMLValidator.obj
 0001:00029f06       ?getIsSchemaSpecified@PSVIItem@xercesc_3_1@@QBE_NXZ 1202af06 f i PSVIAttribute.obj
 0001:00029f06       ?getMaxOccursUnbounded@XSParticle@xercesc_3_1@@QBE_NXZ 1202af06 f i XSComplexTypeDefinition.obj
 0001:00029f0a       ?getIgnoreAnnotations@XMLScanner@xercesc_3_1@@QBE_NXZ 1202af0a f i XMLValidator.obj
 0001:00029f0e       ?getDisableDefaultEntityResolution@XMLScanner@xercesc_3_1@@QBE_NXZ 1202af0e f i XMLValidator.obj
 0001:00029f12       ?getSkipDTDValidation@XMLScanner@xercesc_3_1@@QBE_NXZ 1202af12 f i XMLValidator.obj
 0001:00029f16       ?addGlobalPrefix@XMLScanner@xercesc_3_1@@QAEXQB_WI@Z 1202af16 f i XMLValidator.obj
 0001:00029f25       ?setDocHandler@XMLScanner@xercesc_3_1@@QAEXQAVXMLDocumentHandler@2@@Z 1202af25 f i XMLValidator.obj
 0001:00029f32       ?setDocTypeHandler@XMLScanner@xercesc_3_1@@QAEXQAVDocTypeHandler@2@@Z 1202af32 f i XMLValidator.obj
 0001:00029f3f       ?setErrorHandler@XMLScanner@xercesc_3_1@@QAEXQAVErrorHandler@2@@Z 1202af3f f i XMLValidator.obj
 0001:00029f4c       ?setPSVIHandler@XMLScanner@xercesc_3_1@@QAEXQAVPSVIHandler@2@@Z 1202af4c f i XMLValidator.obj
 0001:00029f59       ?setEntityHandler@XMLScanner@xercesc_3_1@@QAEXQAVXMLEntityHandler@2@@Z 1202af59 f i XMLValidator.obj
 0001:00029f6c       ?setErrorReporter@XMLScanner@xercesc_3_1@@QAEXQAVXMLErrorReporter@2@@Z 1202af6c f i XMLValidator.obj
 0001:00029f79       ?setExitOnFirstFatal@XMLScanner@xercesc_3_1@@QAEX_N@Z 1202af79 f i XMLValidator.obj
 0001:00029f86       ?setValidationScheme@XMLScanner@xercesc_3_1@@QAEXW4ValSchemes@12@@Z 1202af86 f i XMLValidator.obj
 0001:00029f9f       ?setDoSchema@XMLScanner@xercesc_3_1@@QAEX_N@Z 1202af9f f i XMLValidator.obj
 0001:00029fac       ?setDoNamespaces@XMLScanner@xercesc_3_1@@QAEX_N@Z 1202afac f i XMLValidator.obj
 0001:00029fb9       ?setParseInProgress@AbstractDOMParser@xercesc_3_1@@IAEX_N@Z 1202afb9 f i XSAnnotation.obj
 0001:00029fb9       ?setValidationSchemaFullChecking@XMLScanner@xercesc_3_1@@QAEX_N@Z 1202afb9 f i XMLValidator.obj
 0001:00029fc6       ?setCreateCommentNodes@AbstractDOMParser@xercesc_3_1@@QAEX_N@Z 1202afc6 f i XSAnnotation.obj
 0001:00029fc6       ?setIdentityConstraintChecking@XMLScanner@xercesc_3_1@@QAEX_N@Z 1202afc6 f i XMLValidator.obj
 0001:00029fd3       ?setHasNoDTD@XMLScanner@xercesc_3_1@@QAEX_N@Z 1202afd3 f i XMLValidator.obj
 0001:00029fe0       ?setRootElemName@XMLScanner@xercesc_3_1@@QAEXPA_W@Z 1202afe0 f i XMLValidator.obj
 0001:0002a012       ?setExternalSchemaLocation@XMLScanner@xercesc_3_1@@QAEXQB_W@Z 1202b012 f i XMLValidator.obj
 0001:0002a044       ?setExternalNoNamespaceSchemaLocation@XMLScanner@xercesc_3_1@@QAEXQB_W@Z 1202b044 f i XMLValidator.obj
 0001:0002a076       ?setExternalSchemaLocation@XMLScanner@xercesc_3_1@@QAEXQBD@Z 1202b076 f i XMLValidator.obj
 0001:0002a0a8       ?setExternalNoNamespaceSchemaLocation@XMLScanner@xercesc_3_1@@QAEXQBD@Z 1202b0a8 f i XMLValidator.obj
 0001:0002a0da       ?setSecurityManager@XMLScanner@xercesc_3_1@@QAEXQAVSecurityManager@2@@Z 1202b0da f i XMLValidator.obj
 0001:0002a0fe       ?setDoXInclude@AbstractDOMParser@xercesc_3_1@@QAEX_N@Z 1202b0fe f i XSAnnotation.obj
 0001:0002a0fe       ?setLoadExternalDTD@XMLScanner@xercesc_3_1@@QAEX_N@Z 1202b0fe f i XMLValidator.obj
 0001:0002a10b       ?cacheGrammarFromParse@XMLScanner@xercesc_3_1@@QAEX_N@Z 1202b10b f i XMLValidator.obj
 0001:0002a118       ?useCachedGrammarInParse@XMLScanner@xercesc_3_1@@QAEX_N@Z 1202b118 f i XMLValidator.obj
 0001:0002a125       ?setCalculateSrcOfs@XMLScanner@xercesc_3_1@@QAEX_N@Z 1202b125 f i XMLValidator.obj
 0001:0002a132       ?setStandardUriConformant@XMLScanner@xercesc_3_1@@QAEX_N@Z 1202b132 f i XMLValidator.obj
 0001:0002a145       ?setGenerateSyntheticAnnotations@XMLScanner@xercesc_3_1@@QAEX_N@Z 1202b145 f i XMLValidator.obj
 0001:0002a152       ?setValidateAnnotations@XMLScanner@xercesc_3_1@@QAEX_N@Z 1202b152 f i XMLValidator.obj
 0001:0002a15f       ?setInputBufferSize@XMLScanner@xercesc_3_1@@QAEXK@Z 1202b15f f i XMLValidator.obj
 0001:0002a179       ?setIgnoreAnnotations@XMLScanner@xercesc_3_1@@QAEX_N@Z 1202b179 f i XMLValidator.obj
 0001:0002a186       ?setDisableDefaultEntityResolution@XMLScanner@xercesc_3_1@@QAEX_N@Z 1202b186 f i XMLValidator.obj
 0001:0002a193       ?setSkipDTDValidation@XMLScanner@xercesc_3_1@@QAEX_N@Z 1202b193 f i XMLValidator.obj
 0001:0002a1a0       ?incrementErrorCount@XMLScanner@xercesc_3_1@@QAEXXZ 1202b1a0 f i XMLValidator.obj
 0001:0002a1a4       ?resetValidationContext@XMLScanner@xercesc_3_1@@IAEXXZ 1202b1a4 f i XMLValidator.obj
 0001:0002a1c8       ?setAttrDupChkRegistry@XMLScanner@xercesc_3_1@@IAEXABKAA_N@Z 1202b1c8 f i XMLValidator.obj
 0001:0002a25d       ?initializeXMLValidator@XMLInitializer@xercesc_3_1@@CAXXZ 1202b25d f   XMLValidator.obj
 0001:0002a27a       ?terminateXMLValidator@XMLInitializer@xercesc_3_1@@CAXXZ 1202b27a f   XMLValidator.obj
 0001:0002a292       ?emitError@XMLValidator@xercesc_3_1@@QAEXW4Codes@XMLValid@2@@Z 1202b292 f   XMLValidator.obj
 0001:0002a374       ?emitError@XMLValidator@xercesc_3_1@@QAEXW4Codes@XMLValid@2@QB_W111@Z 1202b374 f   XMLValidator.obj
 0001:0002a48e       ?emitError@XMLValidator@xercesc_3_1@@QAEXW4Codes@XMLValid@2@QBD111@Z 1202b48e f   XMLValidator.obj
 0001:0002a5a8       ?emitError@XMLValidator@xercesc_3_1@@QAEXW4Codes@XMLValid@2@W43XMLExcepts@2@QB_W222@Z 1202b5a8 f   XMLValidator.obj
 0001:0002a6c4       ??0XMLValidator@xercesc_3_1@@IAE@QAVXMLErrorReporter@1@@Z 1202b6c4 f   XMLValidator.obj
 0001:0002a6e4       ?removeAll@?$RefHash2KeysTableOf@VXMLAttr@xercesc_3_1@@UStringHasher@2@@xercesc_3_1@@QAEXXZ 1202b6e4 f i XMLValidator.obj
 0001:0002a763       ??_FPSVIItem@xercesc_3_1@@QAEXXZ 1202b763 f i PSVIAttribute.obj
 0001:0002a76f       ??_EPSVIItem@xercesc_3_1@@UAEPAXI@Z 1202b76f f i PSVIAttribute.obj
 0001:0002a806       ??1PSVIItem@xercesc_3_1@@UAE@XZ 1202b806 f i PSVIAttribute.obj
 0001:0002a80d       ??_FPSVIAttribute@xercesc_3_1@@QAEXXZ 1202b80d f i PSVIAttribute.obj
 0001:0002a819       ??_EPSVIAttribute@xercesc_3_1@@UAEPAXI@Z 1202b819 f i PSVIAttribute.obj
 0001:0002a8af       ??1PSVIAttribute@xercesc_3_1@@UAE@XZ 1202b8af f i PSVIAttribute.obj
 0001:0002a8fe       ??0PSVIAttribute@xercesc_3_1@@QAE@QAVMemoryManager@1@@Z 1202b8fe f   PSVIAttribute.obj
 0001:0002a921       ?reset@PSVIAttribute@xercesc_3_1@@QAEXQB_WW4VALIDITY_STATE@PSVIItem@2@W4ASSESSMENT_TYPE@42@PAVXSSimpleTypeDefinition@2@30_NPAVXSAttributeDeclaration@2@PAVDatatypeValidator@2@@Z 1202b921 f   PSVIAttribute.obj
 0001:0002a975       ?setValue@PSVIAttribute@xercesc_3_1@@QAEXQB_W@Z 1202b975 f   PSVIAttribute.obj
 0001:0002a9a5       ??0PSVIAttributeStorage@xercesc_3_1@@QAE@XZ 1202b9a5 f i PSVIAttributeList.obj
 0001:0002a9b2       ??1InScopeNamespaces@DOMNormalizer@xercesc_3_1@@QAE@XZ 1202b9b2 f i DOMNormalizer.obj
 0001:0002a9b2       ??1PSVIAttributeStorage@xercesc_3_1@@QAE@XZ 1202b9b2 f i PSVIAttributeList.obj
 0001:0002a9bf       ??4PSVIAttributeStorage@xercesc_3_1@@QAEAAV01@ABV01@@Z 1202b9bf f i PSVIAttributeList.obj
 0001:0002a9bf       ??4XIncludeUtils@xercesc_3_1@@QAEAAV01@ABV01@@Z 1202b9bf f i AbstractDOMParser.obj
 0001:0002a9d4       ??_FPSVIAttributeList@xercesc_3_1@@QAEXXZ 1202b9d4 f i PSVIAttributeList.obj
 0001:0002a9e0       ??1PSVIAttributeList@xercesc_3_1@@QAE@XZ 1202b9e0 f i PSVIAttributeList.obj
 0001:0002a9ee       ?getPSVIAttributeToFill@PSVIAttributeList@xercesc_3_1@@QAEPAVPSVIAttribute@2@PB_W0@Z 1202b9ee f i PSVIAttributeList.obj
 0001:0002aa7f       ??0PSVIAttributeList@xercesc_3_1@@QAE@QAVMemoryManager@1@@Z 1202ba7f f   PSVIAttributeList.obj
 0001:0002aacb       ?getAttributePSVIAtIndex@PSVIAttributeList@xercesc_3_1@@QAEPAVPSVIAttribute@2@K@Z 1202bacb f   PSVIAttributeList.obj
 0001:0002aae9       ?getAttributeNameAtIndex@PSVIAttributeList@xercesc_3_1@@QAEPB_WK@Z 1202bae9 f   PSVIAttributeList.obj
 0001:0002ab08       ?getAttributeNamespaceAtIndex@PSVIAttributeList@xercesc_3_1@@QAEPB_WK@Z 1202bb08 f   PSVIAttributeList.obj
 0001:0002ab27       ?getAttributePSVIByName@PSVIAttributeList@xercesc_3_1@@QAEPAVPSVIAttribute@2@PB_W0@Z 1202bb27 f   PSVIAttributeList.obj
 0001:0002ab76       ??0?$RefVectorOf@VPSVIAttributeStorage@xercesc_3_1@@@xercesc_3_1@@QAE@K_NQAVMemoryManager@1@@Z 1202bb76 f i PSVIAttributeList.obj
 0001:0002abc7       ??1?$RefVectorOf@VPSVIAttributeStorage@xercesc_3_1@@@xercesc_3_1@@UAE@XZ 1202bbc7 f i PSVIAttributeList.obj
 0001:0002ac3b       ?setElementAt@?$BaseRefVectorOf@VPSVIAttributeStorage@xercesc_3_1@@@xercesc_3_1@@UAEXQAVPSVIAttributeStorage@2@K@Z 1202bc3b f i PSVIAttributeList.obj
 0001:0002ac97       ?removeAllElements@?$BaseRefVectorOf@VPSVIAttributeStorage@xercesc_3_1@@@xercesc_3_1@@UAEXXZ 1202bc97 f i PSVIAttributeList.obj
 0001:0002accc       ?removeElementAt@?$BaseRefVectorOf@VPSVIAttributeStorage@xercesc_3_1@@@xercesc_3_1@@UAEXK@Z 1202bccc f i PSVIAttributeList.obj
 0001:0002ad57       ?removeLastElement@?$BaseRefVectorOf@VPSVIAttributeStorage@xercesc_3_1@@@xercesc_3_1@@UAEXXZ 1202bd57 f i PSVIAttributeList.obj
 0001:0002ad79       ?cleanup@?$BaseRefVectorOf@VPSVIAttributeStorage@xercesc_3_1@@@xercesc_3_1@@UAEXXZ 1202bd79 f i PSVIAttributeList.obj
 0001:0002adae       ??_E?$RefVectorOf@VPSVIAttributeStorage@xercesc_3_1@@@xercesc_3_1@@UAEPAXI@Z 1202bdae f i * CIL library *:* CIL module *
 0001:0002adae       ??_G?$RefVectorOf@VPSVIAttributeStorage@xercesc_3_1@@@xercesc_3_1@@UAEPAXI@Z 1202bdae f i PSVIAttributeList.obj
 0001:0002adde       ??_GPSVIAttributeStorage@xercesc_3_1@@QAEPAXI@Z 1202bdde f i PSVIAttributeList.obj
 0001:0002adfa       ??_E?$BaseRefVectorOf@VPSVIAttributeStorage@xercesc_3_1@@@xercesc_3_1@@UAEPAXI@Z 1202bdfa f i * CIL library *:* CIL module *
 0001:0002adfa       ??_G?$BaseRefVectorOf@VPSVIAttributeStorage@xercesc_3_1@@@xercesc_3_1@@UAEPAXI@Z 1202bdfa f i PSVIAttributeList.obj
 0001:0002ae2b       ??_FPSVIElement@xercesc_3_1@@QAEXXZ 1202be2b f i PSVIElement.obj
 0001:0002ae37       ??_EPSVIElement@xercesc_3_1@@UAEPAXI@Z 1202be37 f i PSVIElement.obj
 0001:0002aecd       ?getSubstitutionGroupExclusions@XSElementDeclaration@xercesc_3_1@@QBEFXZ 1202becd f i PSVIElement.obj
 0001:0002aed2       ?getDisallowedSubstitutions@XSElementDeclaration@xercesc_3_1@@QBEFXZ 1202bed2 f i PSVIElement.obj
 0001:0002aed7       ?getProhibitedSubstitutions@XSComplexTypeDefinition@xercesc_3_1@@QBEFXZ 1202bed7 f i PSVIElement.obj
 0001:0002aedc       ??0PSVIElement@xercesc_3_1@@QAE@QAVMemoryManager@1@@Z 1202bedc f   PSVIElement.obj
 0001:0002af02       ??1PSVIElement@xercesc_3_1@@UAE@XZ 1202bf02 f   PSVIElement.obj
 0001:0002af51       ?reset@PSVIElement@xercesc_3_1@@QAEXW4VALIDITY_STATE@PSVIItem@2@W4ASSESSMENT_TYPE@42@QB_W_NQAVXSElementDeclaration@2@QAVXSTypeDefinition@2@QAVXSSimpleTypeDefinition@2@QAVXSModel@2@22QA_WQAVXSNotationDeclaration@2@@Z 1202bf51 f   PSVIElement.obj
 0001:0002afaf       ??0PSVIItem@xercesc_3_1@@QAE@QAVMemoryManager@1@@Z 1202bfaf f   PSVIItem.obj
 0001:0002afe5       ?reset@PSVIItem@xercesc_3_1@@QAEXQB_W0W4VALIDITY_STATE@12@W4ASSESSMENT_TYPE@12@@Z 1202bfe5 f   PSVIItem.obj
 0001:0002b004       ?getActualValue@PSVIItem@xercesc_3_1@@UBEPAVXSValue@2@XZ 1202c004 f   PSVIItem.obj
 0001:0002b083       ??_EXSAnnotation@xercesc_3_1@@UAEPAXI@Z 1202c083 f i XSAnnotation.obj
 0001:0002b119       ??0DOMChildNode@xercesc_3_1@@QAE@XZ 1202c119 f i DOMChildNode.obj
 0001:0002b119       ??0XMLPScanToken@xercesc_3_1@@QAE@XZ 1202c119 f i XSAnnotation.obj
 0001:0002b123       ??4FieldActivator@xercesc_3_1@@QAEAAV01@ABV01@@Z 1202c123 f i FieldActivator.obj
 0001:0002b123       ??4XMLPScanToken@xercesc_3_1@@QAEAAV01@ABV01@@Z 1202c123 f i XSAnnotation.obj
 0001:0002b13d       ?set@XMLPScanToken@xercesc_3_1@@IAEXII@Z 1202c13d f i XSAnnotation.obj
 0001:0002b14f       ??0SAX2XMLReader@xercesc_3_1@@QAE@XZ 1202c14f f i XSAnnotation.obj
 0001:0002b158       ??1SAX2XMLFilter@xercesc_3_1@@UAE@XZ 1202c158 f i SAX2XMLFilterImpl.obj
 0001:0002b158       ??1SAX2XMLReader@xercesc_3_1@@UAE@XZ 1202c158 f i XSAnnotation.obj
 0001:0002b15f       ??_ESAX2XMLFilter@xercesc_3_1@@UAEPAXI@Z 1202c15f f i SAX2XMLFilterImpl.obj
 0001:0002b15f       ??_ESAX2XMLReader@xercesc_3_1@@UAEPAXI@Z 1202c15f f i XSAnnotation.obj
 0001:0002b1eb       ??0SAXException@xercesc_3_1@@QAE@QAVMemoryManager@1@@Z 1202c1eb f i XSAnnotation.obj
 0001:0002b216       ??0SAXException@xercesc_3_1@@QAE@QB_WQAVMemoryManager@1@@Z 1202c216 f i XSAnnotation.obj
 0001:0002b23f       ??0SAXException@xercesc_3_1@@QAE@QBDQAVMemoryManager@1@@Z 1202c23f f i XSAnnotation.obj
 0001:0002b268       ??0SAXException@xercesc_3_1@@QAE@ABV01@@Z 1202c268 f i XSAnnotation.obj
 0001:0002b296       ??1SAXException@xercesc_3_1@@UAE@XZ 1202c296 f i XSAnnotation.obj
 0001:0002b2dd       ??4SAXException@xercesc_3_1@@QAEAAV01@ABV01@@Z 1202c2dd f i XSAnnotation.obj
 0001:0002b314       ??_FSAXException@xercesc_3_1@@QAEXXZ 1202c314 f i XSAnnotation.obj
 0001:0002b320       ??_ESAXException@xercesc_3_1@@UAEPAXI@Z 1202c320 f i XSAnnotation.obj
 0001:0002b3c6       ??1SAXNotRecognizedException@xercesc_3_1@@UAE@XZ 1202c3c6 f i XSAnnotation.obj
 0001:0002b3c6       ??1SAXNotSupportedException@xercesc_3_1@@UAE@XZ 1202c3c6 f i XSAnnotation.obj
 0001:0002b411       ??0SAXNotSupportedException@xercesc_3_1@@QAE@$$QAV01@@Z 1202c411 f i XSAnnotation.obj
 0001:0002b411       ??0SAXNotSupportedException@xercesc_3_1@@QAE@ABV01@@Z 1202c411 f i XSAnnotation.obj
 0001:0002b411       ??0SAXNotSupportedException@xercesc_3_1@@QAE@ABVSAXException@1@@Z 1202c411 f i SAXException.obj
 0001:0002b430       ??4SAXNotRecognizedException@xercesc_3_1@@QAEAAV01@$$QAV01@@Z 1202c430 f i XSAnnotation.obj
 0001:0002b430       ??4SAXNotRecognizedException@xercesc_3_1@@QAEAAV01@ABV01@@Z 1202c430 f i XSAnnotation.obj
 0001:0002b430       ??4SAXNotSupportedException@xercesc_3_1@@QAEAAV01@$$QAV01@@Z 1202c430 f i XSAnnotation.obj
 0001:0002b430       ??4SAXNotSupportedException@xercesc_3_1@@QAEAAV01@ABV01@@Z 1202c430 f i XSAnnotation.obj
 0001:0002b445       ??_FSAXNotSupportedException@xercesc_3_1@@QAEXXZ 1202c445 f i XSAnnotation.obj
 0001:0002b451       ??_ESAXNotRecognizedException@xercesc_3_1@@UAEPAXI@Z 1202c451 f i XSAnnotation.obj
 0001:0002b451       ??_ESAXNotSupportedException@xercesc_3_1@@UAEPAXI@Z 1202c451 f i XSAnnotation.obj
 0001:0002b4e7       ??0SAXNotRecognizedException@xercesc_3_1@@QAE@$$QAV01@@Z 1202c4e7 f i XSAnnotation.obj
 0001:0002b4e7       ??0SAXNotRecognizedException@xercesc_3_1@@QAE@ABV01@@Z 1202c4e7 f i XSAnnotation.obj
 0001:0002b4e7       ??0SAXNotRecognizedException@xercesc_3_1@@QAE@ABVSAXException@1@@Z 1202c4e7 f i SAXException.obj
 0001:0002b506       ??_FSAXNotRecognizedException@xercesc_3_1@@QAEXXZ 1202c506 f i XSAnnotation.obj
 0001:0002b512       ?createXMLReader@XMLReaderFactory@xercesc_3_1@@SAPAVSAX2XMLReader@2@PB_W@Z 1202c512 f i XSAnnotation.obj
 0001:0002b535       ??0DOMNode@xercesc_3_1@@IAE@XZ 1202c535 f i XSAnnotation.obj
 0001:0002b53e       ??0DOMNode@xercesc_3_1@@IAE@ABV01@@Z 1202c53e f i XSAnnotation.obj
 0001:0002b549       ??1DOMAttr@xercesc_3_1@@UAE@XZ 1202c549 f i IGXMLScanner2.obj
 0001:0002b549       ??1DOMCDATASection@xercesc_3_1@@UAE@XZ 1202c549 f i AbstractDOMParser.obj
 0001:0002b549       ??1DOMCDATASectionImpl@xercesc_3_1@@UAE@XZ 1202c549 f i DOMCDATASectionImpl.obj
 0001:0002b549       ??1DOMCharacterData@xercesc_3_1@@UAE@XZ 1202c549 f i AbstractDOMParser.obj
 0001:0002b549       ??1DOMComment@xercesc_3_1@@UAE@XZ 1202c549 f i AbstractDOMParser.obj
 0001:0002b549       ??1DOMCommentImpl@xercesc_3_1@@UAE@XZ 1202c549 f i DOMCommentImpl.obj
 0001:0002b549       ??1DOMDocumentFragment@xercesc_3_1@@UAE@XZ 1202c549 f i AbstractDOMParser.obj
 0001:0002b549       ??1DOMDocumentType@xercesc_3_1@@UAE@XZ 1202c549 f i XSAnnotation.obj
 0001:0002b549       ??1DOMElement@xercesc_3_1@@UAE@XZ 1202c549 f i XSAnnotation.obj
 0001:0002b549       ??1DOMEntity@xercesc_3_1@@UAE@XZ 1202c549 f i AbstractDOMParser.obj
 0001:0002b549       ??1DOMEntityReference@xercesc_3_1@@UAE@XZ 1202c549 f i AbstractDOMParser.obj
 0001:0002b549       ??1DOMNode@xercesc_3_1@@UAE@XZ 1202c549 f i XSAnnotation.obj
 0001:0002b549       ??1DOMNotation@xercesc_3_1@@UAE@XZ 1202c549 f i AbstractDOMParser.obj
 0001:0002b549       ??1DOMNotationImpl@xercesc_3_1@@UAE@XZ 1202c549 f i DOMNotationImpl.obj
 0001:0002b549       ??1DOMProcessingInstruction@xercesc_3_1@@UAE@XZ 1202c549 f i AbstractDOMParser.obj
 0001:0002b549       ??1DOMProcessingInstructionImpl@xercesc_3_1@@UAE@XZ 1202c549 f i DOMProcessingInstructionImpl.obj
 0001:0002b549       ??1DOMText@xercesc_3_1@@UAE@XZ 1202c549 f i AbstractDOMParser.obj
 0001:0002b549       ??1DOMTextImpl@xercesc_3_1@@UAE@XZ 1202c549 f i DOMTextImpl.obj
 0001:0002b549       ??1DOMXPathNamespace@xercesc_3_1@@UAE@XZ 1202c549 f i AbstractDOMParser.obj
 0001:0002b550       ??_EDOMAttr@xercesc_3_1@@UAEPAXI@Z 1202c550 f i IGXMLScanner2.obj
 0001:0002b550       ??_EDOMCDATASection@xercesc_3_1@@UAEPAXI@Z 1202c550 f i AbstractDOMParser.obj
 0001:0002b550       ??_EDOMCharacterData@xercesc_3_1@@UAEPAXI@Z 1202c550 f i AbstractDOMParser.obj
 0001:0002b550       ??_EDOMComment@xercesc_3_1@@UAEPAXI@Z 1202c550 f i AbstractDOMParser.obj
 0001:0002b550       ??_EDOMDocumentFragment@xercesc_3_1@@UAEPAXI@Z 1202c550 f i AbstractDOMParser.obj
 0001:0002b550       ??_EDOMDocumentType@xercesc_3_1@@UAEPAXI@Z 1202c550 f i XSAnnotation.obj
 0001:0002b550       ??_EDOMElement@xercesc_3_1@@UAEPAXI@Z 1202c550 f i XSAnnotation.obj
 0001:0002b550       ??_EDOMEntity@xercesc_3_1@@UAEPAXI@Z 1202c550 f i AbstractDOMParser.obj
 0001:0002b550       ??_EDOMEntityReference@xercesc_3_1@@UAEPAXI@Z 1202c550 f i AbstractDOMParser.obj
 0001:0002b550       ??_EDOMNode@xercesc_3_1@@UAEPAXI@Z 1202c550 f i XSAnnotation.obj
 0001:0002b550       ??_EDOMNotation@xercesc_3_1@@UAEPAXI@Z 1202c550 f i AbstractDOMParser.obj
 0001:0002b550       ??_EDOMProcessingInstruction@xercesc_3_1@@UAEPAXI@Z 1202c550 f i AbstractDOMParser.obj
 0001:0002b550       ??_EDOMText@xercesc_3_1@@UAEPAXI@Z 1202c550 f i AbstractDOMParser.obj
 0001:0002b550       ??_EDOMXPathNamespace@xercesc_3_1@@UAEPAXI@Z 1202c550 f i AbstractDOMParser.obj
 0001:0002b5dc       ??0DOMDocumentRange@xercesc_3_1@@IAE@XZ 1202c5dc f i XSAnnotation.obj
 0001:0002b5e5       ??1DOMDocumentRange@xercesc_3_1@@UAE@XZ 1202c5e5 f i XSAnnotation.obj
 0001:0002b5ec       ??_EDOMDocumentRange@xercesc_3_1@@UAEPAXI@Z 1202c5ec f i XSAnnotation.obj
 0001:0002b678       ??0DOMNodeFilter@xercesc_3_1@@IAE@XZ 1202c678 f i XSAnnotation.obj
 0001:0002b681       ??1DOMLSSerializerFilter@xercesc_3_1@@UAE@XZ 1202c681 f i AbstractDOMParser.obj
 0001:0002b681       ??1DOMNodeFilter@xercesc_3_1@@UAE@XZ 1202c681 f i XSAnnotation.obj
 0001:0002b688       ??_EDOMLSSerializerFilter@xercesc_3_1@@UAEPAXI@Z 1202c688 f i AbstractDOMParser.obj
 0001:0002b688       ??_EDOMNodeFilter@xercesc_3_1@@UAEPAXI@Z 1202c688 f i XSAnnotation.obj
 0001:0002b714       ??0DOMDocumentTraversal@xercesc_3_1@@IAE@XZ 1202c714 f i XSAnnotation.obj
 0001:0002b71d       ??1DOMDocumentTraversal@xercesc_3_1@@UAE@XZ 1202c71d f i XSAnnotation.obj
 0001:0002b724       ??_EDOMDocumentTraversal@xercesc_3_1@@UAEPAXI@Z 1202c724 f i XSAnnotation.obj
 0001:0002b7b0       ??0DOMXPathResult@xercesc_3_1@@IAE@XZ 1202c7b0 f i XSAnnotation.obj
 0001:0002b7b9       ??1DOMXPathResult@xercesc_3_1@@UAE@XZ 1202c7b9 f i XSAnnotation.obj
 0001:0002b7c0       ??_EDOMXPathResult@xercesc_3_1@@UAEPAXI@Z 1202c7c0 f i XSAnnotation.obj
 0001:0002b84c       ??0DOMXPathEvaluator@xercesc_3_1@@IAE@XZ 1202c84c f i XSAnnotation.obj
 0001:0002b855       ??1DOMXPathEvaluator@xercesc_3_1@@UAE@XZ 1202c855 f i XSAnnotation.obj
 0001:0002b85c       ??_EDOMXPathEvaluator@xercesc_3_1@@UAEPAXI@Z 1202c85c f i XSAnnotation.obj
 0001:0002b8e8       ??0DOMDocument@xercesc_3_1@@IAE@XZ 1202c8e8 f i XSAnnotation.obj
 0001:0002b906       ??1DOMDocument@xercesc_3_1@@UAE@XZ 1202c906 f i XSAnnotation.obj
 0001:0002b922       ?createDocumentType@DOMDocument@xercesc_3_1@@UAEPAVDOMDocumentType@2@PB_W00@Z 1202c922 f i XSAnnotation.obj
 0001:0002b934       ??_EDOMDocument@xercesc_3_1@@UAEPAXI@Z 1202c934 f i XSAnnotation.obj
 0001:0002b9d4       ??1XMLDocumentHandler@xercesc_3_1@@UAE@XZ 1202c9d4 f i XSAnnotation.obj
 0001:0002b9db       ??0XMLDocumentHandler@xercesc_3_1@@IAE@XZ 1202c9db f i XSAnnotation.obj
 0001:0002b9e4       ??_EXMLDocumentHandler@xercesc_3_1@@UAEPAXI@Z 1202c9e4 f i XSAnnotation.obj
 0001:0002ba70       ??1XMLEntityHandler@xercesc_3_1@@UAE@XZ 1202ca70 f i XSAnnotation.obj
 0001:0002ba77       ??0XMLEntityHandler@xercesc_3_1@@IAE@XZ 1202ca77 f i XSAnnotation.obj
 0001:0002ba80       ??_EXMLEntityHandler@xercesc_3_1@@UAEPAXI@Z 1202ca80 f i XSAnnotation.obj
 0001:0002bb0c       ??0DocTypeHandler@xercesc_3_1@@QAE@XZ 1202cb0c f i XSAnnotation.obj
 0001:0002bb15       ??1DocTypeHandler@xercesc_3_1@@UAE@XZ 1202cb15 f i XSAnnotation.obj
 0001:0002bb1c       ??_EDocTypeHandler@xercesc_3_1@@UAEPAXI@Z 1202cb1c f i XSAnnotation.obj
 0001:0002bba8       ??0DOMDocumentType@xercesc_3_1@@IAE@XZ 1202cba8 f i XSAnnotation.obj
 0001:0002bbb1       ??1PSVIHandler@xercesc_3_1@@UAE@XZ 1202cbb1 f i XSAnnotation.obj
 0001:0002bbb8       ??0PSVIHandler@xercesc_3_1@@IAE@XZ 1202cbb8 f i XSAnnotation.obj
 0001:0002bbc1       ??_EPSVIHandler@xercesc_3_1@@UAEPAXI@Z 1202cbc1 f i XSAnnotation.obj
 0001:0002bc4d       ?attDef@SAXParser@xercesc_3_1@@UAEXABVDTDElementDecl@2@ABVDTDAttDef@2@_N@Z 1202cc4d f i SAXParser.obj
 0001:0002bc4d       ?endElement@DefaultHandler@xercesc_3_1@@UAEXQB_W00@Z 1202cc4d f i sax2Dummy.obj
 0001:0002bc4d       ?externalEntityDecl@DefaultHandler@xercesc_3_1@@UAEXQB_W00@Z 1202cc4d f i sax2Dummy.obj
 0001:0002bc4d       ?handlePartialElementPSVI@PSVIHandler@xercesc_3_1@@UAEXQB_W0PAVPSVIElement@2@@Z 1202cc4d f i XSAnnotation.obj
 0001:0002bc4d       ?matched@XPathMatcher@xercesc_3_1@@MAEXQB_WQAVDatatypeValidator@2@_N@Z 1202cc4d f i XPathMatcher.obj
 0001:0002bc4d       ?notationDecl@DefaultHandler@xercesc_3_1@@UAEXQB_W00@Z 1202cc4d f i sax2Dummy.obj
 0001:0002bc4d       ?notationDecl@HandlerBase@xercesc_3_1@@UAEXQB_W00@Z 1202cc4d f i Dummy.obj
 0001:0002bc4d       ?startDTD@DefaultHandler@xercesc_3_1@@UAEXQB_W00@Z 1202cc4d f i sax2Dummy.obj
 0001:0002bc4d       ?validate@AnySimpleTypeDatatypeValidator@xercesc_3_1@@UAEXQB_WQAVValidationContext@2@QAVMemoryManager@2@@Z 1202cc4d f i AnySimpleTypeDatatypeValidator.obj
 0001:0002bc50       ??_FAbstractDOMParser@xercesc_3_1@@QAEXXZ 1202cc50 f i XSAnnotation.obj
 0001:0002bc60       ?getErrorHandler@SAX2XMLReaderImpl@xercesc_3_1@@UBEPAVErrorHandler@2@XZ 1202cc60 f i SAX2XMLReaderImpl.obj
 0001:0002bc60       ?getMostRecentAttrValidator@SchemaValidator@xercesc_3_1@@QBEPAVDatatypeValidator@2@XZ 1202cc60 f i IGXMLScanner.obj
 0001:0002bc60       ?getPSVIHandler@AbstractDOMParser@xercesc_3_1@@QAEPAVPSVIHandler@2@XZ 1202cc60 f i XSAnnotation.obj
 0001:0002bc60       ?getPSVIHandler@AbstractDOMParser@xercesc_3_1@@QBEPBVPSVIHandler@2@XZ 1202cc60 f i XSAnnotation.obj
 0001:0002bc60       ?getTotalDigits@DecimalDatatypeValidator@xercesc_3_1@@QBEIXZ 1202cc60 f i DatatypeValidator.obj
 0001:0002bc64       ?setIncludeIgnorableWhitespace@AbstractDOMParser@xercesc_3_1@@QAEX_N@Z 1202cc64 f i XSAnnotation.obj
 0001:0002bc71       ?useImplementation@AbstractDOMParser@xercesc_3_1@@QAEXQB_W@Z 1202cc71 f i XSAnnotation.obj
 0001:0002bc97       ??_FXercesDOMParser@xercesc_3_1@@QAEXXZ 1202cc97 f i XSAnnotation.obj
 0001:0002bca7       ?customNodeSerialize@DOMLSSerializerImpl@xercesc_3_1@@MAE_NQBVDOMNode@2@H@Z 1202cca7 f i DOMLSSerializerImpl.obj
 0001:0002bca7       ?expandSystemId@DOMLSParserImpl@xercesc_3_1@@UAE_NQB_WAAVXMLBuffer@2@@Z 1202cca7 f i DOMLSParserImpl.obj
 0001:0002bca7       ?expandSystemId@SAX2XMLReaderImpl@xercesc_3_1@@UAE_NQB_WAAVXMLBuffer@2@@Z 1202cca7 f i SAX2XMLReaderImpl.obj
 0001:0002bca7       ?expandSystemId@SAXParser@xercesc_3_1@@UAE_NQB_WAAVXMLBuffer@2@@Z 1202cca7 f i SAXParser.obj
 0001:0002bca7       ?expandSystemId@XercesDOMParser@xercesc_3_1@@UAE_NQB_WAAVXMLBuffer@2@@Z 1202cca7 f i XSAnnotation.obj
 0001:0002bca7       ?setContentNegotiation@XIncludeUtils@xercesc_3_1@@AAE_NPB_W0@Z 1202cca7 f i XIncludeUtils.obj
 0001:0002bcac       ??0DOMElement@xercesc_3_1@@IAE@XZ 1202ccac f i XSAnnotation.obj
 0001:0002bcb5       ??0DOMElement@xercesc_3_1@@IAE@ABV01@@Z 1202ccb5 f i XSAnnotation.obj
 0001:0002bcc0       ??0XSAnnotation@xercesc_3_1@@QAE@QB_WQAVMemoryManager@1@@Z 1202ccc0 f   XSAnnotation.obj
 0001:0002bd2b       ??0XSAnnotation@xercesc_3_1@@QAE@QAVMemoryManager@1@@Z 1202cd2b f   XSAnnotation.obj
 0001:0002bd82       ??1XSAnnotation@xercesc_3_1@@UAE@XZ 1202cd82 f   XSAnnotation.obj
 0001:0002bdf7       ?writeAnnotation@XSAnnotation@xercesc_3_1@@QAEXPAVDOMNode@2@W4ANNOTATION_TARGET@12@@Z 1202cdf7 f   XSAnnotation.obj
 0001:0002bf40       ?writeAnnotation@XSAnnotation@xercesc_3_1@@QAEXPAVContentHandler@2@@Z 1202cf40 f   XSAnnotation.obj
 0001:0002c016       ?setNext@XSAnnotation@xercesc_3_1@@QAEXQAV12@@Z 1202d016 f   XSAnnotation.obj
 0001:0002c02e       ?setSystemId@XSAnnotation@xercesc_3_1@@QAEXQB_W@Z 1202d02e f   XSAnnotation.obj
 0001:0002c066       ?createObject@XSAnnotation@xercesc_3_1@@SAPAVXSerializable@2@PAVMemoryManager@2@@Z 1202d066 f   XSAnnotation.obj
 0001:0002c09a       ?getProtoType@XSAnnotation@xercesc_3_1@@UBEPAVXProtoType@2@XZ 1202d09a f   XSAnnotation.obj
 0001:0002c0a0       ?serialize@XSAnnotation@xercesc_3_1@@UAEXAAVXSerializeEngine@2@@Z 1202d0a0 f   XSAnnotation.obj
 0001:0002c150       ??_EDOMDocument@xercesc_3_1@@WM@AEPAXI@Z 1202d150 f i XSAnnotation.obj
 0001:0002c158       ??_EXSAnnotation@xercesc_3_1@@W3AEPAXI@Z 1202d158 f i XSAnnotation.obj
 0001:0002c160       ??_EDOMDocument@xercesc_3_1@@W3AEPAXI@Z 1202d160 f i XSAnnotation.obj
 0001:0002c168       ??_EDOMDocument@xercesc_3_1@@W7AEPAXI@Z 1202d168 f i XSAnnotation.obj
 0001:0002c170       ??_EXSAttributeDeclaration@xercesc_3_1@@UAEPAXI@Z 1202d170 f i XSAttributeDeclaration.obj
 0001:0002c207       ?getAnnotations@XSModel@xercesc_3_1@@QAEPAV?$RefVectorOf@VXSAnnotation@xercesc_3_1@@@2@XZ 1202d207 f i XSModel.obj
 0001:0002c207       ?getDoctype@DOMDocumentImpl@xercesc_3_1@@UBEPAVDOMDocumentType@2@XZ 1202d207 f i DOMDocumentImpl.obj
 0001:0002c207       ?getSchemaNamespace@XSNamespaceItem@xercesc_3_1@@QBEPB_WXZ 1202d207 f i XSAttributeDeclaration.obj
 0001:0002c20e       ??0XSAttributeDeclaration@xercesc_3_1@@QAE@QAVSchemaAttDef@1@QAVXSSimpleTypeDefinition@1@QAVXSAnnotation@1@QAVXSModel@1@W4SCOPE@XSConstants@1@PAVXSComplexTypeDefinition@1@QAVMemoryManager@1@@Z 1202d20e f   XSAttributeDeclaration.obj
 0001:0002c250       ??1XSAttributeDeclaration@xercesc_3_1@@UAE@XZ 1202d250 f   XSAttributeDeclaration.obj
 0001:0002c250       ??1XSAttributeUse@xercesc_3_1@@UAE@XZ 1202d250 f   XSAttributeUse.obj
 0001:0002c250       ??1XSFacet@xercesc_3_1@@UAE@XZ 1202d250 f   XSFacet.obj
 0001:0002c250       ??1XSNotationDeclaration@xercesc_3_1@@UAE@XZ 1202d250 f   XSNotationDeclaration.obj
 0001:0002c250       ??1XSObject@xercesc_3_1@@UAE@XZ 1202d250 f   XSObject.obj
 0001:0002c250       ??1XSTypeDefinition@xercesc_3_1@@UAE@XZ 1202d250 f   XSTypeDefinition.obj
 0001:0002c257       ?getName@XSAttributeDeclaration@xercesc_3_1@@UBEPB_WXZ 1202d257 f   XSAttributeDeclaration.obj
 0001:0002c261       ?getNamespace@XSAttributeDeclaration@xercesc_3_1@@UAEPB_WXZ 1202d261 f   XSAttributeDeclaration.obj
 0001:0002c27a       ?getNamespaceItem@XSAttributeDeclaration@xercesc_3_1@@UAEPAVXSNamespaceItem@2@XZ 1202d27a f   XSAttributeDeclaration.obj
 0001:0002c27a       ?getNamespaceItem@XSAttributeGroupDefinition@xercesc_3_1@@UAEPAVXSNamespaceItem@2@XZ 1202d27a f   XSAttributeGroupDefinition.obj
 0001:0002c27a       ?getNamespaceItem@XSComplexTypeDefinition@xercesc_3_1@@UAEPAVXSNamespaceItem@2@XZ 1202d27a f   XSComplexTypeDefinition.obj
 0001:0002c27a       ?getNamespaceItem@XSElementDeclaration@xercesc_3_1@@UAEPAVXSNamespaceItem@2@XZ 1202d27a f   XSElementDeclaration.obj
 0001:0002c27a       ?getNamespaceItem@XSIDCDefinition@xercesc_3_1@@UAEPAVXSNamespaceItem@2@XZ 1202d27a f   XSIDCDefinition.obj
 0001:0002c27a       ?getNamespaceItem@XSModelGroupDefinition@xercesc_3_1@@UAEPAVXSNamespaceItem@2@XZ 1202d27a f   XSModelGroupDefinition.obj
 0001:0002c27a       ?getNamespaceItem@XSNotationDeclaration@xercesc_3_1@@UAEPAVXSNamespaceItem@2@XZ 1202d27a f   XSNotationDeclaration.obj
 0001:0002c27a       ?getNamespaceItem@XSSimpleTypeDefinition@xercesc_3_1@@UAEPAVXSNamespaceItem@2@XZ 1202d27a f   XSSimpleTypeDefinition.obj
 0001:0002c28d       ?getConstraintType@XSAttributeDeclaration@xercesc_3_1@@QBE?AW4VALUE_CONSTRAINT@XSConstants@2@XZ 1202d28d f   XSAttributeDeclaration.obj
 0001:0002c2b5       ?getConstraintValue@XSAttributeDeclaration@xercesc_3_1@@QAEPB_WXZ 1202d2b5 f   XSAttributeDeclaration.obj
 0001:0002c2c5       ?getRequired@XSAttributeDeclaration@xercesc_3_1@@QBE_NXZ 1202d2c5 f   XSAttributeDeclaration.obj
 0001:0002c2d9       ??_EXSAttributeGroupDefinition@xercesc_3_1@@UAEPAXI@Z 1202d2d9 f i XSAttributeGroupDefinition.obj
 0001:0002c36f       ??0XSAttributeGroupDefinition@xercesc_3_1@@QAE@QAVXercesAttGroupInfo@1@QAV?$RefVectorOf@VXSAttributeUse@xercesc_3_1@@@1@QAVXSWildcard@1@QAVXSAnnotation@1@QAVXSModel@1@QAVMemoryManager@1@@Z 1202d36f f   XSAttributeGroupDefinition.obj
 0001:0002c3ab       ??1XSAttributeGroupDefinition@xercesc_3_1@@UAE@XZ 1202d3ab f   XSAttributeGroupDefinition.obj
 0001:0002c3c9       ?getName@XSAttributeGroupDefinition@xercesc_3_1@@UBEPB_WXZ 1202d3c9 f   XSAttributeGroupDefinition.obj
 0001:0002c3c9       ?getNamespace@XSNotationDeclaration@xercesc_3_1@@UAEPB_WXZ 1202d3c9 f   XSNotationDeclaration.obj
 0001:0002c3df       ?getName@XSModelGroupDefinition@xercesc_3_1@@UBEPB_WXZ 1202d3df f   XSModelGroupDefinition.obj
 0001:0002c3df       ?getNamespace@XSAttributeGroupDefinition@xercesc_3_1@@UAEPB_WXZ 1202d3df f   XSAttributeGroupDefinition.obj
 0001:0002c3f5       ??_EXSAttributeUse@xercesc_3_1@@UAEPAXI@Z 1202d3f5 f i XSAttributeUse.obj
 0001:0002c3f5       ??_EXSFacet@xercesc_3_1@@UAEPAXI@Z 1202d3f5 f i XSFacet.obj
 0001:0002c48c       ??0XSAttributeUse@xercesc_3_1@@QAE@QAVXSAttributeDeclaration@1@QAVXSModel@1@QAVMemoryManager@1@@Z 1202d48c f   XSAttributeUse.obj
 0001:0002c4c1       ?set@XSAttributeUse@xercesc_3_1@@AAEX_NW4VALUE_CONSTRAINT@XSConstants@2@QB_W@Z 1202d4c1 f   XSAttributeUse.obj
 0001:0002c4da       ??_EXSComplexTypeDefinition@xercesc_3_1@@UAEPAXI@Z 1202d4da f i XSComplexTypeDefinition.obj
 0001:0002c570       ??_FSchemaAttDefList@xercesc_3_1@@QAEXXZ 1202d570 f i XSComplexTypeDefinition.obj
 0001:0002c57c       ?addAttDef@DTDAttDefList@xercesc_3_1@@AAEXPAVDTDAttDef@2@@Z 1202d57c f i DTDAttDefList.obj
 0001:0002c57c       ?addAttDef@SchemaAttDefList@xercesc_3_1@@AAEXPAVSchemaAttDef@2@@Z 1202d57c f i XSComplexTypeDefinition.obj
 0001:0002c5d6       ?findAttDefLocalPart@SchemaAttDefList@xercesc_3_1@@QAEPAVXMLAttDef@2@IQB_W@Z 1202d5d6 f i XSComplexTypeDefinition.obj
 0001:0002c5d6       ?findAttDefLocalPart@SchemaAttDefList@xercesc_3_1@@QBEPBVXMLAttDef@2@IQB_W@Z 1202d5d6 f i XSComplexTypeDefinition.obj
 0001:0002c5eb       ??0XSComplexTypeDefinition@xercesc_3_1@@QAE@QAVComplexTypeInfo@1@QAVXSWildcard@1@QAVXSSimpleTypeDefinition@1@QAV?$RefVectorOf@VXSAttributeUse@xercesc_3_1@@@1@QAVXSTypeDefinition@1@QAVXSParticle@1@QAVXSAnnotation@1@QAVXSModel@1@QAVMemoryManager@1@@Z 1202d5eb f   XSComplexTypeDefinition.obj
 0001:0002c6c6       ??1XSComplexTypeDefinition@xercesc_3_1@@UAE@XZ 1202d6c6 f   XSComplexTypeDefinition.obj
 0001:0002c6fe       ?getDerivationMethod@XSComplexTypeDefinition@xercesc_3_1@@QBE?AW4DERIVATION_TYPE@XSConstants@2@XZ 1202d6fe f   XSComplexTypeDefinition.obj
 0001:0002c70c       ?getAbstract@XSComplexTypeDefinition@xercesc_3_1@@QBE_NXZ 1202d70c f   XSComplexTypeDefinition.obj
 0001:0002c713       ?getContentType@XSComplexTypeDefinition@xercesc_3_1@@QBE?AW4CONTENT_TYPE@12@XZ 1202d713 f   XSComplexTypeDefinition.obj
 0001:0002c73c       ?isProhibitedSubstitution@XSComplexTypeDefinition@xercesc_3_1@@QAE_NW4DERIVATION_TYPE@XSConstants@2@@Z 1202d73c f   XSComplexTypeDefinition.obj
 0001:0002c74d       ?getName@XSComplexTypeDefinition@xercesc_3_1@@UBEPB_WXZ 1202d74d f   XSComplexTypeDefinition.obj
 0001:0002c754       ?getNamespace@XSComplexTypeDefinition@xercesc_3_1@@UAEPB_WXZ 1202d754 f   XSComplexTypeDefinition.obj
 0001:0002c75b       ?getAnonymous@XSComplexTypeDefinition@xercesc_3_1@@UBE_NXZ 1202d75b f   XSComplexTypeDefinition.obj
 0001:0002c762       ?derivedFromType@XSComplexTypeDefinition@xercesc_3_1@@UAE_NQBVXSTypeDefinition@2@@Z 1202d762 f   XSComplexTypeDefinition.obj
 0001:0002c7ab       ??0?$RefVectorOf@VXSAnnotation@xercesc_3_1@@@xercesc_3_1@@QAE@K_NQAVMemoryManager@1@@Z 1202d7ab f i XSComplexTypeDefinition.obj
 0001:0002c842       ??1?$RefVectorOf@VXSAnnotation@xercesc_3_1@@@xercesc_3_1@@UAE@XZ 1202d842 f i XSComplexTypeDefinition.obj
 0001:0002c8b6       ??_E?$RefVectorOf@VXSAnnotation@xercesc_3_1@@@xercesc_3_1@@UAEPAXI@Z 1202d8b6 f i * CIL library *:* CIL module *
 0001:0002c8b6       ??_G?$RefVectorOf@VXSAnnotation@xercesc_3_1@@@xercesc_3_1@@UAEPAXI@Z 1202d8b6 f i XSComplexTypeDefinition.obj
 0001:0002c8e6       ??_E?$BaseRefVectorOf@VXSAnnotation@xercesc_3_1@@@xercesc_3_1@@UAEPAXI@Z 1202d8e6 f i * CIL library *:* CIL module *
 0001:0002c8e6       ??_G?$BaseRefVectorOf@VXSAnnotation@xercesc_3_1@@@xercesc_3_1@@UAEPAXI@Z 1202d8e6 f i XSComplexTypeDefinition.obj
 0001:0002c917       ??_EXSElementDeclaration@xercesc_3_1@@UAEPAXI@Z 1202d917 f i XSElementDeclaration.obj
 0001:0002c9ad       ??0XSElementDeclaration@xercesc_3_1@@QAE@QAVSchemaElementDecl@1@QAVXSTypeDefinition@1@QAV01@QAVXSAnnotation@1@QAV?$XSNamedMap@VXSIDCDefinition@xercesc_3_1@@@1@QAVXSModel@1@W4SCOPE@XSConstants@1@QAVXSComplexTypeDefinition@1@QAVMemoryManager@1@@Z 1202d9ad f   XSElementDeclaration.obj
 0001:0002ca5a       ??1XSElementDeclaration@xercesc_3_1@@UAE@XZ 1202da5a f   XSElementDeclaration.obj
 0001:0002ca82       ?getName@XSElementDeclaration@xercesc_3_1@@UBEPB_WXZ 1202da82 f   XSElementDeclaration.obj
 0001:0002ca8c       ?getNamespace@XSElementDeclaration@xercesc_3_1@@UAEPB_WXZ 1202da8c f   XSElementDeclaration.obj
 0001:0002caa5       ?getConstraintType@XSElementDeclaration@xercesc_3_1@@QBE?AW4VALUE_CONSTRAINT@XSConstants@2@XZ 1202daa5 f   XSElementDeclaration.obj
 0001:0002cabb       ?getConstraintValue@XSElementDeclaration@xercesc_3_1@@QAEPB_WXZ 1202dabb f   XSElementDeclaration.obj
 0001:0002cac2       ?getNillable@XSElementDeclaration@xercesc_3_1@@QBE_NXZ 1202dac2 f   XSElementDeclaration.obj
 0001:0002cacb       ?isSubstitutionGroupExclusion@XSElementDeclaration@xercesc_3_1@@QAE_NW4DERIVATION_TYPE@XSConstants@2@@Z 1202dacb f   XSElementDeclaration.obj
 0001:0002cadc       ?isDisallowedSubstitution@XSElementDeclaration@xercesc_3_1@@QAE_NW4DERIVATION_TYPE@XSConstants@2@@Z 1202dadc f   XSElementDeclaration.obj
 0001:0002caed       ?getAbstract@XSElementDeclaration@xercesc_3_1@@QBE_NXZ 1202daed f   XSElementDeclaration.obj
 0001:0002caf8       ??1?$XSNamedMap@VXSIDCDefinition@xercesc_3_1@@@xercesc_3_1@@QAE@XZ 1202daf8 f i XSElementDeclaration.obj
 0001:0002caf8       ??1?$XSNamedMap@VXSObject@xercesc_3_1@@@xercesc_3_1@@QAE@XZ 1202daf8 f i XSModel.obj
